
sound_treatment.elf:     file format elf32-littlenios2
sound_treatment.elf
architecture: nios2:r1, flags 0x00000112:
EXEC_P, HAS_SYMS, D_PAGED
start address 0x00020244

Program Header:
    LOAD off    0x00001000 vaddr 0x00020000 paddr 0x00020000 align 2**12
         filesz 0x00000020 memsz 0x00000020 flags r-x
    LOAD off    0x00001020 vaddr 0x00020020 paddr 0x00020020 align 2**12
         filesz 0x00018eec memsz 0x00018eec flags r-x
    LOAD off    0x00019f0c vaddr 0x00038f0c paddr 0x0003bac4 align 2**12
         filesz 0x00002bb8 memsz 0x00002bb8 flags rw-
    LOAD off    0x0001d67c vaddr 0x0003e67c paddr 0x0003e67c align 2**12
         filesz 0x00000000 memsz 0x00000158 flags rw-

Sections:
Idx Name          Size      VMA       LMA       File off  Algn
  0 .entry        00000020  00020000  00020000  00001000  2**5
                  CONTENTS, ALLOC, LOAD, READONLY, CODE
  1 .exceptions   00000224  00020020  00020020  00001020  2**2
                  CONTENTS, ALLOC, LOAD, READONLY, CODE
  2 .text         00017d20  00020244  00020244  00001244  2**2
                  CONTENTS, ALLOC, LOAD, READONLY, CODE
  3 .rodata       00000fa8  00037f64  00037f64  00018f64  2**2
                  CONTENTS, ALLOC, LOAD, READONLY, DATA
  4 .rwdata       00002bb8  00038f0c  0003bac4  00019f0c  2**2
                  CONTENTS, ALLOC, LOAD, DATA, SMALL_DATA
  5 .bss          00000158  0003e67c  0003e67c  0001d67c  2**2
                  ALLOC, SMALL_DATA
  6 .onchip_memory_nios2_FFT 00000000  0003e7d4  0003e7d4  0001cac4  2**0
                  CONTENTS
  7 .comment      00000023  00000000  00000000  0001cac4  2**0
                  CONTENTS, READONLY
  8 .debug_aranges 000014a0  00000000  00000000  0001cae8  2**3
                  CONTENTS, READONLY, DEBUGGING
  9 .debug_info   000331c8  00000000  00000000  0001df88  2**0
                  CONTENTS, READONLY, DEBUGGING
 10 .debug_abbrev 0000d2c3  00000000  00000000  00051150  2**0
                  CONTENTS, READONLY, DEBUGGING
 11 .debug_line   00010826  00000000  00000000  0005e413  2**0
                  CONTENTS, READONLY, DEBUGGING
 12 .debug_frame  0000312c  00000000  00000000  0006ec3c  2**2
                  CONTENTS, READONLY, DEBUGGING
 13 .debug_str    00004b56  00000000  00000000  00071d68  2**0
                  CONTENTS, READONLY, DEBUGGING
 14 .debug_loc    0001e990  00000000  00000000  000768be  2**0
                  CONTENTS, READONLY, DEBUGGING
 15 .debug_alt_sim_info 00000030  00000000  00000000  00095250  2**2
                  CONTENTS, READONLY, DEBUGGING
 16 .debug_ranges 000020d8  00000000  00000000  00095280  2**3
                  CONTENTS, READONLY, DEBUGGING
 17 .thread_model 00000003  00000000  00000000  0009b372  2**0
                  CONTENTS, READONLY
 18 .cpu          00000009  00000000  00000000  0009b375  2**0
                  CONTENTS, READONLY
 19 .qsys         00000001  00000000  00000000  0009b37e  2**0
                  CONTENTS, READONLY
 20 .simulation_enabled 00000001  00000000  00000000  0009b37f  2**0
                  CONTENTS, READONLY
 21 .stderr_dev   00000006  00000000  00000000  0009b380  2**0
                  CONTENTS, READONLY
 22 .stdin_dev    00000006  00000000  00000000  0009b386  2**0
                  CONTENTS, READONLY
 23 .stdout_dev   00000006  00000000  00000000  0009b38c  2**0
                  CONTENTS, READONLY
 24 .sopc_system_name 0000000b  00000000  00000000  0009b392  2**0
                  CONTENTS, READONLY
 25 .quartus_project_dir 0000003c  00000000  00000000  0009b39d  2**0
                  CONTENTS, READONLY
 26 .jdi          000092fe  00000000  00000000  0009b3d9  2**0
                  CONTENTS, READONLY
 27 .sopcinfo     000af5fd  00000000  00000000  000a46d7  2**0
                  CONTENTS, READONLY
SYMBOL TABLE:
00020000 l    d  .entry	00000000 .entry
00020020 l    d  .exceptions	00000000 .exceptions
00020244 l    d  .text	00000000 .text
00037f64 l    d  .rodata	00000000 .rodata
00038f0c l    d  .rwdata	00000000 .rwdata
0003e67c l    d  .bss	00000000 .bss
0003e7d4 l    d  .onchip_memory_nios2_FFT	00000000 .onchip_memory_nios2_FFT
00000000 l    d  .comment	00000000 .comment
00000000 l    d  .debug_aranges	00000000 .debug_aranges
00000000 l    d  .debug_info	00000000 .debug_info
00000000 l    d  .debug_abbrev	00000000 .debug_abbrev
00000000 l    d  .debug_line	00000000 .debug_line
00000000 l    d  .debug_frame	00000000 .debug_frame
00000000 l    d  .debug_str	00000000 .debug_str
00000000 l    d  .debug_loc	00000000 .debug_loc
00000000 l    d  .debug_alt_sim_info	00000000 .debug_alt_sim_info
00000000 l    d  .debug_ranges	00000000 .debug_ranges
00000000 l    df *ABS*	00000000 /home/vm/Final-Project-Real-Time-Embedded-Systems/sw/nios/sound_treatment_bsp//obj/HAL/src/crt0.o
0002028c l       .text	00000000 alt_after_alt_main
00000000 l    df *ABS*	00000000 alt_irq_handler.c
00000000 l    df *ABS*	00000000 alt_instruction_exception_entry.c
00000000 l    df *ABS*	00000000 data_processor.c
00020290 l     F .text	00000104 convert_to_freq
00020394 l     F .text	000000f8 complex_abs
0002048c l     F .text	000000e8 get_peak_pos
00020574 l     F .text	000000d0 get_peak_frequence
00000000 l    df *ABS*	00000000 hello_world.c
00000000 l    df *ABS*	00000000 kiss_fft.c
00020e9c l     F .text	00000200 kf_bfly2
0002109c l     F .text	00000710 kf_bfly4
000217ac l     F .text	0000060c kf_bfly3
00021db8 l     F .text	00000b00 kf_bfly5
000228b8 l     F .text	00000344 kf_bfly_generic
00022bfc l     F .text	00000210 kf_work
00022e0c l     F .text	0000013c kf_factor
00000000 l    df *ABS*	00000000 wawfile.c
00000000 l    df *ABS*	00000000 s_cos.c
00000000 l    df *ABS*	00000000 s_floor.c
00000000 l    df *ABS*	00000000 s_sin.c
00000000 l    df *ABS*	00000000 w_sqrt.c
00000000 l    df *ABS*	00000000 e_rem_pio2.c
00038114 l     O .rodata	00000108 two_over_pi
00038094 l     O .rodata	00000080 npio2_hw
00000000 l    df *ABS*	00000000 e_sqrt.c
00000000 l    df *ABS*	00000000 k_cos.c
00000000 l    df *ABS*	00000000 k_rem_pio2.c
0003825c l     O .rodata	00000010 init_jk
0003821c l     O .rodata	00000040 PIo2
00000000 l    df *ABS*	00000000 k_sin.c
00000000 l    df *ABS*	00000000 s_fabs.c
00000000 l    df *ABS*	00000000 s_fpclassify.c
00000000 l    df *ABS*	00000000 s_lib_ver.c
00000000 l    df *ABS*	00000000 s_matherr.c
00000000 l    df *ABS*	00000000 s_scalbn.c
00000000 l    df *ABS*	00000000 s_copysign.c
00000000 l    df *ABS*	00000000 lib2-divmod.c
00000000 l    df *ABS*	00000000 addsf3.c
00000000 l    df *ABS*	00000000 divsf3.c
00000000 l    df *ABS*	00000000 mulsf3.c
00000000 l    df *ABS*	00000000 subsf3.c
00000000 l    df *ABS*	00000000 fixsfsi.c
00000000 l    df *ABS*	00000000 floatsisf.c
00000000 l    df *ABS*	00000000 adddf3.c
00000000 l    df *ABS*	00000000 divdf3.c
00000000 l    df *ABS*	00000000 eqdf2.c
00000000 l    df *ABS*	00000000 gedf2.c
00000000 l    df *ABS*	00000000 ledf2.c
00000000 l    df *ABS*	00000000 muldf3.c
00000000 l    df *ABS*	00000000 subdf3.c
00000000 l    df *ABS*	00000000 fixdfsi.c
00000000 l    df *ABS*	00000000 floatsidf.c
00000000 l    df *ABS*	00000000 floatunsidf.c
00000000 l    df *ABS*	00000000 extendsfdf2.c
00000000 l    df *ABS*	00000000 truncdfsf2.c
00000000 l    df *ABS*	00000000 libgcc2.c
00000000 l    df *ABS*	00000000 libgcc2.c
00000000 l    df *ABS*	00000000 atoi.c
00000000 l    df *ABS*	00000000 errno.c
00000000 l    df *ABS*	00000000 exit.c
00000000 l    df *ABS*	00000000 fclose.c
00000000 l    df *ABS*	00000000 fflush.c
00000000 l    df *ABS*	00000000 findfp.c
00029c14 l     F .text	00000008 __fp_unlock
00029c28 l     F .text	0000019c __sinit.part.1
00029dc4 l     F .text	00000008 __fp_lock
00000000 l    df *ABS*	00000000 fopen.c
00000000 l    df *ABS*	00000000 mallocr.c
00000000 l    df *ABS*	00000000 fseek.c
00000000 l    df *ABS*	00000000 fseeko.c
00000000 l    df *ABS*	00000000 fstatr.c
00000000 l    df *ABS*	00000000 fwalk.c
00000000 l    df *ABS*	00000000 fwrite.c
00000000 l    df *ABS*	00000000 getc.c
00000000 l    df *ABS*	00000000 impure.c
0003af0c l     O .rwdata	00000424 impure_data
00000000 l    df *ABS*	00000000 int_errno.c
00000000 l    df *ABS*	00000000 makebuf.c
00000000 l    df *ABS*	00000000 malloc.c
00000000 l    df *ABS*	00000000 mallocr.c
00000000 l    df *ABS*	00000000 memcpy.c
00000000 l    df *ABS*	00000000 memset.c
00000000 l    df *ABS*	00000000 openr.c
00000000 l    df *ABS*	00000000 perror.c
00000000 l    df *ABS*	00000000 printf.c
00000000 l    df *ABS*	00000000 putchar.c
00000000 l    df *ABS*	00000000 puts.c
00000000 l    df *ABS*	00000000 refill.c
0002bc04 l     F .text	0000001c lflush
00000000 l    df *ABS*	00000000 rget.c
00000000 l    df *ABS*	00000000 sbrkr.c
00000000 l    df *ABS*	00000000 stdio.c
00000000 l    df *ABS*	00000000 strerror.c
00000000 l    df *ABS*	00000000 strlen.c
00000000 l    df *ABS*	00000000 strtol.c
00000000 l    df *ABS*	00000000 u_strerr.c
00000000 l    df *ABS*	00000000 vfprintf.c
00038aba l     O .rodata	00000010 zeroes.4404
0002eb8c l     F .text	000000bc __sbprintf
00038aca l     O .rodata	00000010 blanks.4403
00000000 l    df *ABS*	00000000 writer.c
00000000 l    df *ABS*	00000000 wsetup.c
00000000 l    df *ABS*	00000000 closer.c
00000000 l    df *ABS*	00000000 __call_atexit.c
00000000 l    df *ABS*	00000000 ctype_.c
00038bdb l     O .rodata	00000180 _ctype_b
00000000 l    df *ABS*	00000000 dtoa.c
0002efd0 l     F .text	00000200 quorem
00000000 l    df *ABS*	00000000 flags.c
00000000 l    df *ABS*	00000000 fputc.c
00000000 l    df *ABS*	00000000 fputs.c
00000000 l    df *ABS*	00000000 fvwrite.c
00000000 l    df *ABS*	00000000 isattyr.c
00000000 l    df *ABS*	00000000 locale.c
0003b758 l     O .rwdata	00000020 lc_ctype_charset
0003b738 l     O .rwdata	00000020 lc_message_charset
0003b778 l     O .rwdata	00000038 lconv
00000000 l    df *ABS*	00000000 lseekr.c
00000000 l    df *ABS*	00000000 memchr.c
00000000 l    df *ABS*	00000000 memmove.c
00000000 l    df *ABS*	00000000 mprec.c
00038d78 l     O .rodata	0000000c p05.2768
00000000 l    df *ABS*	00000000 putc.c
00000000 l    df *ABS*	00000000 readr.c
00000000 l    df *ABS*	00000000 mallocr.c
00000000 l    df *ABS*	00000000 strcmp.c
00000000 l    df *ABS*	00000000 vfprintf.c
00032ae8 l     F .text	000000fc __sprint_r.part.0
00038eac l     O .rodata	00000010 blanks.4348
00038e9c l     O .rodata	00000010 zeroes.4349
00034074 l     F .text	000000bc __sbprintf
00000000 l    df *ABS*	00000000 wbuf.c
00000000 l    df *ABS*	00000000 mallocr.c
00000000 l    df *ABS*	00000000 fputwc.c
00000000 l    df *ABS*	00000000 wcrtomb.c
00000000 l    df *ABS*	00000000 wctomb_r.c
00000000 l    df *ABS*	00000000 libgcc2.c
00000000 l    df *ABS*	00000000 libgcc2.c
00000000 l    df *ABS*	00000000 alt_close.c
000351ec l     F .text	0000003c alt_get_errno
00000000 l    df *ABS*	00000000 alt_dev.c
000352f8 l     F .text	0000002c alt_dev_null_write
00000000 l    df *ABS*	00000000 alt_errno.c
00000000 l    df *ABS*	00000000 alt_exit.c
00000000 l    df *ABS*	00000000 alt_fstat.c
00035358 l     F .text	0000003c alt_get_errno
00000000 l    df *ABS*	00000000 alt_isatty.c
00035444 l     F .text	0000003c alt_get_errno
00000000 l    df *ABS*	00000000 alt_load.c
00035524 l     F .text	00000068 alt_load_section
00000000 l    df *ABS*	00000000 alt_lseek.c
00035610 l     F .text	0000003c alt_get_errno
00000000 l    df *ABS*	00000000 alt_main.c
00000000 l    df *ABS*	00000000 alt_malloc_lock.c
00000000 l    df *ABS*	00000000 alt_open.c
000357e4 l     F .text	0000003c alt_get_errno
00035820 l     F .text	000000c4 alt_file_locked
00000000 l    df *ABS*	00000000 alt_read.c
00035a38 l     F .text	0000003c alt_get_errno
00000000 l    df *ABS*	00000000 alt_release_fd.c
00000000 l    df *ABS*	00000000 alt_sbrk.c
0003baac l     O .rwdata	00000004 heap_end
00000000 l    df *ABS*	00000000 alt_write.c
00035c84 l     F .text	0000003c alt_get_errno
00000000 l    df *ABS*	00000000 alt_sys_init.c
00035db8 l     F .text	00000034 alt_dev_reg
00035dec l     F .text	0000003c alt_get_errno
00035e28 l     F .text	00000068 alt_avalon_mutex_reg
0003b958 l     O .rwdata	00000048 mailbox_simple_0
0003b9a0 l     O .rwdata	00000010 mutex_SDRAM
0003b9b0 l     O .rwdata	000000c4 uart_0
00000000 l    df *ABS*	00000000 altera_avalon_mailbox_simple.c
00035f30 l     F .text	00000090 altera_avalon_mailbox_identify
00035fc0 l     F .text	00000078 altera_avalon_mailbox_post
00036038 l     F .text	00000138 altera_avalon_mailbox_simple_tx_isr
00036170 l     F .text	000000a8 altera_avalon_mailbox_simple_rx_isr
00000000 l    df *ABS*	00000000 altera_avalon_mutex.c
00036890 l     F .text	0000003c alt_get_errno
000368cc l     F .text	0000007c alt_mutex_trylock
00000000 l    df *ABS*	00000000 altera_avalon_uart_fd.c
00000000 l    df *ABS*	00000000 altera_avalon_uart_init.c
00036d18 l     F .text	0000009c altera_avalon_uart_irq
00036db4 l     F .text	000000e4 altera_avalon_uart_rxirq
00036e98 l     F .text	00000148 altera_avalon_uart_txirq
00000000 l    df *ABS*	00000000 altera_avalon_uart_read.c
00037034 l     F .text	0000003c alt_get_errno
00000000 l    df *ABS*	00000000 altera_avalon_uart_write.c
0003724c l     F .text	0000003c alt_get_errno
00000000 l    df *ABS*	00000000 alt_dcache_flush_all.c
00000000 l    df *ABS*	00000000 alt_dev_llist_insert.c
0003747c l     F .text	0000003c alt_get_errno
00000000 l    df *ABS*	00000000 alt_do_ctors.c
00000000 l    df *ABS*	00000000 alt_do_dtors.c
00000000 l    df *ABS*	00000000 alt_find_dev.c
00000000 l    df *ABS*	00000000 alt_find_file.c
00000000 l    df *ABS*	00000000 alt_get_fd.c
00000000 l    df *ABS*	00000000 alt_icache_flush_all.c
00000000 l    df *ABS*	00000000 alt_iic.c
00000000 l    df *ABS*	00000000 alt_iic_isr_register.c
00000000 l    df *ABS*	00000000 alt_io_redirect.c
00037b2c l     F .text	000000c4 alt_open_fd
00000000 l    df *ABS*	00000000 alt_irq_vars.c
00000000 l    df *ABS*	00000000 altera_nios2_gen2_irq.c
00000000 l    df *ABS*	00000000 alt_icache_flush.c
00000000 l    df *ABS*	00000000 atexit.c
00000000 l    df *ABS*	00000000 memcmp.c
00000000 l    df *ABS*	00000000 __atexit.c
0003e6a8 g     O .bss	00000004 alt_instruction_exception_handler
0002bb18 g     F .text	00000018 putchar
00032168 g     F .text	00000074 _mprec_log10
00036604 g     F .text	00000150 altera_avalon_mailbox_send
00032254 g     F .text	0000008c __any_on
00030f14 g     F .text	00000054 _isatty_r
00038d84 g     O .rodata	00000028 __mprec_tinytens
00035720 g     F .text	0000007c alt_main
0002bb30 g     F .text	000000c0 _puts_r
0003e6d4 g     O .bss	00000100 alt_irq
00025770 g     F .text	00000014 fabs
00031044 g     F .text	00000060 _lseek_r
0002374c g     F .text	00000130 sqrt
0003bac4 g       *ABS*	00000000 __flash_rwdata_start
00030858 g     F .text	000000ac __sflags
0002807c g     F .text	00000088 .hidden __eqdf2
0003e7d4 g       *ABS*	00000000 __alt_heap_start
0002bad4 g     F .text	0000003c printf
00034554 g     F .text	0000009c _wcrtomb_r
0002bfa8 g     F .text	0000005c __sseek
00029f64 g     F .text	00000010 __sinit
00034130 g     F .text	00000140 __swbuf_r
00030f68 g     F .text	0000007c _setlocale_r
00029dcc g     F .text	00000068 __sfmoreglue
000357c0 g     F .text	00000024 __malloc_unlock
00026034 g     F .text	00000440 .hidden __divsf3
0002c668 g     F .text	0000001c strerror
00031188 g     F .text	0000015c memmove
00029f4c g     F .text	00000018 _cleanup
00036a04 g     F .text	00000040 altera_avalon_mutex_trylock
000312e4 g     F .text	000000a8 _Balloc
00026d54 g     F .text	00000070 .hidden __fixsfsi
00028104 g     F .text	000000dc .hidden __gtdf2
00037c6c g     F .text	00000024 altera_nios2_gen2_irq_init
00029820 g     F .text	00000010 __errno
000208a0 g     F .text	000001a4 TestFft
00020000 g     F .entry	0000001c __reset
00036a98 g     F .text	00000074 altera_avalon_mutex_is_mine
00020020 g       *ABS*	00000000 __flash_exceptions_start
0002a974 g     F .text	0000005c _fstat_r
0003e67c g     O .bss	00000004 errno
0002be68 g     F .text	00000014 __srget
00023470 g     F .text	000001ec floor
0002bf24 g     F .text	00000008 __seofread
0003e69c g     O .bss	00000004 alt_argv
00043a74 g       *ABS*	00000000 _gp
00036754 g     F .text	0000013c altera_avalon_mailbox_retrieve_poll
00026870 g     F .text	000004e4 .hidden __subsf3
0003b7d8 g     O .rwdata	00000180 alt_fd_list
0002ac58 g     F .text	00000070 _getc_r
0002387c g     F .text	0000076c __ieee754_rem_pio2
0002acc8 g     F .text	00000088 getc
0002bb10 g     F .text	00000008 _putchar_r
0003761c g     F .text	00000090 alt_find_dev
0002b740 g     F .text	00000148 memcpy
00029c1c g     F .text	0000000c _cleanup_r
00029368 g     F .text	000000dc .hidden __floatsidf
0002ba90 g     F .text	00000014 perror
00037bf0 g     F .text	0000007c alt_io_redirect
000281e0 g     F .text	000000f4 .hidden __ltdf2
00037f64 g       *ABS*	00000000 __DTOR_END__
0002bbf0 g     F .text	00000014 puts
00037d20 g     F .text	0000009c alt_exception_cause_generated_bad_addr
0002c00c g     F .text	0000065c _strerror_r
00036218 g     F .text	00000078 altera_avalon_mailbox_simple_init
00025784 g     F .text	00000074 __fpclassifyd
000320c4 g     F .text	000000a4 __ratio
00034058 g     F .text	0000001c __vfiprintf_internal
0002af0c g     F .text	00000014 malloc
0002baa4 g     F .text	00000030 _printf_r
00025ab0 g     F .text	00000064 .hidden __udivsi3
00035480 g     F .text	000000a4 isatty
00038dd4 g     O .rodata	000000c8 __mprec_tens
0003658c g     F .text	00000078 altera_avalon_mailbox_status
00036474 g     F .text	00000118 altera_avalon_mailbox_close
00030fe4 g     F .text	0000000c __locale_charset
00024270 g     F .text	000004a4 __kernel_cos
00037c90 g     F .text	00000090 alt_icache_flush
0003e688 g     O .bss	00000004 __malloc_top_pad
0003ba8c g     O .rwdata	00000004 __mb_cur_max
00031014 g     F .text	0000000c _localeconv_r
000316f0 g     F .text	0000003c __i2b
00030a58 g     F .text	000004bc __sfvwrite_r
0002be7c g     F .text	00000054 _sbrk_r
00032448 g     F .text	00000060 _read_r
0003baa4 g     O .rwdata	00000004 alt_max_fd
00029868 g     F .text	000000f0 _fclose_r
00029be4 g     F .text	00000030 fflush
0003e684 g     O .bss	00000004 __malloc_max_sbrked_mem
000254a4 g     F .text	000002cc __kernel_sin
000294ec g     F .text	00000110 .hidden __extendsfdf2
00026ee8 g     F .text	000008ac .hidden __adddf3
00031e6c g     F .text	0000010c __b2d
00034cb4 g     F .text	00000538 .hidden __umoddi3
0003564c g     F .text	000000d4 lseek
00036b0c g     F .text	00000050 altera_avalon_mutex_first_lock
0003ba74 g     O .rwdata	00000004 __fdlib_version
0003ba78 g     O .rwdata	00000004 _global_impure_ptr
000324a8 g     F .text	00000564 _realloc_r
0003e7d4 g       *ABS*	00000000 __bss_end
00037a3c g     F .text	000000f0 alt_iic_isr_register
0003473c g     F .text	00000578 .hidden __udivdi3
000344b0 g     F .text	00000024 _fputwc_r
00038dac g     O .rodata	00000028 __mprec_bigtens
000314d4 g     F .text	00000104 __s2b
00029444 g     F .text	000000a8 .hidden __floatunsidf
00031bac g     F .text	00000060 __mcmp
00036c6c g     F .text	000000ac altera_avalon_uart_init
00029f84 g     F .text	00000018 __fp_lock_all
000379f0 g     F .text	0000004c alt_ic_irq_enabled
0002c954 g     F .text	0000001c strtol
0003e6a4 g     O .bss	00000004 alt_irq_active
0002a514 g     F .text	00000444 _fseeko_r
000200fc g     F .exceptions	000000d4 alt_irq_handler
0003b7b0 g     O .rwdata	00000028 alt_dev_null
00024714 g     F .text	00000d90 __kernel_rem_pio2
00036948 g     F .text	00000054 altera_avalon_mutex_open
00037434 g     F .text	00000048 alt_dcache_flush_all
000315d8 g     F .text	00000068 __hi0bits
000292e8 g     F .text	00000080 .hidden __fixdfsi
0003bac4 g       *ABS*	00000000 __ram_rwdata_end
0003ba9c g     O .rwdata	00000008 alt_dev_list
00030904 g     F .text	00000044 _fputc_r
00035cc0 g     F .text	000000f8 write
000322e0 g     F .text	000000a0 _putc_r
0003bab8 g     O .rwdata	00000008 alt_mutex_list
00038f0c g       *ABS*	00000000 __ram_rodata_end
00035394 g     F .text	000000b0 fstat
000281e0 g     F .text	000000f4 .hidden __ledf2
00031924 g     F .text	00000140 __pow5mult
00032bfc g     F .text	0000145c ___vfiprintf_internal_r
0003e694 g     O .bss	00000004 __nlocale_changed
00025b14 g     F .text	00000058 .hidden __umodsi3
00020780 g     F .text	000000bc data_processor_run
0003e7d4 g       *ABS*	00000000 end
0002a958 g     F .text	0000001c fseeko
00029814 g     F .text	0000000c _atoi_r
00037288 g     F .text	000001ac altera_avalon_uart_write
0002a4f8 g     F .text	0000001c fseek
000201d0 g     F .exceptions	00000074 alt_instruction_exception_entry
00037f64 g       *ABS*	00000000 __CTOR_LIST__
00040000 g       *ABS*	00000000 __alt_stack_pointer
00036bbc g     F .text	00000060 altera_avalon_uart_write_fd
000297a4 g     F .text	00000064 .hidden __clzsi2
00036c1c g     F .text	00000050 altera_avalon_uart_close_fd
00023384 g     F .text	000000ec cos
00023178 g     F .text	000000d4 kiss_fft_stride
00029f74 g     F .text	00000004 __sfp_lock_acquire
000310a4 g     F .text	000000e4 memchr
0002324c g     F .text	00000048 kiss_fft
0002c978 g     F .text	000021f8 ___vfprintf_internal_r
0002a1e4 g     F .text	00000310 _free_r
00030ff0 g     F .text	00000010 __locale_mb_cur_max
0002bdf4 g     F .text	00000074 __srget_r
0002ee50 g     F .text	00000180 __call_exitprocs
00020a44 g     F .text	00000084 SilentFft
0003e690 g     O .bss	00000004 __mlocale_changed
0003ba80 g     O .rwdata	00000004 __malloc_sbrk_base
00020244 g     F .text	0000004c _start
0002365c g     F .text	000000f0 sin
0002c970 g     F .text	00000008 _user_strerror
00031a64 g     F .text	00000148 __lshift
00035a74 g     F .text	000000fc read
00035ec8 g     F .text	00000068 alt_sys_init
00026dc4 g     F .text	00000124 .hidden __floatsisf
0002b9b0 g     F .text	00000060 _open_r
00020644 g     F .text	0000013c data_processor_init
00037e4c g     F .text	00000118 __register_exitproc
0002083c g     F .text	00000064 data_processor_close
00036a44 g     F .text	00000054 altera_avalon_mutex_unlock
0003172c g     F .text	000001f8 __multiply
00038f0c g       *ABS*	00000000 __ram_rwdata_start
00037f64 g       *ABS*	00000000 __ram_rodata_start
0003e6ac g     O .bss	00000028 __malloc_current_mallinfo
00031f78 g     F .text	0000014c __d2b
000377b4 g     F .text	000000a4 alt_get_fd
0002edfc g     F .text	00000054 _close_r
00037dd0 g     F .text	0000007c memcmp
0003e7d4 g       *ABS*	00000000 __alt_stack_base
00020000 g       *ABS*	00000000 __alt_mem_onchip_memory_nios2_FFT
0002ab58 g     F .text	000000cc _fwrite_r
0002eca8 g     F .text	00000154 __swsetup_r
00027794 g     F .text	000008e8 .hidden __divdf3
00029e34 g     F .text	00000118 __sfp
000321dc g     F .text	00000078 __copybits
0003b330 g     O .rwdata	00000408 __malloc_av_
00029f80 g     F .text	00000004 __sinit_lock_release
000282d4 g     F .text	00000718 .hidden __muldf3
0002bed0 g     F .text	00000054 __sread
000376ac g     F .text	00000108 alt_find_file
000374b8 g     F .text	000000a4 alt_dev_llist_insert
0003579c g     F .text	00000024 __malloc_lock
00035bd4 g     F .text	000000b0 sbrk
00029b88 g     F .text	0000005c _fflush_r
00034288 g     F .text	000000c4 _calloc_r
0002a0a8 g     F .text	00000018 fopen
0003e67c g       *ABS*	00000000 __bss_start
0002b888 g     F .text	00000128 memset
00020ac8 g     F .text	000003d4 main
0003e6a0 g     O .bss	00000004 alt_envp
0003e680 g     O .bss	00000004 __malloc_max_total_mem
00034270 g     F .text	00000018 __swbuf
0002c004 g     F .text	00000008 __sclose
000257f8 g     F .text	00000008 matherr
00040000 g       *ABS*	00000000 __alt_heap_limit
00029958 g     F .text	00000014 fclose
0002c71c g     F .text	00000238 _strtol_r
000295fc g     F .text	000001a8 .hidden __truncdfsf2
000369c0 g     F .text	00000044 altera_avalon_mutex_lock
0002f1d0 g     F .text	00001688 _dtoa_r
0002af34 g     F .text	0000080c _malloc_r
000346b0 g     F .text	00000030 __ascii_wctomb
0003baa8 g     O .rwdata	00000004 alt_errno
0002a9d0 g     F .text	000000c4 _fwalk
00032380 g     F .text	000000c8 putc
000259b8 g     F .text	00000084 .hidden __divsi3
0002a0c0 g     F .text	00000124 _malloc_trim_r
00037f64 g       *ABS*	00000000 __CTOR_END__
00026474 g     F .text	000003fc .hidden __mulsf3
00032a0c g     F .text	000000dc strcmp
00037f64 g       *ABS*	00000000 __flash_rodata_start
00037f64 g       *ABS*	00000000 __DTOR_LIST__
0002599c g     F .text	0000001c copysign
0002807c g     F .text	00000088 .hidden __nedf2
00035e90 g     F .text	00000038 alt_irq_init
00035b70 g     F .text	00000064 alt_release_fd
0003826c g     O .rodata	00000100 .hidden __clz_tab
0003e68c g     O .bss	00000004 _PathLocale
00037dbc g     F .text	00000014 atexit
0002ec48 g     F .text	00000060 _write_r
00031020 g     F .text	00000018 setlocale
0003ba7c g     O .rwdata	00000004 _impure_ptr
0003e698 g     O .bss	00000004 alt_argc
0002996c g     F .text	0000021c __sflush_r
00025800 g     F .text	0000019c scalbn
000375bc g     F .text	00000060 _do_dtors
0003100c g     F .text	00000008 __locale_cjk_lang
0002a4f4 g     F .text	00000004 _fseek_r
0002bc20 g     F .text	000001d4 __srefill_r
00020020 g       .exceptions	00000000 alt_irq_entry
00031e08 g     F .text	00000064 __ulp
00029f9c g     F .text	00000018 __fp_unlock_all
00030948 g     F .text	0000005c fputc
0003ba94 g     O .rwdata	00000008 alt_fs_list
00020020 g       *ABS*	00000000 __ram_exceptions_start
00031038 g     F .text	0000000c localeconv
00023fe8 g     F .text	00000288 __ieee754_sqrt
0003788c g     F .text	00000050 alt_ic_isr_register
0002ac24 g     F .text	00000034 fwrite
0003bac4 g       *ABS*	00000000 _edata
00036b5c g     F .text	00000060 altera_avalon_uart_read_fd
0003e7d4 g       *ABS*	00000000 _end
00038f0c g     O .rwdata	00002000 wawsound
0003434c g     F .text	00000164 __fputwc
00020244 g       *ABS*	00000000 __ram_exceptions_end
000309a4 g     F .text	0000009c _fputs_r
00037964 g     F .text	0000008c alt_ic_irq_disable
0003bab0 g     O .rwdata	00000008 alt_mailbox_simple_list
0002bf2c g     F .text	0000007c __swrite
0003ba84 g     O .rwdata	00000004 __malloc_trim_threshold
0002ba10 g     F .text	00000080 _perror_r
00031000 g     F .text	0000000c __locale_msgcharset
00029830 g     F .text	00000038 exit
0002aa94 g     F .text	000000c4 _fwalk_reent
00031c0c g     F .text	000001fc __mdiff
00023294 g     F .text	00000020 kiss_fft_cleanup
00025a3c g     F .text	00000074 .hidden __modsi3
0003ba88 g     O .rwdata	00000004 __ctype_ptr__
00040000 g       *ABS*	00000000 __alt_data_end
00020020 g     F .exceptions	00000000 alt_exception
00029f78 g     F .text	00000004 __sfp_lock_release
00029808 g     F .text	0000000c atoi
00038ada g     O .rodata	00000101 _ctype_
00036fe0 g     F .text	00000054 altera_avalon_uart_close
00036290 g     F .text	000001e4 altera_avalon_mailbox_open
00029fb4 g     F .text	000000f4 _fopen_r
00035324 g     F .text	00000034 _exit
0002ad50 g     F .text	000001bc __smakebuf_r
0002c684 g     F .text	00000098 strlen
000358e4 g     F .text	00000154 open
00028104 g     F .text	000000dc .hidden __gedf2
0003ba90 g     O .rwdata	00000004 __wctomb
00032be4 g     F .text	00000018 __sprint_r
00037858 g     F .text	00000034 alt_icache_flush_all
00030a40 g     F .text	00000018 fputs
0003bac0 g     O .rwdata	00000004 alt_priority_mask
000378dc g     F .text	00000088 alt_ic_irq_enable
0002eb70 g     F .text	0000001c __vfprintf_internal
0003699c g     F .text	00000024 altera_avalon_mutex_close
000232b4 g     F .text	000000d0 kiss_fft_next_fast_size
00037070 g     F .text	000001dc altera_avalon_uart_read
000346e0 g     F .text	0000005c _wctomb_r
00022f48 g     F .text	00000230 kiss_fft_alloc
000289ec g     F .text	000008fc .hidden __subdf3
00031640 g     F .text	000000b0 __lo0bits
0003755c g     F .text	00000060 _do_ctors
000345f0 g     F .text	000000c0 wcrtomb
00035228 g     F .text	000000d0 close
00025b6c g     F .text	000004c8 .hidden __addsf3
0003558c g     F .text	00000084 alt_load
000344d4 g     F .text	00000080 fputwc
0002af20 g     F .text	00000014 free
00029f7c g     F .text	00000004 __sinit_lock_acquire
000313b4 g     F .text	00000120 __multadd
0003138c g     F .text	00000028 _Bfree



Disassembly of section .entry:

00020000 <__reset>:
#if NIOS2_ICACHE_SIZE > 0 && defined(ALT_ALLOW_CODE_AT_RESET) && (!defined(ALT_SIM_OPTIMIZE) || defined(NIOS2_ECC_PRESENT))
    /* Assume the instruction cache size is always a power of two. */
#if NIOS2_ICACHE_SIZE > 0x8000
    movhi r2, %hi(NIOS2_ICACHE_SIZE)
#else
    movui r2, NIOS2_ICACHE_SIZE
   20000:	00840014 	movui	r2,4096
#endif

0:
    initi r2
   20004:	1001483a 	initi	r2
    addi r2, r2, -NIOS2_ICACHE_LINE_SIZE
   20008:	10bff804 	addi	r2,r2,-32
    bgt r2, zero, 0b
   2000c:	00bffd16 	blt	zero,r2,20004 <__reset+0x4>
 * Jump to the _start entry point in the .text section if reset code
 * is allowed or if optimizing for RTL simulation.
 */
#if defined(ALT_ALLOW_CODE_AT_RESET) || defined(ALT_SIM_OPTIMIZE)
    /* Jump to the _start entry point in the .text section. */
    movhi r1, %hi(_start)
   20010:	004000b4 	movhi	at,2
    ori r1, r1, %lo(_start)
   20014:	08409114 	ori	at,at,580
    jmp r1
   20018:	0800683a 	jmp	at
   2001c:	00000000 	call	0 <__alt_mem_onchip_memory_nios2_FFT-0x20000>

Disassembly of section .exceptions:

00020020 <alt_exception>:

#else /* ALT_EXCEPTION_STACK disabled */
        /* 
         * Reserve space on normal stack for registers about to be pushed.
         */
        addi  sp, sp, -76
   20020:	deffed04 	addi	sp,sp,-76
         * documentation for details).
         *
         * Leave a gap in the stack frame at 4(sp) for the muldiv handler to
         * store zero into.
         */
        stw   ra,  0(sp)
   20024:	dfc00015 	stw	ra,0(sp)
        stw   r1,   8(sp)
   20028:	d8400215 	stw	at,8(sp)
        stw   r2,  12(sp)
   2002c:	d8800315 	stw	r2,12(sp)
        stw   r3,  16(sp)
   20030:	d8c00415 	stw	r3,16(sp)
        stw   r4,  20(sp)
   20034:	d9000515 	stw	r4,20(sp)
        stw   r5,  24(sp)
   20038:	d9400615 	stw	r5,24(sp)
        stw   r6,  28(sp)
   2003c:	d9800715 	stw	r6,28(sp)
        stw   r7,  32(sp)
   20040:	d9c00815 	stw	r7,32(sp)
        rdctl r5, estatus   /* Read early to avoid usage stall */
   20044:	000b307a 	rdctl	r5,estatus
        stw   r8,  36(sp)
   20048:	da000915 	stw	r8,36(sp)
        stw   r9,  40(sp)
   2004c:	da400a15 	stw	r9,40(sp)
        stw   r10, 44(sp)
   20050:	da800b15 	stw	r10,44(sp)
        stw   r11, 48(sp)
   20054:	dac00c15 	stw	r11,48(sp)
        stw   r12, 52(sp)
   20058:	db000d15 	stw	r12,52(sp)
        stw   r13, 56(sp)
   2005c:	db400e15 	stw	r13,56(sp)
        stw   r14, 60(sp)
   20060:	db800f15 	stw	r14,60(sp)
        stw   r15, 64(sp)
   20064:	dbc01015 	stw	r15,64(sp)
        /*
         * ea-4 contains the address of the instruction being executed
         * when the exception occured. For interrupt exceptions, we will
         * will be re-issue the isntruction. Store it in 72(sp)
         */
        stw   r5,  68(sp)  /* estatus */
   20068:	d9401115 	stw	r5,68(sp)
        addi  r15, ea, -4  /* instruction that caused exception */
   2006c:	ebffff04 	addi	r15,ea,-4
        stw   r15,  72(sp)
   20070:	dbc01215 	stw	r15,72(sp)
#else
        /*
         * Test to see if the exception was a software exception or caused 
         * by an external interrupt, and vector accordingly.
         */
        rdctl r4, ipending
   20074:	0009313a 	rdctl	r4,ipending
        andi  r2, r5, 1
   20078:	2880004c 	andi	r2,r5,1
        beq   r2, zero, .Lnot_irq
   2007c:	10000326 	beq	r2,zero,2008c <alt_exception+0x6c>
        beq   r4, zero, .Lnot_irq
   20080:	20000226 	beq	r4,zero,2008c <alt_exception+0x6c>
        /*
         * Now that all necessary registers have been preserved, call 
         * alt_irq_handler() to process the interrupts.
         */

        call alt_irq_handler
   20084:	00200fc0 	call	200fc <alt_irq_handler>

        .section .exceptions.irqreturn, "xa"

        br    .Lexception_exit
   20088:	00000706 	br	200a8 <alt_exception+0x88>
         * upon completion, so we write ea (address of instruction *after*
         * the one where the exception occured) into 72(sp). The actual
         * instruction that caused the exception is written in r2, which these
         * handlers will utilize.
         */
        stw ea, 72(sp) /* EA is PC+4 so will skip over instruction causing exception */
   2008c:	df401215 	stw	ea,72(sp)
.Lunknown_16bit:
        addi.n r4, r4, 2 /* Need PC+2 to skip over instruction causing exception */
        stw r4, 72(sp)

#else /* CDX is not Enabled and all instructions are 32bits */
        ldw r2, -4(ea) /* Instruction value that caused exception */
   20090:	e8bfff17 	ldw	r2,-4(ea)
         * debugger is present) or go into an infinite loop since the
         * handling behavior is undefined; in that case we will not return here.
         */

        /* Load exception-causing address as first argument (r4) */
        addi   r4, ea, -4
   20094:	e93fff04 	addi	r4,ea,-4

        /* Call the instruction-exception entry */
        call   alt_instruction_exception_entry
   20098:	00201d00 	call	201d0 <alt_instruction_exception_entry>
         * instruction
         *
         * Return code was 0: Skip. The instruction after the exception is
         * already stored in 72(sp).
         */
        bne   r2, r0, .Lexception_exit
   2009c:	1000021e 	bne	r2,zero,200a8 <alt_exception+0x88>

        /*
         * Otherwise, modify 72(sp) to re-issue the instruction that caused the
         * exception.
         */
        addi  r15, ea, -4  /* instruction that caused exception */
   200a0:	ebffff04 	addi	r15,ea,-4
        stw   r15,  72(sp)
   200a4:	dbc01215 	stw	r15,72(sp)
        /* 
         * Restore the saved registers, so that all general purpose registers 
         * have been restored to their state at the time the interrupt occured.
         */

        ldw   r5,  68(sp)
   200a8:	d9401117 	ldw	r5,68(sp)
        ldw   ea,  72(sp)  /* This becomes the PC once eret is executed */
   200ac:	df401217 	ldw	ea,72(sp)
        ldw   ra,   0(sp)
   200b0:	dfc00017 	ldw	ra,0(sp)

        wrctl estatus, r5
   200b4:	2801707a 	wrctl	estatus,r5

        ldw   r1,   8(sp)
   200b8:	d8400217 	ldw	at,8(sp)
        ldw   r2,  12(sp)
   200bc:	d8800317 	ldw	r2,12(sp)
        ldw   r3,  16(sp)
   200c0:	d8c00417 	ldw	r3,16(sp)
        ldw   r4,  20(sp)
   200c4:	d9000517 	ldw	r4,20(sp)
        ldw   r5,  24(sp)
   200c8:	d9400617 	ldw	r5,24(sp)
        ldw   r6,  28(sp)
   200cc:	d9800717 	ldw	r6,28(sp)
        ldw   r7,  32(sp)
   200d0:	d9c00817 	ldw	r7,32(sp)

#if defined(ALT_EXCEPTION_STACK) && defined(ALT_STACK_CHECK)
        ldw   et, %gprel(alt_exception_old_stack_limit)(gp)
#endif

        ldw   r8,  36(sp)
   200d4:	da000917 	ldw	r8,36(sp)
        ldw   r9,  40(sp)
   200d8:	da400a17 	ldw	r9,40(sp)
        ldw   r10, 44(sp)
   200dc:	da800b17 	ldw	r10,44(sp)
        ldw   r11, 48(sp)
   200e0:	dac00c17 	ldw	r11,48(sp)
        ldw   r12, 52(sp)
   200e4:	db000d17 	ldw	r12,52(sp)
        ldw   r13, 56(sp)
   200e8:	db400e17 	ldw	r13,56(sp)
        ldw   r14, 60(sp)
   200ec:	db800f17 	ldw	r14,60(sp)
        ldw   r15, 64(sp)
   200f0:	dbc01017 	ldw	r15,64(sp)
        stw   et, %gprel(alt_stack_limit_value)(gp)
        stw   zero, %gprel(alt_exception_old_stack_limit)(gp)
#endif /* ALT_STACK_CHECK */
        ldw   sp,  76(sp)
#else /* ALT_EXCEPTION_STACK disabled */
        addi  sp, sp, 76
   200f4:	dec01304 	addi	sp,sp,76

        /*
         * Return to the interrupted instruction.
         */

        eret
   200f8:	ef80083a 	eret

000200fc <alt_irq_handler>:
 * instruction is present if the macro ALT_CI_INTERRUPT_VECTOR defined.
 */

void alt_irq_handler (void) __attribute__ ((section (".exceptions")));
void alt_irq_handler (void)
{
   200fc:	defff904 	addi	sp,sp,-28
   20100:	dfc00615 	stw	ra,24(sp)
   20104:	df000515 	stw	fp,20(sp)
   20108:	df000504 	addi	fp,sp,20
  
  /*
   * Notify the operating system that we are at interrupt level.
   */ 
  
  ALT_OS_INT_ENTER();
   2010c:	0001883a 	nop
#ifndef NIOS2_EIC_PRESENT
static ALT_INLINE alt_u32 ALT_ALWAYS_INLINE alt_irq_pending (void)
{
  alt_u32 active;

  NIOS2_READ_IPENDING (active);
   20110:	0005313a 	rdctl	r2,ipending
   20114:	e0bffe15 	stw	r2,-8(fp)

  return active;
   20118:	e0bffe17 	ldw	r2,-8(fp)
   * Consider the case where the high priority interupt is asserted during
   * the interrupt entry sequence for a lower priority interrupt to see why
   * this is the case.
   */

  active = alt_irq_pending ();
   2011c:	e0bffb15 	stw	r2,-20(fp)

  do
  {
    i = 0;
   20120:	e03ffd15 	stw	zero,-12(fp)
    mask = 1;
   20124:	00800044 	movi	r2,1
   20128:	e0bffc15 	stw	r2,-16(fp)
     * called to clear the interrupt condition.
     */

    do
    {
      if (active & mask)
   2012c:	e0fffb17 	ldw	r3,-20(fp)
   20130:	e0bffc17 	ldw	r2,-16(fp)
   20134:	1884703a 	and	r2,r3,r2
   20138:	10001426 	beq	r2,zero,2018c <alt_irq_handler+0x90>
      { 
#ifdef ALT_ENHANCED_INTERRUPT_API_PRESENT
        alt_irq[i].handler(alt_irq[i].context); 
   2013c:	00800134 	movhi	r2,4
   20140:	10b9b504 	addi	r2,r2,-6444
   20144:	e0fffd17 	ldw	r3,-12(fp)
   20148:	180690fa 	slli	r3,r3,3
   2014c:	10c5883a 	add	r2,r2,r3
   20150:	10c00017 	ldw	r3,0(r2)
   20154:	00800134 	movhi	r2,4
   20158:	10b9b504 	addi	r2,r2,-6444
   2015c:	e13ffd17 	ldw	r4,-12(fp)
   20160:	200890fa 	slli	r4,r4,3
   20164:	1105883a 	add	r2,r2,r4
   20168:	10800104 	addi	r2,r2,4
   2016c:	10800017 	ldw	r2,0(r2)
   20170:	1009883a 	mov	r4,r2
   20174:	183ee83a 	callr	r3
#else
        alt_irq[i].handler(alt_irq[i].context, i); 
#endif
        break;
   20178:	0001883a 	nop
#ifndef NIOS2_EIC_PRESENT
static ALT_INLINE alt_u32 ALT_ALWAYS_INLINE alt_irq_pending (void)
{
  alt_u32 active;

  NIOS2_READ_IPENDING (active);
   2017c:	0005313a 	rdctl	r2,ipending
   20180:	e0bfff15 	stw	r2,-4(fp)

  return active;
   20184:	e0bfff17 	ldw	r2,-4(fp)
   20188:	00000706 	br	201a8 <alt_irq_handler+0xac>
      }
      mask <<= 1;
   2018c:	e0bffc17 	ldw	r2,-16(fp)
   20190:	1085883a 	add	r2,r2,r2
   20194:	e0bffc15 	stw	r2,-16(fp)
      i++;
   20198:	e0bffd17 	ldw	r2,-12(fp)
   2019c:	10800044 	addi	r2,r2,1
   201a0:	e0bffd15 	stw	r2,-12(fp)

    } while (1);
   201a4:	003fe106 	br	2012c <alt_irq_handler+0x30>

    active = alt_irq_pending ();
   201a8:	e0bffb15 	stw	r2,-20(fp)
    
  } while (active);
   201ac:	e0bffb17 	ldw	r2,-20(fp)
   201b0:	103fdb1e 	bne	r2,zero,20120 <alt_irq_handler+0x24>

  /*
   * Notify the operating system that interrupt processing is complete.
   */ 

  ALT_OS_INT_EXIT();
   201b4:	0001883a 	nop
}
   201b8:	0001883a 	nop
   201bc:	e037883a 	mov	sp,fp
   201c0:	dfc00117 	ldw	ra,4(sp)
   201c4:	df000017 	ldw	fp,0(sp)
   201c8:	dec00204 	addi	sp,sp,8
   201cc:	f800283a 	ret

000201d0 <alt_instruction_exception_entry>:
 * that handler if it has been registered. Absent a handler, it will
 * break break or hang as discussed below.
 */
int 
alt_instruction_exception_entry (alt_u32 exception_pc)
{
   201d0:	defffb04 	addi	sp,sp,-20
   201d4:	dfc00415 	stw	ra,16(sp)
   201d8:	df000315 	stw	fp,12(sp)
   201dc:	df000304 	addi	fp,sp,12
   201e0:	e13fff15 	stw	r4,-4(fp)
 * NIOS2_EXCEPTION_CAUSE_NOT_PRESENT. Your handling routine should
 * check the validity of the cause argument before proceeding.
 */
#ifdef NIOS2_HAS_EXTRA_EXCEPTION_INFO
  /* Get exception cause & "badaddr" */
  NIOS2_READ_EXCEPTION(cause);
   201e4:	000531fa 	rdctl	r2,exception
   201e8:	e0bffd15 	stw	r2,-12(fp)
  cause = ( (cause & NIOS2_EXCEPTION_REG_CAUSE_MASK) >>
   201ec:	e0bffd17 	ldw	r2,-12(fp)
   201f0:	10801f0c 	andi	r2,r2,124
   201f4:	1004d0ba 	srli	r2,r2,2
   201f8:	e0bffd15 	stw	r2,-12(fp)
              NIOS2_EXCEPTION_REG_CAUSE_OFST );

  NIOS2_READ_BADADDR(badaddr);
   201fc:	0005333a 	rdctl	r2,badaddr
   20200:	e0bffe15 	stw	r2,-8(fp)
#else
  cause = NIOS2_EXCEPTION_CAUSE_NOT_PRESENT;
  badaddr = 0;
#endif /* NIOS2_HAS_EXTRA_EXCEPTION_INFO */

  if(alt_instruction_exception_handler) {
   20204:	d0ab0d17 	ldw	r2,-21452(gp)
   20208:	10000726 	beq	r2,zero,20228 <alt_instruction_exception_entry+0x58>
     * Call handler. Its return value indicates whether the exception-causing
     * instruction should be re-issued. The code that called us,
     * alt_eceptions_entry.S, will look at this value and adjust the ea
     * register as necessary
     */
    return alt_instruction_exception_handler(cause, exception_pc, badaddr);
   2020c:	d0ab0d17 	ldw	r2,-21452(gp)
   20210:	e0fffd17 	ldw	r3,-12(fp)
   20214:	e1bffe17 	ldw	r6,-8(fp)
   20218:	e17fff17 	ldw	r5,-4(fp)
   2021c:	1809883a 	mov	r4,r3
   20220:	103ee83a 	callr	r2
   20224:	00000206 	br	20230 <alt_instruction_exception_entry+0x60>
   *    (a peripheral which negates its interrupt output before its
   *    interrupt handler has been executed will cause spurious interrupts)
   */
  else {
#ifdef NIOS2_HAS_DEBUG_STUB
    NIOS2_BREAK();
   20228:	003da03a 	break	0
      ;
#endif /* NIOS2_HAS_DEBUG_STUB */
  }

  /* We should not get here. Remove compiler warning. */
  return NIOS2_EXCEPTION_RETURN_REISSUE_INST;
   2022c:	0005883a 	mov	r2,zero
}
   20230:	e037883a 	mov	sp,fp
   20234:	dfc00117 	ldw	ra,4(sp)
   20238:	df000017 	ldw	fp,0(sp)
   2023c:	dec00204 	addi	sp,sp,8
   20240:	f800283a 	ret

Disassembly of section .text:

00020244 <_start>:

    /* Assume the data cache size is always a power of two. */
#if NIOS2_DCACHE_SIZE > 0x8000
    movhi r2, %hi(NIOS2_DCACHE_SIZE)
#else
    movui r2, NIOS2_DCACHE_SIZE
   20244:	00820014 	movui	r2,2048
#endif

0:
    initd 0(r2)
   20248:	10000033 	initd	0(r2)
#ifdef NIOS2_ECC_PRESENT
    addi r2, r2, -4
#else
    addi r2, r2, -NIOS2_DCACHE_LINE_SIZE
   2024c:	10bff804 	addi	r2,r2,-32
#endif
    bgt r2, zero, 0b
   20250:	00bffd16 	blt	zero,r2,20248 <_start+0x4>

    /*
     * Now that the caches are initialized, set up the stack pointer and global pointer.
     * The values provided by the linker are assumed to be correctly aligned.
     */
    movhi sp, %hi(__alt_stack_pointer)
   20254:	06c00134 	movhi	sp,4
    ori sp, sp, %lo(__alt_stack_pointer)
   20258:	dec00014 	ori	sp,sp,0
    movhi gp, %hi(_gp)
   2025c:	06800134 	movhi	gp,4
    ori gp, gp, %lo(_gp)
   20260:	d68e9d14 	ori	gp,gp,14964
 */
#ifndef ALT_SIM_OPTIMIZE
    /* Log that the BSS is about to be cleared. */
    ALT_LOG_PUTS(alt_log_msg_bss)

    movhi r2, %hi(__bss_start)
   20264:	008000f4 	movhi	r2,3
    ori r2, r2, %lo(__bss_start)
   20268:	10b99f14 	ori	r2,r2,59004

    movhi r3, %hi(__bss_end)
   2026c:	00c000f4 	movhi	r3,3
    ori r3, r3, %lo(__bss_end)
   20270:	18f9f514 	ori	r3,r3,59348

    beq r2, r3, 1f
   20274:	10c00326 	beq	r2,r3,20284 <_start+0x40>

0:
    stw zero, (r2)
   20278:	10000015 	stw	zero,0(r2)
    addi r2, r2, 4
   2027c:	10800104 	addi	r2,r2,4
    bltu r2, r3, 0b
   20280:	10fffd36 	bltu	r2,r3,20278 <_start+0x34>
     * section aren't defined until alt_load() has been called).
     */
    mov   et, zero
#endif

    call alt_load
   20284:	003558c0 	call	3558c <alt_load>

    /* Log that alt_main is about to be called. */
    ALT_LOG_PUTS(alt_log_msg_alt_main)

    /* Call the C entry point. It should never return. */
    call alt_main
   20288:	00357200 	call	35720 <alt_main>

0002028c <alt_after_alt_main>:

    /* Wait in infinite loop in case alt_main does return. */
alt_after_alt_main:
    br alt_after_alt_main
   2028c:	003fff06 	br	2028c <alt_after_alt_main>

00020290 <convert_to_freq>:
#include <stdio.h>
#include <math.h>
#include <unistd.h>
#include "data_processor.h"

static void convert_to_freq(kiss_fft_cpx *cout, int n) {
   20290:	defffb04 	addi	sp,sp,-20
   20294:	dfc00415 	stw	ra,16(sp)
   20298:	df000315 	stw	fp,12(sp)
   2029c:	df000304 	addi	fp,sp,12
   202a0:	e13ffe15 	stw	r4,-8(fp)
   202a4:	e17fff15 	stw	r5,-4(fp)
	const float NC = n/2.0 + 1;
   202a8:	e13fff17 	ldw	r4,-4(fp)
   202ac:	00293680 	call	29368 <__floatsidf>
   202b0:	1011883a 	mov	r8,r2
   202b4:	1813883a 	mov	r9,r3
   202b8:	000d883a 	mov	r6,zero
   202bc:	01d00034 	movhi	r7,16384
   202c0:	4009883a 	mov	r4,r8
   202c4:	480b883a 	mov	r5,r9
   202c8:	00277940 	call	27794 <__divdf3>
   202cc:	1009883a 	mov	r4,r2
   202d0:	180b883a 	mov	r5,r3
   202d4:	2005883a 	mov	r2,r4
   202d8:	2807883a 	mov	r3,r5
   202dc:	000d883a 	mov	r6,zero
   202e0:	01cffc34 	movhi	r7,16368
   202e4:	1009883a 	mov	r4,r2
   202e8:	180b883a 	mov	r5,r3
   202ec:	0026ee80 	call	26ee8 <__adddf3>
   202f0:	1009883a 	mov	r4,r2
   202f4:	180b883a 	mov	r5,r3
   202f8:	2005883a 	mov	r2,r4
   202fc:	2807883a 	mov	r3,r5
   20300:	1009883a 	mov	r4,r2
   20304:	180b883a 	mov	r5,r3
   20308:	00295fc0 	call	295fc <__truncdfsf2>
   2030c:	1007883a 	mov	r3,r2
   20310:	e0fffd15 	stw	r3,-12(fp)
	while (n-- > 0) {
   20314:	00001506 	br	2036c <convert_to_freq+0xdc>
		cout->r /= NC;
   20318:	e0bffe17 	ldw	r2,-8(fp)
   2031c:	10c00017 	ldw	r3,0(r2)
   20320:	e17ffd17 	ldw	r5,-12(fp)
   20324:	1809883a 	mov	r4,r3
   20328:	00260340 	call	26034 <__divsf3>
   2032c:	1009883a 	mov	r4,r2
   20330:	2007883a 	mov	r3,r4
   20334:	e0bffe17 	ldw	r2,-8(fp)
   20338:	10c00015 	stw	r3,0(r2)
		cout->i /= NC;
   2033c:	e0bffe17 	ldw	r2,-8(fp)
   20340:	10c00117 	ldw	r3,4(r2)
   20344:	e17ffd17 	ldw	r5,-12(fp)
   20348:	1809883a 	mov	r4,r3
   2034c:	00260340 	call	26034 <__divsf3>
   20350:	1009883a 	mov	r4,r2
   20354:	2007883a 	mov	r3,r4
   20358:	e0bffe17 	ldw	r2,-8(fp)
   2035c:	10c00115 	stw	r3,4(r2)
		cout++;
   20360:	e0bffe17 	ldw	r2,-8(fp)
   20364:	10800204 	addi	r2,r2,8
   20368:	e0bffe15 	stw	r2,-8(fp)
#include <unistd.h>
#include "data_processor.h"

static void convert_to_freq(kiss_fft_cpx *cout, int n) {
	const float NC = n/2.0 + 1;
	while (n-- > 0) {
   2036c:	e0bfff17 	ldw	r2,-4(fp)
   20370:	10ffffc4 	addi	r3,r2,-1
   20374:	e0ffff15 	stw	r3,-4(fp)
   20378:	00bfe716 	blt	zero,r2,20318 <convert_to_freq+0x88>
		cout->r /= NC;
		cout->i /= NC;
		cout++;
	}
}
   2037c:	0001883a 	nop
   20380:	e037883a 	mov	sp,fp
   20384:	dfc00117 	ldw	ra,4(sp)
   20388:	df000017 	ldw	fp,0(sp)
   2038c:	dec00204 	addi	sp,sp,8
   20390:	f800283a 	ret

00020394 <complex_abs>:

static void complex_abs(kiss_fft_cpx *cout, int n) {
   20394:	defffb04 	addi	sp,sp,-20
   20398:	dfc00415 	stw	ra,16(sp)
   2039c:	df000315 	stw	fp,12(sp)
   203a0:	dc000215 	stw	r16,8(sp)
   203a4:	df000304 	addi	fp,sp,12
   203a8:	e13ffd15 	stw	r4,-12(fp)
   203ac:	e17ffe15 	stw	r5,-8(fp)
	while (n-- > 0) {
   203b0:	00002b06 	br	20460 <complex_abs+0xcc>
		cout->r = sqrt(cout->r * cout->r + cout->i * cout->i);
   203b4:	e0bffd17 	ldw	r2,-12(fp)
   203b8:	10c00017 	ldw	r3,0(r2)
   203bc:	e0bffd17 	ldw	r2,-12(fp)
   203c0:	11000017 	ldw	r4,0(r2)
   203c4:	200b883a 	mov	r5,r4
   203c8:	1809883a 	mov	r4,r3
   203cc:	00264740 	call	26474 <__mulsf3>
   203d0:	1007883a 	mov	r3,r2
   203d4:	1821883a 	mov	r16,r3
   203d8:	e0bffd17 	ldw	r2,-12(fp)
   203dc:	10c00117 	ldw	r3,4(r2)
   203e0:	e0bffd17 	ldw	r2,-12(fp)
   203e4:	11000117 	ldw	r4,4(r2)
   203e8:	200b883a 	mov	r5,r4
   203ec:	1809883a 	mov	r4,r3
   203f0:	00264740 	call	26474 <__mulsf3>
   203f4:	1007883a 	mov	r3,r2
   203f8:	1805883a 	mov	r2,r3
   203fc:	100b883a 	mov	r5,r2
   20400:	8009883a 	mov	r4,r16
   20404:	0025b6c0 	call	25b6c <__addsf3>
   20408:	1007883a 	mov	r3,r2
   2040c:	1805883a 	mov	r2,r3
   20410:	1009883a 	mov	r4,r2
   20414:	00294ec0 	call	294ec <__extendsfdf2>
   20418:	100b883a 	mov	r5,r2
   2041c:	180d883a 	mov	r6,r3
   20420:	2809883a 	mov	r4,r5
   20424:	300b883a 	mov	r5,r6
   20428:	002374c0 	call	2374c <sqrt>
   2042c:	100b883a 	mov	r5,r2
   20430:	180d883a 	mov	r6,r3
   20434:	2809883a 	mov	r4,r5
   20438:	300b883a 	mov	r5,r6
   2043c:	00295fc0 	call	295fc <__truncdfsf2>
   20440:	1007883a 	mov	r3,r2
   20444:	e0bffd17 	ldw	r2,-12(fp)
   20448:	10c00015 	stw	r3,0(r2)
		cout->i = 0;
   2044c:	e0bffd17 	ldw	r2,-12(fp)
   20450:	10000115 	stw	zero,4(r2)
		cout++;
   20454:	e0bffd17 	ldw	r2,-12(fp)
   20458:	10800204 	addi	r2,r2,8
   2045c:	e0bffd15 	stw	r2,-12(fp)
		cout++;
	}
}

static void complex_abs(kiss_fft_cpx *cout, int n) {
	while (n-- > 0) {
   20460:	e0bffe17 	ldw	r2,-8(fp)
   20464:	10ffffc4 	addi	r3,r2,-1
   20468:	e0fffe15 	stw	r3,-8(fp)
   2046c:	00bfd116 	blt	zero,r2,203b4 <complex_abs+0x20>
		cout->r = sqrt(cout->r * cout->r + cout->i * cout->i);
		cout->i = 0;
		cout++;
	}
}
   20470:	0001883a 	nop
   20474:	e6ffff04 	addi	sp,fp,-4
   20478:	dfc00217 	ldw	ra,8(sp)
   2047c:	df000117 	ldw	fp,4(sp)
   20480:	dc000017 	ldw	r16,0(sp)
   20484:	dec00304 	addi	sp,sp,12
   20488:	f800283a 	ret

0002048c <get_peak_pos>:

static int get_peak_pos(const kiss_fft_cpx *cout, int nfft, int start_pos) {
   2048c:	defff804 	addi	sp,sp,-32
   20490:	dfc00715 	stw	ra,28(sp)
   20494:	df000615 	stw	fp,24(sp)
   20498:	df000604 	addi	fp,sp,24
   2049c:	e13ffd15 	stw	r4,-12(fp)
   204a0:	e17ffe15 	stw	r5,-8(fp)
   204a4:	e1bfff15 	stw	r6,-4(fp)
	int pos = 0;
   204a8:	e03ffa15 	stw	zero,-24(fp)
	float maxdata = 0;
   204ac:	e03ffb15 	stw	zero,-20(fp)
	int i;
	for (i = start_pos; i < nfft/2; i++) {
   204b0:	e0bfff17 	ldw	r2,-4(fp)
   204b4:	e0bffc15 	stw	r2,-16(fp)
   204b8:	00002106 	br	20540 <get_peak_pos+0xb4>
		if ((cout[i].r - maxdata) > 0.0001) {
   204bc:	e0bffc17 	ldw	r2,-16(fp)
   204c0:	100490fa 	slli	r2,r2,3
   204c4:	e0fffd17 	ldw	r3,-12(fp)
   204c8:	1885883a 	add	r2,r3,r2
   204cc:	10c00017 	ldw	r3,0(r2)
   204d0:	e17ffb17 	ldw	r5,-20(fp)
   204d4:	1809883a 	mov	r4,r3
   204d8:	00268700 	call	26870 <__subsf3>
   204dc:	1007883a 	mov	r3,r2
   204e0:	1805883a 	mov	r2,r3
   204e4:	1009883a 	mov	r4,r2
   204e8:	00294ec0 	call	294ec <__extendsfdf2>
   204ec:	1011883a 	mov	r8,r2
   204f0:	1813883a 	mov	r9,r3
   204f4:	01bac734 	movhi	r6,60188
   204f8:	3190cb44 	addi	r6,r6,17197
   204fc:	01cfc6b4 	movhi	r7,16154
   20500:	39cdb884 	addi	r7,r7,14050
   20504:	4009883a 	mov	r4,r8
   20508:	480b883a 	mov	r5,r9
   2050c:	00281040 	call	28104 <__gedf2>
   20510:	0080080e 	bge	zero,r2,20534 <get_peak_pos+0xa8>
			maxdata = cout[i].r;
   20514:	e0bffc17 	ldw	r2,-16(fp)
   20518:	100490fa 	slli	r2,r2,3
   2051c:	e0fffd17 	ldw	r3,-12(fp)
   20520:	1885883a 	add	r2,r3,r2
   20524:	10800017 	ldw	r2,0(r2)
   20528:	e0bffb15 	stw	r2,-20(fp)
			pos = i;
   2052c:	e0bffc17 	ldw	r2,-16(fp)
   20530:	e0bffa15 	stw	r2,-24(fp)

static int get_peak_pos(const kiss_fft_cpx *cout, int nfft, int start_pos) {
	int pos = 0;
	float maxdata = 0;
	int i;
	for (i = start_pos; i < nfft/2; i++) {
   20534:	e0bffc17 	ldw	r2,-16(fp)
   20538:	10800044 	addi	r2,r2,1
   2053c:	e0bffc15 	stw	r2,-16(fp)
   20540:	e0bffe17 	ldw	r2,-8(fp)
   20544:	1006d7fa 	srli	r3,r2,31
   20548:	1885883a 	add	r2,r3,r2
   2054c:	1005d07a 	srai	r2,r2,1
   20550:	1007883a 	mov	r3,r2
   20554:	e0bffc17 	ldw	r2,-16(fp)
   20558:	10ffd816 	blt	r2,r3,204bc <get_peak_pos+0x30>
		if ((cout[i].r - maxdata) > 0.0001) {
			maxdata = cout[i].r;
			pos = i;
		}
	}
	return pos;
   2055c:	e0bffa17 	ldw	r2,-24(fp)
}
   20560:	e037883a 	mov	sp,fp
   20564:	dfc00117 	ldw	ra,4(sp)
   20568:	df000017 	ldw	fp,0(sp)
   2056c:	dec00204 	addi	sp,sp,8
   20570:	f800283a 	ret

00020574 <get_peak_frequence>:

static float get_peak_frequence(const kiss_fft_cpx *cout, int nfft, float start_hz, float sample_hz) {
   20574:	defff804 	addi	sp,sp,-32
   20578:	dfc00715 	stw	ra,28(sp)
   2057c:	df000615 	stw	fp,24(sp)
   20580:	dc000515 	stw	r16,20(sp)
   20584:	df000604 	addi	fp,sp,24
   20588:	e13ffb15 	stw	r4,-20(fp)
   2058c:	e17ffc15 	stw	r5,-16(fp)
   20590:	e1bffd15 	stw	r6,-12(fp)
   20594:	e1fffe15 	stw	r7,-8(fp)
	int start_pos = start_hz * nfft / sample_hz;
   20598:	e13ffc17 	ldw	r4,-16(fp)
   2059c:	0026dc40 	call	26dc4 <__floatsisf>
   205a0:	1007883a 	mov	r3,r2
   205a4:	e17ffd17 	ldw	r5,-12(fp)
   205a8:	1809883a 	mov	r4,r3
   205ac:	00264740 	call	26474 <__mulsf3>
   205b0:	1007883a 	mov	r3,r2
   205b4:	1805883a 	mov	r2,r3
   205b8:	e17ffe17 	ldw	r5,-8(fp)
   205bc:	1009883a 	mov	r4,r2
   205c0:	00260340 	call	26034 <__divsf3>
   205c4:	1007883a 	mov	r3,r2
   205c8:	1805883a 	mov	r2,r3
   205cc:	1009883a 	mov	r4,r2
   205d0:	0026d540 	call	26d54 <__fixsfsi>
   205d4:	e0bffa15 	stw	r2,-24(fp)
	return get_peak_pos(cout, nfft, start_pos) * sample_hz / nfft;
   205d8:	e1bffa17 	ldw	r6,-24(fp)
   205dc:	e17ffc17 	ldw	r5,-16(fp)
   205e0:	e13ffb17 	ldw	r4,-20(fp)
   205e4:	002048c0 	call	2048c <get_peak_pos>
   205e8:	1009883a 	mov	r4,r2
   205ec:	0026dc40 	call	26dc4 <__floatsisf>
   205f0:	1007883a 	mov	r3,r2
   205f4:	e17ffe17 	ldw	r5,-8(fp)
   205f8:	1809883a 	mov	r4,r3
   205fc:	00264740 	call	26474 <__mulsf3>
   20600:	1007883a 	mov	r3,r2
   20604:	1821883a 	mov	r16,r3
   20608:	e13ffc17 	ldw	r4,-16(fp)
   2060c:	0026dc40 	call	26dc4 <__floatsisf>
   20610:	1007883a 	mov	r3,r2
   20614:	180b883a 	mov	r5,r3
   20618:	8009883a 	mov	r4,r16
   2061c:	00260340 	call	26034 <__divsf3>
   20620:	1009883a 	mov	r4,r2
   20624:	2007883a 	mov	r3,r4
   20628:	1805883a 	mov	r2,r3
}
   2062c:	e6ffff04 	addi	sp,fp,-4
   20630:	dfc00217 	ldw	ra,8(sp)
   20634:	df000117 	ldw	fp,4(sp)
   20638:	dc000017 	ldw	r16,0(sp)
   2063c:	dec00304 	addi	sp,sp,12
   20640:	f800283a 	ret

00020644 <data_processor_init>:


data_processor_t data_processor_init(int nfft, int hz) {
   20644:	defffb04 	addi	sp,sp,-20
   20648:	dfc00415 	stw	ra,16(sp)
   2064c:	df000315 	stw	fp,12(sp)
   20650:	df000304 	addi	fp,sp,12
   20654:	e13ffe15 	stw	r4,-8(fp)
   20658:	e17fff15 	stw	r5,-4(fp)
	data_processor_t dfft = NULL;
   2065c:	e03ffd15 	stw	zero,-12(fp)
	dfft = (data_processor_t)malloc(sizeof(struct data_processor));
   20660:	01000504 	movi	r4,20
   20664:	002af0c0 	call	2af0c <malloc>
   20668:	e0bffd15 	stw	r2,-12(fp)
	if (!dfft) {
   2066c:	e0bffd17 	ldw	r2,-12(fp)
   20670:	1000051e 	bne	r2,zero,20688 <data_processor_init+0x44>
		perror("malloc");
   20674:	010000f4 	movhi	r4,3
   20678:	211fd904 	addi	r4,r4,32612
   2067c:	002ba900 	call	2ba90 <perror>
		return NULL;
   20680:	0005883a 	mov	r2,zero
   20684:	00003906 	br	2076c <data_processor_init+0x128>
	}
	//printf("dfft len = %d\n", sizeof(*data_processor_t));
	dfft->sample_hz = hz;
   20688:	e13fff17 	ldw	r4,-4(fp)
   2068c:	0026dc40 	call	26dc4 <__floatsisf>
   20690:	1007883a 	mov	r3,r2
   20694:	e0bffd17 	ldw	r2,-12(fp)
   20698:	10c00015 	stw	r3,0(r2)
	dfft->nfft = nfft;
   2069c:	e0bffd17 	ldw	r2,-12(fp)
   206a0:	e0fffe17 	ldw	r3,-8(fp)
   206a4:	10c00115 	stw	r3,4(r2)
	dfft->cin = (kiss_fft_cpx *)malloc(sizeof(kiss_fft_cpx) * dfft->nfft);
   206a8:	e0bffd17 	ldw	r2,-12(fp)
   206ac:	10800117 	ldw	r2,4(r2)
   206b0:	100490fa 	slli	r2,r2,3
   206b4:	1009883a 	mov	r4,r2
   206b8:	002af0c0 	call	2af0c <malloc>
   206bc:	1007883a 	mov	r3,r2
   206c0:	e0bffd17 	ldw	r2,-12(fp)
   206c4:	10c00215 	stw	r3,8(r2)
	if (!dfft->cin) {
   206c8:	e0bffd17 	ldw	r2,-12(fp)
   206cc:	10800217 	ldw	r2,8(r2)
   206d0:	1000071e 	bne	r2,zero,206f0 <data_processor_init+0xac>
		perror("malloc cin");
   206d4:	010000f4 	movhi	r4,3
   206d8:	211fdb04 	addi	r4,r4,32620
   206dc:	002ba900 	call	2ba90 <perror>
		free(dfft);
   206e0:	e13ffd17 	ldw	r4,-12(fp)
   206e4:	002af200 	call	2af20 <free>
		return NULL;
   206e8:	0005883a 	mov	r2,zero
   206ec:	00001f06 	br	2076c <data_processor_init+0x128>
	}
	dfft->cout = (kiss_fft_cpx *)malloc(sizeof(kiss_fft_cpx) * dfft->nfft);
   206f0:	e0bffd17 	ldw	r2,-12(fp)
   206f4:	10800117 	ldw	r2,4(r2)
   206f8:	100490fa 	slli	r2,r2,3
   206fc:	1009883a 	mov	r4,r2
   20700:	002af0c0 	call	2af0c <malloc>
   20704:	1007883a 	mov	r3,r2
   20708:	e0bffd17 	ldw	r2,-12(fp)
   2070c:	10c00315 	stw	r3,12(r2)
	if (!dfft->cout) {
   20710:	e0bffd17 	ldw	r2,-12(fp)
   20714:	10800317 	ldw	r2,12(r2)
   20718:	10000b1e 	bne	r2,zero,20748 <data_processor_init+0x104>
		perror("malloc cout");
   2071c:	010000f4 	movhi	r4,3
   20720:	211fde04 	addi	r4,r4,32632
   20724:	002ba900 	call	2ba90 <perror>
		free(dfft->cin);
   20728:	e0bffd17 	ldw	r2,-12(fp)
   2072c:	10800217 	ldw	r2,8(r2)
   20730:	1009883a 	mov	r4,r2
   20734:	002af200 	call	2af20 <free>
		free(dfft);
   20738:	e13ffd17 	ldw	r4,-12(fp)
   2073c:	002af200 	call	2af20 <free>
		return NULL;
   20740:	0005883a 	mov	r2,zero
   20744:	00000906 	br	2076c <data_processor_init+0x128>
	}

	dfft->kiss_fft_state = kiss_fft_alloc(nfft,0,0,0);
   20748:	000f883a 	mov	r7,zero
   2074c:	000d883a 	mov	r6,zero
   20750:	000b883a 	mov	r5,zero
   20754:	e13ffe17 	ldw	r4,-8(fp)
   20758:	0022f480 	call	22f48 <kiss_fft_alloc>
   2075c:	1007883a 	mov	r3,r2
   20760:	e0bffd17 	ldw	r2,-12(fp)
   20764:	10c00415 	stw	r3,16(r2)

	return dfft;
   20768:	e0bffd17 	ldw	r2,-12(fp)
}
   2076c:	e037883a 	mov	sp,fp
   20770:	dfc00117 	ldw	ra,4(sp)
   20774:	df000017 	ldw	fp,0(sp)
   20778:	dec00204 	addi	sp,sp,8
   2077c:	f800283a 	ret

00020780 <data_processor_run>:

float data_processor_run(data_processor_t dfft) {
   20780:	defffd04 	addi	sp,sp,-12
   20784:	dfc00215 	stw	ra,8(sp)
   20788:	df000115 	stw	fp,4(sp)
   2078c:	df000104 	addi	fp,sp,4
   20790:	e13fff15 	stw	r4,-4(fp)
	kiss_fft(dfft->kiss_fft_state, dfft->cin, dfft->cout);
   20794:	e0bfff17 	ldw	r2,-4(fp)
   20798:	10c00417 	ldw	r3,16(r2)
   2079c:	e0bfff17 	ldw	r2,-4(fp)
   207a0:	11000217 	ldw	r4,8(r2)
   207a4:	e0bfff17 	ldw	r2,-4(fp)
   207a8:	10800317 	ldw	r2,12(r2)
   207ac:	100d883a 	mov	r6,r2
   207b0:	200b883a 	mov	r5,r4
   207b4:	1809883a 	mov	r4,r3
   207b8:	002324c0 	call	2324c <kiss_fft>
    convert_to_freq(dfft->cout, dfft->nfft);
   207bc:	e0bfff17 	ldw	r2,-4(fp)
   207c0:	10c00317 	ldw	r3,12(r2)
   207c4:	e0bfff17 	ldw	r2,-4(fp)
   207c8:	10800117 	ldw	r2,4(r2)
   207cc:	100b883a 	mov	r5,r2
   207d0:	1809883a 	mov	r4,r3
   207d4:	00202900 	call	20290 <convert_to_freq>
    complex_abs(dfft->cout, dfft->nfft);
   207d8:	e0bfff17 	ldw	r2,-4(fp)
   207dc:	10c00317 	ldw	r3,12(r2)
   207e0:	e0bfff17 	ldw	r2,-4(fp)
   207e4:	10800117 	ldw	r2,4(r2)
   207e8:	100b883a 	mov	r5,r2
   207ec:	1809883a 	mov	r4,r3
   207f0:	00203940 	call	20394 <complex_abs>
    return get_peak_frequence(dfft->cout, dfft->nfft, 500.0, dfft->sample_hz);
   207f4:	e0bfff17 	ldw	r2,-4(fp)
   207f8:	10c00317 	ldw	r3,12(r2)
   207fc:	e0bfff17 	ldw	r2,-4(fp)
   20800:	11000117 	ldw	r4,4(r2)
   20804:	e0bfff17 	ldw	r2,-4(fp)
   20808:	11400017 	ldw	r5,0(r2)
   2080c:	280f883a 	mov	r7,r5
   20810:	0190feb4 	movhi	r6,17402
   20814:	200b883a 	mov	r5,r4
   20818:	1809883a 	mov	r4,r3
   2081c:	00205740 	call	20574 <get_peak_frequence>
   20820:	1007883a 	mov	r3,r2
   20824:	1805883a 	mov	r2,r3
}
   20828:	e037883a 	mov	sp,fp
   2082c:	dfc00117 	ldw	ra,4(sp)
   20830:	df000017 	ldw	fp,0(sp)
   20834:	dec00204 	addi	sp,sp,8
   20838:	f800283a 	ret

0002083c <data_processor_close>:

void data_processor_close(data_processor_t dfft) {
   2083c:	defffd04 	addi	sp,sp,-12
   20840:	dfc00215 	stw	ra,8(sp)
   20844:	df000115 	stw	fp,4(sp)
   20848:	df000104 	addi	fp,sp,4
   2084c:	e13fff15 	stw	r4,-4(fp)
	free(dfft->cin);
   20850:	e0bfff17 	ldw	r2,-4(fp)
   20854:	10800217 	ldw	r2,8(r2)
   20858:	1009883a 	mov	r4,r2
   2085c:	002af200 	call	2af20 <free>
	free(dfft->cout);
   20860:	e0bfff17 	ldw	r2,-4(fp)
   20864:	10800317 	ldw	r2,12(r2)
   20868:	1009883a 	mov	r4,r2
   2086c:	002af200 	call	2af20 <free>
	free(dfft->kiss_fft_state);
   20870:	e0bfff17 	ldw	r2,-4(fp)
   20874:	10800417 	ldw	r2,16(r2)
   20878:	1009883a 	mov	r4,r2
   2087c:	002af200 	call	2af20 <free>
	free(dfft);
   20880:	e13fff17 	ldw	r4,-4(fp)
   20884:	002af200 	call	2af20 <free>
}
   20888:	0001883a 	nop
   2088c:	e037883a 	mov	sp,fp
   20890:	dfc00117 	ldw	ra,4(sp)
   20894:	df000017 	ldw	fp,0(sp)
   20898:	dec00204 	addi	sp,sp,8
   2089c:	f800283a 	ret

000208a0 <TestFft>:
#endif

#define N 16

void TestFft(const char* title, const kiss_fft_cpx in[N], kiss_fft_cpx out[N], int inverse)
{
   208a0:	deffeb04 	addi	sp,sp,-84
   208a4:	dfc01415 	stw	ra,80(sp)
   208a8:	df001315 	stw	fp,76(sp)
   208ac:	dd401215 	stw	r21,72(sp)
   208b0:	dd001115 	stw	r20,68(sp)
   208b4:	dcc01015 	stw	r19,64(sp)
   208b8:	dc800f15 	stw	r18,60(sp)
   208bc:	dc400e15 	stw	r17,56(sp)
   208c0:	dc000d15 	stw	r16,52(sp)
   208c4:	df001304 	addi	fp,sp,76
   208c8:	e13ff615 	stw	r4,-40(fp)
   208cc:	e17ff715 	stw	r5,-36(fp)
   208d0:	e1bff815 	stw	r6,-32(fp)
   208d4:	e1fff915 	stw	r7,-28(fp)
  kiss_fft_cfg cfg;

  printf("%s\n", title);
   208d8:	e13ff617 	ldw	r4,-40(fp)
   208dc:	002bbf00 	call	2bbf0 <puts>

  if ((cfg = kiss_fft_alloc(N, inverse/*is_inverse_fft*/, NULL, NULL)) != NULL)
   208e0:	000f883a 	mov	r7,zero
   208e4:	000d883a 	mov	r6,zero
   208e8:	e17ff917 	ldw	r5,-28(fp)
   208ec:	01000404 	movi	r4,16
   208f0:	0022f480 	call	22f48 <kiss_fft_alloc>
   208f4:	e0bff515 	stw	r2,-44(fp)
   208f8:	e0bff517 	ldw	r2,-44(fp)
   208fc:	10004126 	beq	r2,zero,20a04 <TestFft+0x164>
  {
    size_t i;

    kiss_fft(cfg, in, out);
   20900:	e1bff817 	ldw	r6,-32(fp)
   20904:	e17ff717 	ldw	r5,-36(fp)
   20908:	e13ff517 	ldw	r4,-44(fp)
   2090c:	002324c0 	call	2324c <kiss_fft>
    free(cfg);
   20910:	e13ff517 	ldw	r4,-44(fp)
   20914:	002af200 	call	2af20 <free>

    for (i = 0; i < N; i++)
   20918:	e03ff415 	stw	zero,-48(fp)
   2091c:	00003506 	br	209f4 <TestFft+0x154>
      printf(" in[%d] = %+f , %+f    "
             "out[%d] = %+f , %+f\n",
             i, in[i].r, in[i].i,
   20920:	e0bff417 	ldw	r2,-48(fp)
   20924:	100490fa 	slli	r2,r2,3
   20928:	e0fff717 	ldw	r3,-36(fp)
   2092c:	1885883a 	add	r2,r3,r2
   20930:	10c00017 	ldw	r3,0(r2)

    kiss_fft(cfg, in, out);
    free(cfg);

    for (i = 0; i < N; i++)
      printf(" in[%d] = %+f , %+f    "
   20934:	1809883a 	mov	r4,r3
   20938:	00294ec0 	call	294ec <__extendsfdf2>
   2093c:	1029883a 	mov	r20,r2
   20940:	182b883a 	mov	r21,r3
             "out[%d] = %+f , %+f\n",
             i, in[i].r, in[i].i,
   20944:	e0bff417 	ldw	r2,-48(fp)
   20948:	100490fa 	slli	r2,r2,3
   2094c:	e0fff717 	ldw	r3,-36(fp)
   20950:	1885883a 	add	r2,r3,r2
   20954:	10c00117 	ldw	r3,4(r2)

    kiss_fft(cfg, in, out);
    free(cfg);

    for (i = 0; i < N; i++)
      printf(" in[%d] = %+f , %+f    "
   20958:	1809883a 	mov	r4,r3
   2095c:	00294ec0 	call	294ec <__extendsfdf2>
   20960:	1021883a 	mov	r16,r2
   20964:	1823883a 	mov	r17,r3
             "out[%d] = %+f , %+f\n",
             i, in[i].r, in[i].i,
             i, out[i].r, out[i].i);
   20968:	e0bff417 	ldw	r2,-48(fp)
   2096c:	100490fa 	slli	r2,r2,3
   20970:	e0fff817 	ldw	r3,-32(fp)
   20974:	1885883a 	add	r2,r3,r2
   20978:	10c00017 	ldw	r3,0(r2)

    kiss_fft(cfg, in, out);
    free(cfg);

    for (i = 0; i < N; i++)
      printf(" in[%d] = %+f , %+f    "
   2097c:	1809883a 	mov	r4,r3
   20980:	00294ec0 	call	294ec <__extendsfdf2>
   20984:	1025883a 	mov	r18,r2
   20988:	1827883a 	mov	r19,r3
             "out[%d] = %+f , %+f\n",
             i, in[i].r, in[i].i,
             i, out[i].r, out[i].i);
   2098c:	e0bff417 	ldw	r2,-48(fp)
   20990:	100490fa 	slli	r2,r2,3
   20994:	e0fff817 	ldw	r3,-32(fp)
   20998:	1885883a 	add	r2,r3,r2
   2099c:	10c00117 	ldw	r3,4(r2)

    kiss_fft(cfg, in, out);
    free(cfg);

    for (i = 0; i < N; i++)
      printf(" in[%d] = %+f , %+f    "
   209a0:	1809883a 	mov	r4,r3
   209a4:	00294ec0 	call	294ec <__extendsfdf2>
   209a8:	1009883a 	mov	r4,r2
   209ac:	180b883a 	mov	r5,r3
   209b0:	d9000515 	stw	r4,20(sp)
   209b4:	d9400615 	stw	r5,24(sp)
   209b8:	dc800315 	stw	r18,12(sp)
   209bc:	dcc00415 	stw	r19,16(sp)
   209c0:	e0bff417 	ldw	r2,-48(fp)
   209c4:	d8800215 	stw	r2,8(sp)
   209c8:	dc000015 	stw	r16,0(sp)
   209cc:	dc400115 	stw	r17,4(sp)
   209d0:	a00d883a 	mov	r6,r20
   209d4:	a80f883a 	mov	r7,r21
   209d8:	e17ff417 	ldw	r5,-48(fp)
   209dc:	010000f4 	movhi	r4,3
   209e0:	211fe104 	addi	r4,r4,32644
   209e4:	002bad40 	call	2bad4 <printf>
    size_t i;

    kiss_fft(cfg, in, out);
    free(cfg);

    for (i = 0; i < N; i++)
   209e8:	e0bff417 	ldw	r2,-48(fp)
   209ec:	10800044 	addi	r2,r2,1
   209f0:	e0bff415 	stw	r2,-48(fp)
   209f4:	e0bff417 	ldw	r2,-48(fp)
   209f8:	10800430 	cmpltui	r2,r2,16
   209fc:	103fc81e 	bne	r2,zero,20920 <TestFft+0x80>
  else
  {
    printf("not enough memory?\n");
    exit(-1);
  }
}
   20a00:	00000506 	br	20a18 <TestFft+0x178>
             i, in[i].r, in[i].i,
             i, out[i].r, out[i].i);
  }
  else
  {
    printf("not enough memory?\n");
   20a04:	010000f4 	movhi	r4,3
   20a08:	211fec04 	addi	r4,r4,32688
   20a0c:	002bbf00 	call	2bbf0 <puts>
    exit(-1);
   20a10:	013fffc4 	movi	r4,-1
   20a14:	00298300 	call	29830 <exit>
  }
}
   20a18:	e6fffa04 	addi	sp,fp,-24
   20a1c:	dfc00717 	ldw	ra,28(sp)
   20a20:	df000617 	ldw	fp,24(sp)
   20a24:	dd400517 	ldw	r21,20(sp)
   20a28:	dd000417 	ldw	r20,16(sp)
   20a2c:	dcc00317 	ldw	r19,12(sp)
   20a30:	dc800217 	ldw	r18,8(sp)
   20a34:	dc400117 	ldw	r17,4(sp)
   20a38:	dc000017 	ldw	r16,0(sp)
   20a3c:	dec00804 	addi	sp,sp,32
   20a40:	f800283a 	ret

00020a44 <SilentFft>:

void SilentFft(const char* title, const kiss_fft_cpx in[N], kiss_fft_cpx out[N], int inverse)
{
   20a44:	defff904 	addi	sp,sp,-28
   20a48:	dfc00615 	stw	ra,24(sp)
   20a4c:	df000515 	stw	fp,20(sp)
   20a50:	df000504 	addi	fp,sp,20
   20a54:	e13ffc15 	stw	r4,-16(fp)
   20a58:	e17ffd15 	stw	r5,-12(fp)
   20a5c:	e1bffe15 	stw	r6,-8(fp)
   20a60:	e1ffff15 	stw	r7,-4(fp)
  kiss_fft_cfg cfg;

  //printf("%s\n", title);

  if ((cfg = kiss_fft_alloc(N, inverse/*is_inverse_fft*/, NULL, NULL)) != NULL)
   20a64:	000f883a 	mov	r7,zero
   20a68:	000d883a 	mov	r6,zero
   20a6c:	e17fff17 	ldw	r5,-4(fp)
   20a70:	01000404 	movi	r4,16
   20a74:	0022f480 	call	22f48 <kiss_fft_alloc>
   20a78:	e0bffb15 	stw	r2,-20(fp)
   20a7c:	e0bffb17 	ldw	r2,-20(fp)
   20a80:	10000726 	beq	r2,zero,20aa0 <SilentFft+0x5c>
  {
    size_t i;

    kiss_fft(cfg, in, out);
   20a84:	e1bffe17 	ldw	r6,-8(fp)
   20a88:	e17ffd17 	ldw	r5,-12(fp)
   20a8c:	e13ffb17 	ldw	r4,-20(fp)
   20a90:	002324c0 	call	2324c <kiss_fft>
    free(cfg);
   20a94:	e13ffb17 	ldw	r4,-20(fp)
   20a98:	002af200 	call	2af20 <free>
  else
  {
    printf("not enough memory?\n");
    exit(-1);
  }
}
   20a9c:	00000506 	br	20ab4 <SilentFft+0x70>
      //       i, in[i].r, in[i].i,
      //      i, out[i].r, out[i].i);
  }
  else
  {
    printf("not enough memory?\n");
   20aa0:	010000f4 	movhi	r4,3
   20aa4:	211fec04 	addi	r4,r4,32688
   20aa8:	002bbf00 	call	2bbf0 <puts>
    exit(-1);
   20aac:	013fffc4 	movi	r4,-1
   20ab0:	00298300 	call	29830 <exit>
  }
}
   20ab4:	e037883a 	mov	sp,fp
   20ab8:	dfc00117 	ldw	ra,4(sp)
   20abc:	df000017 	ldw	fp,0(sp)
   20ac0:	dec00204 	addi	sp,sp,8
   20ac4:	f800283a 	ret

00020ac8 <main>:



int main(void)
{
   20ac8:	deffa304 	addi	sp,sp,-372
   20acc:	dfc05c15 	stw	ra,368(sp)
   20ad0:	df005b15 	stw	fp,364(sp)
   20ad4:	df005b04 	addi	fp,sp,364
  printf("Sound treatment processor online !\n");
   20ad8:	010000f4 	movhi	r4,3
   20adc:	211ff104 	addi	r4,r4,32708
   20ae0:	002bbf00 	call	2bbf0 <puts>
  kiss_fft_cpx in[N], out[N];
  size_t i;

  for (i = 0; i < N; i++)
   20ae4:	e03fa515 	stw	zero,-364(fp)
   20ae8:	00001506 	br	20b40 <main+0x78>
    in[i].r = in[i].i = 0;
   20aec:	e0bfa517 	ldw	r2,-364(fp)
   20af0:	100490fa 	slli	r2,r2,3
   20af4:	e0ffa504 	addi	r3,fp,-364
   20af8:	1885883a 	add	r2,r3,r2
   20afc:	10800904 	addi	r2,r2,36
   20b00:	10000015 	stw	zero,0(r2)
   20b04:	e0bfa517 	ldw	r2,-364(fp)
   20b08:	100490fa 	slli	r2,r2,3
   20b0c:	e13fa504 	addi	r4,fp,-364
   20b10:	2085883a 	add	r2,r4,r2
   20b14:	10800904 	addi	r2,r2,36
   20b18:	10c00017 	ldw	r3,0(r2)
   20b1c:	e0bfa517 	ldw	r2,-364(fp)
   20b20:	100490fa 	slli	r2,r2,3
   20b24:	e13fa504 	addi	r4,fp,-364
   20b28:	2085883a 	add	r2,r4,r2
   20b2c:	10800804 	addi	r2,r2,32
   20b30:	10c00015 	stw	r3,0(r2)
{
  printf("Sound treatment processor online !\n");
  kiss_fft_cpx in[N], out[N];
  size_t i;

  for (i = 0; i < N; i++)
   20b34:	e0bfa517 	ldw	r2,-364(fp)
   20b38:	10800044 	addi	r2,r2,1
   20b3c:	e0bfa515 	stw	r2,-364(fp)
   20b40:	e0bfa517 	ldw	r2,-364(fp)
   20b44:	10800430 	cmpltui	r2,r2,16
   20b48:	103fe81e 	bne	r2,zero,20aec <main+0x24>
    in[i].r = in[i].i = 0;
  TestFft("Zeroes (complex)", in, out, 0);
   20b4c:	e0ffcd04 	addi	r3,fp,-204
   20b50:	e0bfad04 	addi	r2,fp,-332
   20b54:	000f883a 	mov	r7,zero
   20b58:	180d883a 	mov	r6,r3
   20b5c:	100b883a 	mov	r5,r2
   20b60:	010000f4 	movhi	r4,3
   20b64:	211ffa04 	addi	r4,r4,32744
   20b68:	00208a00 	call	208a0 <TestFft>

  for (i = 0; i < N; i++)
   20b6c:	e03fa515 	stw	zero,-364(fp)
   20b70:	00001006 	br	20bb4 <main+0xec>
    in[i].r = 1, in[i].i = 0;
   20b74:	e0bfa517 	ldw	r2,-364(fp)
   20b78:	100490fa 	slli	r2,r2,3
   20b7c:	e0ffa504 	addi	r3,fp,-364
   20b80:	1885883a 	add	r2,r3,r2
   20b84:	10800804 	addi	r2,r2,32
   20b88:	00cfe034 	movhi	r3,16256
   20b8c:	10c00015 	stw	r3,0(r2)
   20b90:	e0bfa517 	ldw	r2,-364(fp)
   20b94:	100490fa 	slli	r2,r2,3
   20b98:	e13fa504 	addi	r4,fp,-364
   20b9c:	2085883a 	add	r2,r4,r2
   20ba0:	10800904 	addi	r2,r2,36
   20ba4:	10000015 	stw	zero,0(r2)

  for (i = 0; i < N; i++)
    in[i].r = in[i].i = 0;
  TestFft("Zeroes (complex)", in, out, 0);

  for (i = 0; i < N; i++)
   20ba8:	e0bfa517 	ldw	r2,-364(fp)
   20bac:	10800044 	addi	r2,r2,1
   20bb0:	e0bfa515 	stw	r2,-364(fp)
   20bb4:	e0bfa517 	ldw	r2,-364(fp)
   20bb8:	10800430 	cmpltui	r2,r2,16
   20bbc:	103fed1e 	bne	r2,zero,20b74 <main+0xac>
    in[i].r = 1, in[i].i = 0;
  TestFft("Ones (complex)", in, out, 0);
   20bc0:	e0ffcd04 	addi	r3,fp,-204
   20bc4:	e0bfad04 	addi	r2,fp,-332
   20bc8:	000f883a 	mov	r7,zero
   20bcc:	180d883a 	mov	r6,r3
   20bd0:	100b883a 	mov	r5,r2
   20bd4:	010000f4 	movhi	r4,3
   20bd8:	211fff04 	addi	r4,r4,32764
   20bdc:	00208a00 	call	208a0 <TestFft>

  for (i = 0; i < N; i++)
   20be0:	e03fa515 	stw	zero,-364(fp)
   20be4:	00003006 	br	20ca8 <main+0x1e0>
    in[i].r = sin(2 * M_PI * 4 * i / N), in[i].i = 0;
   20be8:	e13fa517 	ldw	r4,-364(fp)
   20bec:	00294440 	call	29444 <__floatunsidf>
   20bf0:	1011883a 	mov	r8,r2
   20bf4:	1813883a 	mov	r9,r3
   20bf8:	01951134 	movhi	r6,21572
   20bfc:	318b4604 	addi	r6,r6,11544
   20c00:	01d00e74 	movhi	r7,16441
   20c04:	39c87ec4 	addi	r7,r7,8699
   20c08:	4009883a 	mov	r4,r8
   20c0c:	480b883a 	mov	r5,r9
   20c10:	00282d40 	call	282d4 <__muldf3>
   20c14:	1009883a 	mov	r4,r2
   20c18:	180b883a 	mov	r5,r3
   20c1c:	2005883a 	mov	r2,r4
   20c20:	2807883a 	mov	r3,r5
   20c24:	000d883a 	mov	r6,zero
   20c28:	01d00c34 	movhi	r7,16432
   20c2c:	1009883a 	mov	r4,r2
   20c30:	180b883a 	mov	r5,r3
   20c34:	00277940 	call	27794 <__divdf3>
   20c38:	1009883a 	mov	r4,r2
   20c3c:	180b883a 	mov	r5,r3
   20c40:	2005883a 	mov	r2,r4
   20c44:	2807883a 	mov	r3,r5
   20c48:	1009883a 	mov	r4,r2
   20c4c:	180b883a 	mov	r5,r3
   20c50:	002365c0 	call	2365c <sin>
   20c54:	100b883a 	mov	r5,r2
   20c58:	180d883a 	mov	r6,r3
   20c5c:	2809883a 	mov	r4,r5
   20c60:	300b883a 	mov	r5,r6
   20c64:	00295fc0 	call	295fc <__truncdfsf2>
   20c68:	1007883a 	mov	r3,r2
   20c6c:	e0bfa517 	ldw	r2,-364(fp)
   20c70:	100490fa 	slli	r2,r2,3
   20c74:	e13fa504 	addi	r4,fp,-364
   20c78:	2085883a 	add	r2,r4,r2
   20c7c:	10800804 	addi	r2,r2,32
   20c80:	10c00015 	stw	r3,0(r2)
   20c84:	e0bfa517 	ldw	r2,-364(fp)
   20c88:	100490fa 	slli	r2,r2,3
   20c8c:	e0ffa504 	addi	r3,fp,-364
   20c90:	1885883a 	add	r2,r3,r2
   20c94:	10800904 	addi	r2,r2,36
   20c98:	10000015 	stw	zero,0(r2)

  for (i = 0; i < N; i++)
    in[i].r = 1, in[i].i = 0;
  TestFft("Ones (complex)", in, out, 0);

  for (i = 0; i < N; i++)
   20c9c:	e0bfa517 	ldw	r2,-364(fp)
   20ca0:	10800044 	addi	r2,r2,1
   20ca4:	e0bfa515 	stw	r2,-364(fp)
   20ca8:	e0bfa517 	ldw	r2,-364(fp)
   20cac:	10800430 	cmpltui	r2,r2,16
   20cb0:	103fcd1e 	bne	r2,zero,20be8 <main+0x120>
    in[i].r = sin(2 * M_PI * 4 * i / N), in[i].i = 0;
  TestFft("SineWave (complex)", in, out, 0);
   20cb4:	e0ffcd04 	addi	r3,fp,-204
   20cb8:	e0bfad04 	addi	r2,fp,-332
   20cbc:	000f883a 	mov	r7,zero
   20cc0:	180d883a 	mov	r6,r3
   20cc4:	100b883a 	mov	r5,r2
   20cc8:	01000134 	movhi	r4,4
   20ccc:	21200304 	addi	r4,r4,-32756
   20cd0:	00208a00 	call	208a0 <TestFft>
//
//  for (i = 0; i < N; i++)
//        in[i].r = out[i].r, in[i].i = out[i].i;
//    TestFft("Wawfile reverse (complex)", in, out, 1);

    printf("starting UART stream\n");
   20cd4:	01000134 	movhi	r4,4
   20cd8:	21200804 	addi	r4,r4,-32736
   20cdc:	002bbf00 	call	2bbf0 <puts>
 	char* msg = "Detected the character 't'.\n";
   20ce0:	00800134 	movhi	r2,4
   20ce4:	10a00e04 	addi	r2,r2,-32712
   20ce8:	e0bfa915 	stw	r2,-348(fp)
    FILE* fp;
    char prompt = 0;
   20cec:	e03fa605 	stb	zero,-360(fp)
    fp = fopen ("/dev/uart_0", "r+"); //Open file for reading and writing
   20cf0:	01400134 	movhi	r5,4
   20cf4:	29601604 	addi	r5,r5,-32680
   20cf8:	01000134 	movhi	r4,4
   20cfc:	21201704 	addi	r4,r4,-32676
   20d00:	002a0a80 	call	2a0a8 <fopen>
   20d04:	e0bfaa15 	stw	r2,-344(fp)
    int datatofft[16];
    if (fp)
   20d08:	e0bfaa17 	ldw	r2,-344(fp)
   20d0c:	10005d26 	beq	r2,zero,20e84 <main+0x3bc>
    {
		while (prompt != 'v')
   20d10:	00005106 	br	20e58 <main+0x390>
		{ // Loop until we receive a 'v'.
			char* msg2 = "n\n";
   20d14:	00800134 	movhi	r2,4
   20d18:	10a01a04 	addi	r2,r2,-32664
   20d1c:	e0bfab15 	stw	r2,-340(fp)
			fwrite (msg2, strlen (msg2), 1, fp);//ready for next chunk of data
   20d20:	e13fab17 	ldw	r4,-340(fp)
   20d24:	002c6840 	call	2c684 <strlen>
   20d28:	e1ffaa17 	ldw	r7,-344(fp)
   20d2c:	01800044 	movi	r6,1
   20d30:	100b883a 	mov	r5,r2
   20d34:	e13fab17 	ldw	r4,-340(fp)
   20d38:	002ac240 	call	2ac24 <fwrite>

			char messageReceived[10] = "";
   20d3c:	e03ffd15 	stw	zero,-12(fp)
   20d40:	e03ffe15 	stw	zero,-8(fp)
   20d44:	e03fff0d 	sth	zero,-4(fp)
			prompt = getc(fp); // Get a character from the UART.
   20d48:	e13faa17 	ldw	r4,-344(fp)
   20d4c:	002acc80 	call	2acc8 <getc>
   20d50:	e0bfa605 	stb	r2,-360(fp)
			int j = 0;
   20d54:	e03fa715 	stw	zero,-356(fp)
			while(prompt != 'x')
   20d58:	00002706 	br	20df8 <main+0x330>
			{
				//printf("%c", prompt);
				//strcat(messageReceived, prompt);
				int i = 0;
   20d5c:	e03fa815 	stw	zero,-352(fp)
				while(prompt != 'a')
   20d60:	00000b06 	br	20d90 <main+0x2c8>
				{
					messageReceived[i] = prompt;
   20d64:	e0fffd04 	addi	r3,fp,-12
   20d68:	e0bfa817 	ldw	r2,-352(fp)
   20d6c:	1885883a 	add	r2,r3,r2
   20d70:	e0ffa603 	ldbu	r3,-360(fp)
   20d74:	10c00005 	stb	r3,0(r2)
					i += 1;
   20d78:	e0bfa817 	ldw	r2,-352(fp)
   20d7c:	10800044 	addi	r2,r2,1
   20d80:	e0bfa815 	stw	r2,-352(fp)
					prompt = getc(fp); // Get a character from the UART.
   20d84:	e13faa17 	ldw	r4,-344(fp)
   20d88:	002acc80 	call	2acc8 <getc>
   20d8c:	e0bfa605 	stb	r2,-360(fp)
			while(prompt != 'x')
			{
				//printf("%c", prompt);
				//strcat(messageReceived, prompt);
				int i = 0;
				while(prompt != 'a')
   20d90:	e0bfa607 	ldb	r2,-360(fp)
   20d94:	10801858 	cmpnei	r2,r2,97
   20d98:	103ff21e 	bne	r2,zero,20d64 <main+0x29c>
				{
					messageReceived[i] = prompt;
					i += 1;
					prompt = getc(fp); // Get a character from the UART.
				}
				prompt = getc(fp);
   20d9c:	e13faa17 	ldw	r4,-344(fp)
   20da0:	002acc80 	call	2acc8 <getc>
   20da4:	e0bfa605 	stb	r2,-360(fp)
				messageReceived[i] = '\0';
   20da8:	e0fffd04 	addi	r3,fp,-12
   20dac:	e0bfa817 	ldw	r2,-352(fp)
   20db0:	1885883a 	add	r2,r3,r2
   20db4:	10000005 	stb	zero,0(r2)
				int value = atoi(messageReceived);
   20db8:	e0bffd04 	addi	r2,fp,-12
   20dbc:	1009883a 	mov	r4,r2
   20dc0:	00298080 	call	29808 <atoi>
   20dc4:	e0bfac15 	stw	r2,-336(fp)
				//printf("%d\n", value);
				datatofft[j] = value-100;
   20dc8:	e0bfac17 	ldw	r2,-336(fp)
   20dcc:	10ffe704 	addi	r3,r2,-100
   20dd0:	e0bfa717 	ldw	r2,-356(fp)
   20dd4:	1085883a 	add	r2,r2,r2
   20dd8:	1085883a 	add	r2,r2,r2
   20ddc:	e13fa504 	addi	r4,fp,-364
   20de0:	2085883a 	add	r2,r4,r2
   20de4:	10804804 	addi	r2,r2,288
   20de8:	10c00015 	stw	r3,0(r2)
				j+=1;
   20dec:	e0bfa717 	ldw	r2,-356(fp)
   20df0:	10800044 	addi	r2,r2,1
   20df4:	e0bfa715 	stw	r2,-356(fp)
			fwrite (msg2, strlen (msg2), 1, fp);//ready for next chunk of data

			char messageReceived[10] = "";
			prompt = getc(fp); // Get a character from the UART.
			int j = 0;
			while(prompt != 'x')
   20df8:	e0bfa607 	ldb	r2,-360(fp)
   20dfc:	10801e18 	cmpnei	r2,r2,120
   20e00:	103fd61e 	bne	r2,zero,20d5c <main+0x294>
//			    in[i].r = datatofft[i], in[i].i = 0;
//			SilentFft("Signal (complex)", in, out, 0);
//			for (i = 0; i < N; i++)
//				printf("%f", out[i].r);
//			printf("\n");
			for (i = 0; i < N; i++)
   20e04:	e03fa515 	stw	zero,-364(fp)
   20e08:	00000e06 	br	20e44 <main+0x37c>
				printf("%d, ", datatofft[i]);
   20e0c:	e0bfa517 	ldw	r2,-364(fp)
   20e10:	1085883a 	add	r2,r2,r2
   20e14:	1085883a 	add	r2,r2,r2
   20e18:	e0ffa504 	addi	r3,fp,-364
   20e1c:	1885883a 	add	r2,r3,r2
   20e20:	10804804 	addi	r2,r2,288
   20e24:	10800017 	ldw	r2,0(r2)
   20e28:	100b883a 	mov	r5,r2
   20e2c:	01000134 	movhi	r4,4
   20e30:	21201b04 	addi	r4,r4,-32660
   20e34:	002bad40 	call	2bad4 <printf>
//			    in[i].r = datatofft[i], in[i].i = 0;
//			SilentFft("Signal (complex)", in, out, 0);
//			for (i = 0; i < N; i++)
//				printf("%f", out[i].r);
//			printf("\n");
			for (i = 0; i < N; i++)
   20e38:	e0bfa517 	ldw	r2,-364(fp)
   20e3c:	10800044 	addi	r2,r2,1
   20e40:	e0bfa515 	stw	r2,-364(fp)
   20e44:	e0bfa517 	ldw	r2,-364(fp)
   20e48:	10800430 	cmpltui	r2,r2,16
   20e4c:	103fef1e 	bne	r2,zero,20e0c <main+0x344>
				printf("%d, ", datatofft[i]);
			printf("\n");
   20e50:	01000284 	movi	r4,10
   20e54:	002bb180 	call	2bb18 <putchar>
    char prompt = 0;
    fp = fopen ("/dev/uart_0", "r+"); //Open file for reading and writing
    int datatofft[16];
    if (fp)
    {
		while (prompt != 'v')
   20e58:	e0bfa607 	ldb	r2,-360(fp)
   20e5c:	10801d98 	cmpnei	r2,r2,118
   20e60:	103fac1e 	bne	r2,zero,20d14 <main+0x24c>
			for (i = 0; i < N; i++)
				printf("%d, ", datatofft[i]);
			printf("\n");

		}
		fprintf(fp, "Closing the UART file.\n");
   20e64:	e1ffaa17 	ldw	r7,-344(fp)
   20e68:	018005c4 	movi	r6,23
   20e6c:	01400044 	movi	r5,1
   20e70:	01000134 	movhi	r4,4
   20e74:	21201d04 	addi	r4,r4,-32652
   20e78:	002ac240 	call	2ac24 <fwrite>
		fclose (fp);
   20e7c:	e13faa17 	ldw	r4,-344(fp)
   20e80:	00299580 	call	29958 <fclose>





  return 0;
   20e84:	0005883a 	mov	r2,zero
}
   20e88:	e037883a 	mov	sp,fp
   20e8c:	dfc00117 	ldw	ra,4(sp)
   20e90:	df000017 	ldw	fp,0(sp)
   20e94:	dec00204 	addi	sp,sp,8
   20e98:	f800283a 	ret

00020e9c <kf_bfly2>:
        kiss_fft_cpx * Fout,
        const size_t fstride,
        const kiss_fft_cfg st,
        int m
        )
{
   20e9c:	defff504 	addi	sp,sp,-44
   20ea0:	dfc00a15 	stw	ra,40(sp)
   20ea4:	df000915 	stw	fp,36(sp)
   20ea8:	dc000815 	stw	r16,32(sp)
   20eac:	df000904 	addi	fp,sp,36
   20eb0:	e13ffb15 	stw	r4,-20(fp)
   20eb4:	e17ffc15 	stw	r5,-16(fp)
   20eb8:	e1bffd15 	stw	r6,-12(fp)
   20ebc:	e1fffe15 	stw	r7,-8(fp)
    kiss_fft_cpx * Fout2;
    kiss_fft_cpx * tw1 = st->twiddles;
   20ec0:	e0bffd17 	ldw	r2,-12(fp)
   20ec4:	10804204 	addi	r2,r2,264
   20ec8:	e0bff815 	stw	r2,-32(fp)
    kiss_fft_cpx t;
    Fout2 = Fout + m;
   20ecc:	e0bffe17 	ldw	r2,-8(fp)
   20ed0:	100490fa 	slli	r2,r2,3
   20ed4:	e0fffb17 	ldw	r3,-20(fp)
   20ed8:	1885883a 	add	r2,r3,r2
   20edc:	e0bff715 	stw	r2,-36(fp)
    do{
        C_FIXDIV(*Fout,2); C_FIXDIV(*Fout2,2);

        C_MUL (t,  *Fout2 , *tw1);
   20ee0:	e0bff717 	ldw	r2,-36(fp)
   20ee4:	10c00017 	ldw	r3,0(r2)
   20ee8:	e0bff817 	ldw	r2,-32(fp)
   20eec:	11000017 	ldw	r4,0(r2)
   20ef0:	200b883a 	mov	r5,r4
   20ef4:	1809883a 	mov	r4,r3
   20ef8:	00264740 	call	26474 <__mulsf3>
   20efc:	1007883a 	mov	r3,r2
   20f00:	1821883a 	mov	r16,r3
   20f04:	e0bff717 	ldw	r2,-36(fp)
   20f08:	10c00117 	ldw	r3,4(r2)
   20f0c:	e0bff817 	ldw	r2,-32(fp)
   20f10:	11000117 	ldw	r4,4(r2)
   20f14:	200b883a 	mov	r5,r4
   20f18:	1809883a 	mov	r4,r3
   20f1c:	00264740 	call	26474 <__mulsf3>
   20f20:	1007883a 	mov	r3,r2
   20f24:	1805883a 	mov	r2,r3
   20f28:	100b883a 	mov	r5,r2
   20f2c:	8009883a 	mov	r4,r16
   20f30:	00268700 	call	26870 <__subsf3>
   20f34:	1007883a 	mov	r3,r2
   20f38:	1805883a 	mov	r2,r3
   20f3c:	e0bff915 	stw	r2,-28(fp)
   20f40:	e0bff717 	ldw	r2,-36(fp)
   20f44:	10c00017 	ldw	r3,0(r2)
   20f48:	e0bff817 	ldw	r2,-32(fp)
   20f4c:	11000117 	ldw	r4,4(r2)
   20f50:	200b883a 	mov	r5,r4
   20f54:	1809883a 	mov	r4,r3
   20f58:	00264740 	call	26474 <__mulsf3>
   20f5c:	1007883a 	mov	r3,r2
   20f60:	1821883a 	mov	r16,r3
   20f64:	e0bff717 	ldw	r2,-36(fp)
   20f68:	10c00117 	ldw	r3,4(r2)
   20f6c:	e0bff817 	ldw	r2,-32(fp)
   20f70:	11000017 	ldw	r4,0(r2)
   20f74:	200b883a 	mov	r5,r4
   20f78:	1809883a 	mov	r4,r3
   20f7c:	00264740 	call	26474 <__mulsf3>
   20f80:	1007883a 	mov	r3,r2
   20f84:	1805883a 	mov	r2,r3
   20f88:	100b883a 	mov	r5,r2
   20f8c:	8009883a 	mov	r4,r16
   20f90:	0025b6c0 	call	25b6c <__addsf3>
   20f94:	1007883a 	mov	r3,r2
   20f98:	1805883a 	mov	r2,r3
   20f9c:	e0bffa15 	stw	r2,-24(fp)
        tw1 += fstride;
   20fa0:	e0bffc17 	ldw	r2,-16(fp)
   20fa4:	100490fa 	slli	r2,r2,3
   20fa8:	e0fff817 	ldw	r3,-32(fp)
   20fac:	1885883a 	add	r2,r3,r2
   20fb0:	e0bff815 	stw	r2,-32(fp)
        C_SUB( *Fout2 ,  *Fout , t );
   20fb4:	e0bffb17 	ldw	r2,-20(fp)
   20fb8:	10c00017 	ldw	r3,0(r2)
   20fbc:	e0bff917 	ldw	r2,-28(fp)
   20fc0:	100b883a 	mov	r5,r2
   20fc4:	1809883a 	mov	r4,r3
   20fc8:	00268700 	call	26870 <__subsf3>
   20fcc:	1009883a 	mov	r4,r2
   20fd0:	2007883a 	mov	r3,r4
   20fd4:	e0bff717 	ldw	r2,-36(fp)
   20fd8:	10c00015 	stw	r3,0(r2)
   20fdc:	e0bffb17 	ldw	r2,-20(fp)
   20fe0:	10c00117 	ldw	r3,4(r2)
   20fe4:	e0bffa17 	ldw	r2,-24(fp)
   20fe8:	100b883a 	mov	r5,r2
   20fec:	1809883a 	mov	r4,r3
   20ff0:	00268700 	call	26870 <__subsf3>
   20ff4:	1009883a 	mov	r4,r2
   20ff8:	2007883a 	mov	r3,r4
   20ffc:	e0bff717 	ldw	r2,-36(fp)
   21000:	10c00115 	stw	r3,4(r2)
        C_ADDTO( *Fout ,  t );
   21004:	e0bffb17 	ldw	r2,-20(fp)
   21008:	10c00017 	ldw	r3,0(r2)
   2100c:	e0bff917 	ldw	r2,-28(fp)
   21010:	100b883a 	mov	r5,r2
   21014:	1809883a 	mov	r4,r3
   21018:	0025b6c0 	call	25b6c <__addsf3>
   2101c:	1009883a 	mov	r4,r2
   21020:	2007883a 	mov	r3,r4
   21024:	e0bffb17 	ldw	r2,-20(fp)
   21028:	10c00015 	stw	r3,0(r2)
   2102c:	e0bffb17 	ldw	r2,-20(fp)
   21030:	10c00117 	ldw	r3,4(r2)
   21034:	e0bffa17 	ldw	r2,-24(fp)
   21038:	100b883a 	mov	r5,r2
   2103c:	1809883a 	mov	r4,r3
   21040:	0025b6c0 	call	25b6c <__addsf3>
   21044:	1009883a 	mov	r4,r2
   21048:	2007883a 	mov	r3,r4
   2104c:	e0bffb17 	ldw	r2,-20(fp)
   21050:	10c00115 	stw	r3,4(r2)
        ++Fout2;
   21054:	e0bff717 	ldw	r2,-36(fp)
   21058:	10800204 	addi	r2,r2,8
   2105c:	e0bff715 	stw	r2,-36(fp)
        ++Fout;
   21060:	e0bffb17 	ldw	r2,-20(fp)
   21064:	10800204 	addi	r2,r2,8
   21068:	e0bffb15 	stw	r2,-20(fp)
    }while (--m);
   2106c:	e0bffe17 	ldw	r2,-8(fp)
   21070:	10bfffc4 	addi	r2,r2,-1
   21074:	e0bffe15 	stw	r2,-8(fp)
   21078:	e0bffe17 	ldw	r2,-8(fp)
   2107c:	103f981e 	bne	r2,zero,20ee0 <kf_bfly2+0x44>
}
   21080:	0001883a 	nop
   21084:	e6ffff04 	addi	sp,fp,-4
   21088:	dfc00217 	ldw	ra,8(sp)
   2108c:	df000117 	ldw	fp,4(sp)
   21090:	dc000017 	ldw	r16,0(sp)
   21094:	dec00304 	addi	sp,sp,12
   21098:	f800283a 	ret

0002109c <kf_bfly4>:
        kiss_fft_cpx * Fout,
        const size_t fstride,
        const kiss_fft_cfg st,
        const size_t m
        )
{
   2109c:	deffe704 	addi	sp,sp,-100
   210a0:	dfc01815 	stw	ra,96(sp)
   210a4:	df001715 	stw	fp,92(sp)
   210a8:	dc001615 	stw	r16,88(sp)
   210ac:	df001704 	addi	fp,sp,92
   210b0:	e13ffb15 	stw	r4,-20(fp)
   210b4:	e17ffc15 	stw	r5,-16(fp)
   210b8:	e1bffd15 	stw	r6,-12(fp)
   210bc:	e1fffe15 	stw	r7,-8(fp)
    kiss_fft_cpx *tw1,*tw2,*tw3;
    kiss_fft_cpx scratch[6];
    size_t k=m;
   210c0:	e0bffe17 	ldw	r2,-8(fp)
   210c4:	e0bfec15 	stw	r2,-80(fp)
    const size_t m2=2*m;
   210c8:	e0bffe17 	ldw	r2,-8(fp)
   210cc:	1085883a 	add	r2,r2,r2
   210d0:	e0bfed15 	stw	r2,-76(fp)
    const size_t m3=3*m;
   210d4:	e0fffe17 	ldw	r3,-8(fp)
   210d8:	1805883a 	mov	r2,r3
   210dc:	1085883a 	add	r2,r2,r2
   210e0:	10c5883a 	add	r2,r2,r3
   210e4:	e0bfee15 	stw	r2,-72(fp)


    tw3 = tw2 = tw1 = st->twiddles;
   210e8:	e0bffd17 	ldw	r2,-12(fp)
   210ec:	10804204 	addi	r2,r2,264
   210f0:	e0bfe915 	stw	r2,-92(fp)
   210f4:	e0bfe917 	ldw	r2,-92(fp)
   210f8:	e0bfea15 	stw	r2,-88(fp)
   210fc:	e0bfea17 	ldw	r2,-88(fp)
   21100:	e0bfeb15 	stw	r2,-84(fp)

    do {
        C_FIXDIV(*Fout,4); C_FIXDIV(Fout[m],4); C_FIXDIV(Fout[m2],4); C_FIXDIV(Fout[m3],4);

        C_MUL(scratch[0],Fout[m] , *tw1 );
   21104:	e0bffe17 	ldw	r2,-8(fp)
   21108:	100490fa 	slli	r2,r2,3
   2110c:	e0fffb17 	ldw	r3,-20(fp)
   21110:	1885883a 	add	r2,r3,r2
   21114:	10c00017 	ldw	r3,0(r2)
   21118:	e0bfe917 	ldw	r2,-92(fp)
   2111c:	11000017 	ldw	r4,0(r2)
   21120:	200b883a 	mov	r5,r4
   21124:	1809883a 	mov	r4,r3
   21128:	00264740 	call	26474 <__mulsf3>
   2112c:	1007883a 	mov	r3,r2
   21130:	1821883a 	mov	r16,r3
   21134:	e0bffe17 	ldw	r2,-8(fp)
   21138:	100490fa 	slli	r2,r2,3
   2113c:	e0fffb17 	ldw	r3,-20(fp)
   21140:	1885883a 	add	r2,r3,r2
   21144:	10c00117 	ldw	r3,4(r2)
   21148:	e0bfe917 	ldw	r2,-92(fp)
   2114c:	11000117 	ldw	r4,4(r2)
   21150:	200b883a 	mov	r5,r4
   21154:	1809883a 	mov	r4,r3
   21158:	00264740 	call	26474 <__mulsf3>
   2115c:	1007883a 	mov	r3,r2
   21160:	1805883a 	mov	r2,r3
   21164:	100b883a 	mov	r5,r2
   21168:	8009883a 	mov	r4,r16
   2116c:	00268700 	call	26870 <__subsf3>
   21170:	1007883a 	mov	r3,r2
   21174:	1805883a 	mov	r2,r3
   21178:	e0bfef15 	stw	r2,-68(fp)
   2117c:	e0bffe17 	ldw	r2,-8(fp)
   21180:	100490fa 	slli	r2,r2,3
   21184:	e0fffb17 	ldw	r3,-20(fp)
   21188:	1885883a 	add	r2,r3,r2
   2118c:	10c00017 	ldw	r3,0(r2)
   21190:	e0bfe917 	ldw	r2,-92(fp)
   21194:	11000117 	ldw	r4,4(r2)
   21198:	200b883a 	mov	r5,r4
   2119c:	1809883a 	mov	r4,r3
   211a0:	00264740 	call	26474 <__mulsf3>
   211a4:	1007883a 	mov	r3,r2
   211a8:	1821883a 	mov	r16,r3
   211ac:	e0bffe17 	ldw	r2,-8(fp)
   211b0:	100490fa 	slli	r2,r2,3
   211b4:	e0fffb17 	ldw	r3,-20(fp)
   211b8:	1885883a 	add	r2,r3,r2
   211bc:	10c00117 	ldw	r3,4(r2)
   211c0:	e0bfe917 	ldw	r2,-92(fp)
   211c4:	11000017 	ldw	r4,0(r2)
   211c8:	200b883a 	mov	r5,r4
   211cc:	1809883a 	mov	r4,r3
   211d0:	00264740 	call	26474 <__mulsf3>
   211d4:	1007883a 	mov	r3,r2
   211d8:	1805883a 	mov	r2,r3
   211dc:	100b883a 	mov	r5,r2
   211e0:	8009883a 	mov	r4,r16
   211e4:	0025b6c0 	call	25b6c <__addsf3>
   211e8:	1007883a 	mov	r3,r2
   211ec:	1805883a 	mov	r2,r3
   211f0:	e0bff015 	stw	r2,-64(fp)
        C_MUL(scratch[1],Fout[m2] , *tw2 );
   211f4:	e0bfed17 	ldw	r2,-76(fp)
   211f8:	100490fa 	slli	r2,r2,3
   211fc:	e0fffb17 	ldw	r3,-20(fp)
   21200:	1885883a 	add	r2,r3,r2
   21204:	10c00017 	ldw	r3,0(r2)
   21208:	e0bfea17 	ldw	r2,-88(fp)
   2120c:	11000017 	ldw	r4,0(r2)
   21210:	200b883a 	mov	r5,r4
   21214:	1809883a 	mov	r4,r3
   21218:	00264740 	call	26474 <__mulsf3>
   2121c:	1007883a 	mov	r3,r2
   21220:	1821883a 	mov	r16,r3
   21224:	e0bfed17 	ldw	r2,-76(fp)
   21228:	100490fa 	slli	r2,r2,3
   2122c:	e0fffb17 	ldw	r3,-20(fp)
   21230:	1885883a 	add	r2,r3,r2
   21234:	10c00117 	ldw	r3,4(r2)
   21238:	e0bfea17 	ldw	r2,-88(fp)
   2123c:	11000117 	ldw	r4,4(r2)
   21240:	200b883a 	mov	r5,r4
   21244:	1809883a 	mov	r4,r3
   21248:	00264740 	call	26474 <__mulsf3>
   2124c:	1007883a 	mov	r3,r2
   21250:	1805883a 	mov	r2,r3
   21254:	100b883a 	mov	r5,r2
   21258:	8009883a 	mov	r4,r16
   2125c:	00268700 	call	26870 <__subsf3>
   21260:	1007883a 	mov	r3,r2
   21264:	1805883a 	mov	r2,r3
   21268:	e0bff115 	stw	r2,-60(fp)
   2126c:	e0bfed17 	ldw	r2,-76(fp)
   21270:	100490fa 	slli	r2,r2,3
   21274:	e0fffb17 	ldw	r3,-20(fp)
   21278:	1885883a 	add	r2,r3,r2
   2127c:	10c00017 	ldw	r3,0(r2)
   21280:	e0bfea17 	ldw	r2,-88(fp)
   21284:	11000117 	ldw	r4,4(r2)
   21288:	200b883a 	mov	r5,r4
   2128c:	1809883a 	mov	r4,r3
   21290:	00264740 	call	26474 <__mulsf3>
   21294:	1007883a 	mov	r3,r2
   21298:	1821883a 	mov	r16,r3
   2129c:	e0bfed17 	ldw	r2,-76(fp)
   212a0:	100490fa 	slli	r2,r2,3
   212a4:	e0fffb17 	ldw	r3,-20(fp)
   212a8:	1885883a 	add	r2,r3,r2
   212ac:	10c00117 	ldw	r3,4(r2)
   212b0:	e0bfea17 	ldw	r2,-88(fp)
   212b4:	11000017 	ldw	r4,0(r2)
   212b8:	200b883a 	mov	r5,r4
   212bc:	1809883a 	mov	r4,r3
   212c0:	00264740 	call	26474 <__mulsf3>
   212c4:	1007883a 	mov	r3,r2
   212c8:	1805883a 	mov	r2,r3
   212cc:	100b883a 	mov	r5,r2
   212d0:	8009883a 	mov	r4,r16
   212d4:	0025b6c0 	call	25b6c <__addsf3>
   212d8:	1007883a 	mov	r3,r2
   212dc:	1805883a 	mov	r2,r3
   212e0:	e0bff215 	stw	r2,-56(fp)
        C_MUL(scratch[2],Fout[m3] , *tw3 );
   212e4:	e0bfee17 	ldw	r2,-72(fp)
   212e8:	100490fa 	slli	r2,r2,3
   212ec:	e0fffb17 	ldw	r3,-20(fp)
   212f0:	1885883a 	add	r2,r3,r2
   212f4:	10c00017 	ldw	r3,0(r2)
   212f8:	e0bfeb17 	ldw	r2,-84(fp)
   212fc:	11000017 	ldw	r4,0(r2)
   21300:	200b883a 	mov	r5,r4
   21304:	1809883a 	mov	r4,r3
   21308:	00264740 	call	26474 <__mulsf3>
   2130c:	1007883a 	mov	r3,r2
   21310:	1821883a 	mov	r16,r3
   21314:	e0bfee17 	ldw	r2,-72(fp)
   21318:	100490fa 	slli	r2,r2,3
   2131c:	e0fffb17 	ldw	r3,-20(fp)
   21320:	1885883a 	add	r2,r3,r2
   21324:	10c00117 	ldw	r3,4(r2)
   21328:	e0bfeb17 	ldw	r2,-84(fp)
   2132c:	11000117 	ldw	r4,4(r2)
   21330:	200b883a 	mov	r5,r4
   21334:	1809883a 	mov	r4,r3
   21338:	00264740 	call	26474 <__mulsf3>
   2133c:	1007883a 	mov	r3,r2
   21340:	1805883a 	mov	r2,r3
   21344:	100b883a 	mov	r5,r2
   21348:	8009883a 	mov	r4,r16
   2134c:	00268700 	call	26870 <__subsf3>
   21350:	1007883a 	mov	r3,r2
   21354:	1805883a 	mov	r2,r3
   21358:	e0bff315 	stw	r2,-52(fp)
   2135c:	e0bfee17 	ldw	r2,-72(fp)
   21360:	100490fa 	slli	r2,r2,3
   21364:	e0fffb17 	ldw	r3,-20(fp)
   21368:	1885883a 	add	r2,r3,r2
   2136c:	10c00017 	ldw	r3,0(r2)
   21370:	e0bfeb17 	ldw	r2,-84(fp)
   21374:	11000117 	ldw	r4,4(r2)
   21378:	200b883a 	mov	r5,r4
   2137c:	1809883a 	mov	r4,r3
   21380:	00264740 	call	26474 <__mulsf3>
   21384:	1007883a 	mov	r3,r2
   21388:	1821883a 	mov	r16,r3
   2138c:	e0bfee17 	ldw	r2,-72(fp)
   21390:	100490fa 	slli	r2,r2,3
   21394:	e0fffb17 	ldw	r3,-20(fp)
   21398:	1885883a 	add	r2,r3,r2
   2139c:	10c00117 	ldw	r3,4(r2)
   213a0:	e0bfeb17 	ldw	r2,-84(fp)
   213a4:	11000017 	ldw	r4,0(r2)
   213a8:	200b883a 	mov	r5,r4
   213ac:	1809883a 	mov	r4,r3
   213b0:	00264740 	call	26474 <__mulsf3>
   213b4:	1007883a 	mov	r3,r2
   213b8:	1805883a 	mov	r2,r3
   213bc:	100b883a 	mov	r5,r2
   213c0:	8009883a 	mov	r4,r16
   213c4:	0025b6c0 	call	25b6c <__addsf3>
   213c8:	1007883a 	mov	r3,r2
   213cc:	1805883a 	mov	r2,r3
   213d0:	e0bff415 	stw	r2,-48(fp)

        C_SUB( scratch[5] , *Fout, scratch[1] );
   213d4:	e0bffb17 	ldw	r2,-20(fp)
   213d8:	10c00017 	ldw	r3,0(r2)
   213dc:	e0bff117 	ldw	r2,-60(fp)
   213e0:	100b883a 	mov	r5,r2
   213e4:	1809883a 	mov	r4,r3
   213e8:	00268700 	call	26870 <__subsf3>
   213ec:	1007883a 	mov	r3,r2
   213f0:	1805883a 	mov	r2,r3
   213f4:	e0bff915 	stw	r2,-28(fp)
   213f8:	e0bffb17 	ldw	r2,-20(fp)
   213fc:	10c00117 	ldw	r3,4(r2)
   21400:	e0bff217 	ldw	r2,-56(fp)
   21404:	100b883a 	mov	r5,r2
   21408:	1809883a 	mov	r4,r3
   2140c:	00268700 	call	26870 <__subsf3>
   21410:	1007883a 	mov	r3,r2
   21414:	1805883a 	mov	r2,r3
   21418:	e0bffa15 	stw	r2,-24(fp)
        C_ADDTO(*Fout, scratch[1]);
   2141c:	e0bffb17 	ldw	r2,-20(fp)
   21420:	10c00017 	ldw	r3,0(r2)
   21424:	e0bff117 	ldw	r2,-60(fp)
   21428:	100b883a 	mov	r5,r2
   2142c:	1809883a 	mov	r4,r3
   21430:	0025b6c0 	call	25b6c <__addsf3>
   21434:	1009883a 	mov	r4,r2
   21438:	2007883a 	mov	r3,r4
   2143c:	e0bffb17 	ldw	r2,-20(fp)
   21440:	10c00015 	stw	r3,0(r2)
   21444:	e0bffb17 	ldw	r2,-20(fp)
   21448:	10c00117 	ldw	r3,4(r2)
   2144c:	e0bff217 	ldw	r2,-56(fp)
   21450:	100b883a 	mov	r5,r2
   21454:	1809883a 	mov	r4,r3
   21458:	0025b6c0 	call	25b6c <__addsf3>
   2145c:	1009883a 	mov	r4,r2
   21460:	2007883a 	mov	r3,r4
   21464:	e0bffb17 	ldw	r2,-20(fp)
   21468:	10c00115 	stw	r3,4(r2)
        C_ADD( scratch[3] , scratch[0] , scratch[2] );
   2146c:	e0bfef17 	ldw	r2,-68(fp)
   21470:	e0fff317 	ldw	r3,-52(fp)
   21474:	180b883a 	mov	r5,r3
   21478:	1009883a 	mov	r4,r2
   2147c:	0025b6c0 	call	25b6c <__addsf3>
   21480:	1007883a 	mov	r3,r2
   21484:	1805883a 	mov	r2,r3
   21488:	e0bff515 	stw	r2,-44(fp)
   2148c:	e0bff017 	ldw	r2,-64(fp)
   21490:	e0fff417 	ldw	r3,-48(fp)
   21494:	180b883a 	mov	r5,r3
   21498:	1009883a 	mov	r4,r2
   2149c:	0025b6c0 	call	25b6c <__addsf3>
   214a0:	1007883a 	mov	r3,r2
   214a4:	1805883a 	mov	r2,r3
   214a8:	e0bff615 	stw	r2,-40(fp)
        C_SUB( scratch[4] , scratch[0] , scratch[2] );
   214ac:	e0bfef17 	ldw	r2,-68(fp)
   214b0:	e0fff317 	ldw	r3,-52(fp)
   214b4:	180b883a 	mov	r5,r3
   214b8:	1009883a 	mov	r4,r2
   214bc:	00268700 	call	26870 <__subsf3>
   214c0:	1007883a 	mov	r3,r2
   214c4:	1805883a 	mov	r2,r3
   214c8:	e0bff715 	stw	r2,-36(fp)
   214cc:	e0bff017 	ldw	r2,-64(fp)
   214d0:	e0fff417 	ldw	r3,-48(fp)
   214d4:	180b883a 	mov	r5,r3
   214d8:	1009883a 	mov	r4,r2
   214dc:	00268700 	call	26870 <__subsf3>
   214e0:	1007883a 	mov	r3,r2
   214e4:	1805883a 	mov	r2,r3
   214e8:	e0bff815 	stw	r2,-32(fp)
        C_SUB( Fout[m2], *Fout, scratch[3] );
   214ec:	e0bfed17 	ldw	r2,-76(fp)
   214f0:	100490fa 	slli	r2,r2,3
   214f4:	e0fffb17 	ldw	r3,-20(fp)
   214f8:	18a1883a 	add	r16,r3,r2
   214fc:	e0bffb17 	ldw	r2,-20(fp)
   21500:	10c00017 	ldw	r3,0(r2)
   21504:	e0bff517 	ldw	r2,-44(fp)
   21508:	100b883a 	mov	r5,r2
   2150c:	1809883a 	mov	r4,r3
   21510:	00268700 	call	26870 <__subsf3>
   21514:	1007883a 	mov	r3,r2
   21518:	1805883a 	mov	r2,r3
   2151c:	80800015 	stw	r2,0(r16)
   21520:	e0bfed17 	ldw	r2,-76(fp)
   21524:	100490fa 	slli	r2,r2,3
   21528:	e0fffb17 	ldw	r3,-20(fp)
   2152c:	18a1883a 	add	r16,r3,r2
   21530:	e0bffb17 	ldw	r2,-20(fp)
   21534:	10c00117 	ldw	r3,4(r2)
   21538:	e0bff617 	ldw	r2,-40(fp)
   2153c:	100b883a 	mov	r5,r2
   21540:	1809883a 	mov	r4,r3
   21544:	00268700 	call	26870 <__subsf3>
   21548:	1007883a 	mov	r3,r2
   2154c:	1805883a 	mov	r2,r3
   21550:	80800115 	stw	r2,4(r16)
        tw1 += fstride;
   21554:	e0bffc17 	ldw	r2,-16(fp)
   21558:	100490fa 	slli	r2,r2,3
   2155c:	e0ffe917 	ldw	r3,-92(fp)
   21560:	1885883a 	add	r2,r3,r2
   21564:	e0bfe915 	stw	r2,-92(fp)
        tw2 += fstride*2;
   21568:	e0bffc17 	ldw	r2,-16(fp)
   2156c:	1004913a 	slli	r2,r2,4
   21570:	e0ffea17 	ldw	r3,-88(fp)
   21574:	1885883a 	add	r2,r3,r2
   21578:	e0bfea15 	stw	r2,-88(fp)
        tw3 += fstride*3;
   2157c:	e0bffc17 	ldw	r2,-16(fp)
   21580:	10800624 	muli	r2,r2,24
   21584:	e0ffeb17 	ldw	r3,-84(fp)
   21588:	1885883a 	add	r2,r3,r2
   2158c:	e0bfeb15 	stw	r2,-84(fp)
        C_ADDTO( *Fout , scratch[3] );
   21590:	e0bffb17 	ldw	r2,-20(fp)
   21594:	10c00017 	ldw	r3,0(r2)
   21598:	e0bff517 	ldw	r2,-44(fp)
   2159c:	100b883a 	mov	r5,r2
   215a0:	1809883a 	mov	r4,r3
   215a4:	0025b6c0 	call	25b6c <__addsf3>
   215a8:	1009883a 	mov	r4,r2
   215ac:	2007883a 	mov	r3,r4
   215b0:	e0bffb17 	ldw	r2,-20(fp)
   215b4:	10c00015 	stw	r3,0(r2)
   215b8:	e0bffb17 	ldw	r2,-20(fp)
   215bc:	10c00117 	ldw	r3,4(r2)
   215c0:	e0bff617 	ldw	r2,-40(fp)
   215c4:	100b883a 	mov	r5,r2
   215c8:	1809883a 	mov	r4,r3
   215cc:	0025b6c0 	call	25b6c <__addsf3>
   215d0:	1009883a 	mov	r4,r2
   215d4:	2007883a 	mov	r3,r4
   215d8:	e0bffb17 	ldw	r2,-20(fp)
   215dc:	10c00115 	stw	r3,4(r2)

        if(st->inverse) {
   215e0:	e0bffd17 	ldw	r2,-12(fp)
   215e4:	10800117 	ldw	r2,4(r2)
   215e8:	10003126 	beq	r2,zero,216b0 <kf_bfly4+0x614>
            Fout[m].r = scratch[5].r - scratch[4].i;
   215ec:	e0bffe17 	ldw	r2,-8(fp)
   215f0:	100490fa 	slli	r2,r2,3
   215f4:	e0fffb17 	ldw	r3,-20(fp)
   215f8:	18a1883a 	add	r16,r3,r2
   215fc:	e0bff917 	ldw	r2,-28(fp)
   21600:	e0fff817 	ldw	r3,-32(fp)
   21604:	180b883a 	mov	r5,r3
   21608:	1009883a 	mov	r4,r2
   2160c:	00268700 	call	26870 <__subsf3>
   21610:	1007883a 	mov	r3,r2
   21614:	1805883a 	mov	r2,r3
   21618:	80800015 	stw	r2,0(r16)
            Fout[m].i = scratch[5].i + scratch[4].r;
   2161c:	e0bffe17 	ldw	r2,-8(fp)
   21620:	100490fa 	slli	r2,r2,3
   21624:	e0fffb17 	ldw	r3,-20(fp)
   21628:	18a1883a 	add	r16,r3,r2
   2162c:	e0bffa17 	ldw	r2,-24(fp)
   21630:	e0fff717 	ldw	r3,-36(fp)
   21634:	180b883a 	mov	r5,r3
   21638:	1009883a 	mov	r4,r2
   2163c:	0025b6c0 	call	25b6c <__addsf3>
   21640:	1007883a 	mov	r3,r2
   21644:	1805883a 	mov	r2,r3
   21648:	80800115 	stw	r2,4(r16)
            Fout[m3].r = scratch[5].r + scratch[4].i;
   2164c:	e0bfee17 	ldw	r2,-72(fp)
   21650:	100490fa 	slli	r2,r2,3
   21654:	e0fffb17 	ldw	r3,-20(fp)
   21658:	18a1883a 	add	r16,r3,r2
   2165c:	e0bff917 	ldw	r2,-28(fp)
   21660:	e0fff817 	ldw	r3,-32(fp)
   21664:	180b883a 	mov	r5,r3
   21668:	1009883a 	mov	r4,r2
   2166c:	0025b6c0 	call	25b6c <__addsf3>
   21670:	1007883a 	mov	r3,r2
   21674:	1805883a 	mov	r2,r3
   21678:	80800015 	stw	r2,0(r16)
            Fout[m3].i = scratch[5].i - scratch[4].r;
   2167c:	e0bfee17 	ldw	r2,-72(fp)
   21680:	100490fa 	slli	r2,r2,3
   21684:	e0fffb17 	ldw	r3,-20(fp)
   21688:	18a1883a 	add	r16,r3,r2
   2168c:	e0bffa17 	ldw	r2,-24(fp)
   21690:	e0fff717 	ldw	r3,-36(fp)
   21694:	180b883a 	mov	r5,r3
   21698:	1009883a 	mov	r4,r2
   2169c:	00268700 	call	26870 <__subsf3>
   216a0:	1007883a 	mov	r3,r2
   216a4:	1805883a 	mov	r2,r3
   216a8:	80800115 	stw	r2,4(r16)
   216ac:	00003006 	br	21770 <kf_bfly4+0x6d4>
        }else{
            Fout[m].r = scratch[5].r + scratch[4].i;
   216b0:	e0bffe17 	ldw	r2,-8(fp)
   216b4:	100490fa 	slli	r2,r2,3
   216b8:	e0fffb17 	ldw	r3,-20(fp)
   216bc:	18a1883a 	add	r16,r3,r2
   216c0:	e0bff917 	ldw	r2,-28(fp)
   216c4:	e0fff817 	ldw	r3,-32(fp)
   216c8:	180b883a 	mov	r5,r3
   216cc:	1009883a 	mov	r4,r2
   216d0:	0025b6c0 	call	25b6c <__addsf3>
   216d4:	1007883a 	mov	r3,r2
   216d8:	1805883a 	mov	r2,r3
   216dc:	80800015 	stw	r2,0(r16)
            Fout[m].i = scratch[5].i - scratch[4].r;
   216e0:	e0bffe17 	ldw	r2,-8(fp)
   216e4:	100490fa 	slli	r2,r2,3
   216e8:	e0fffb17 	ldw	r3,-20(fp)
   216ec:	18a1883a 	add	r16,r3,r2
   216f0:	e0bffa17 	ldw	r2,-24(fp)
   216f4:	e0fff717 	ldw	r3,-36(fp)
   216f8:	180b883a 	mov	r5,r3
   216fc:	1009883a 	mov	r4,r2
   21700:	00268700 	call	26870 <__subsf3>
   21704:	1007883a 	mov	r3,r2
   21708:	1805883a 	mov	r2,r3
   2170c:	80800115 	stw	r2,4(r16)
            Fout[m3].r = scratch[5].r - scratch[4].i;
   21710:	e0bfee17 	ldw	r2,-72(fp)
   21714:	100490fa 	slli	r2,r2,3
   21718:	e0fffb17 	ldw	r3,-20(fp)
   2171c:	18a1883a 	add	r16,r3,r2
   21720:	e0bff917 	ldw	r2,-28(fp)
   21724:	e0fff817 	ldw	r3,-32(fp)
   21728:	180b883a 	mov	r5,r3
   2172c:	1009883a 	mov	r4,r2
   21730:	00268700 	call	26870 <__subsf3>
   21734:	1007883a 	mov	r3,r2
   21738:	1805883a 	mov	r2,r3
   2173c:	80800015 	stw	r2,0(r16)
            Fout[m3].i = scratch[5].i + scratch[4].r;
   21740:	e0bfee17 	ldw	r2,-72(fp)
   21744:	100490fa 	slli	r2,r2,3
   21748:	e0fffb17 	ldw	r3,-20(fp)
   2174c:	18a1883a 	add	r16,r3,r2
   21750:	e0bffa17 	ldw	r2,-24(fp)
   21754:	e0fff717 	ldw	r3,-36(fp)
   21758:	180b883a 	mov	r5,r3
   2175c:	1009883a 	mov	r4,r2
   21760:	0025b6c0 	call	25b6c <__addsf3>
   21764:	1007883a 	mov	r3,r2
   21768:	1805883a 	mov	r2,r3
   2176c:	80800115 	stw	r2,4(r16)
        }
        ++Fout;
   21770:	e0bffb17 	ldw	r2,-20(fp)
   21774:	10800204 	addi	r2,r2,8
   21778:	e0bffb15 	stw	r2,-20(fp)
    }while(--k);
   2177c:	e0bfec17 	ldw	r2,-80(fp)
   21780:	10bfffc4 	addi	r2,r2,-1
   21784:	e0bfec15 	stw	r2,-80(fp)
   21788:	e0bfec17 	ldw	r2,-80(fp)
   2178c:	103e5d1e 	bne	r2,zero,21104 <kf_bfly4+0x68>
}
   21790:	0001883a 	nop
   21794:	e6ffff04 	addi	sp,fp,-4
   21798:	dfc00217 	ldw	ra,8(sp)
   2179c:	df000117 	ldw	fp,4(sp)
   217a0:	dc000017 	ldw	r16,0(sp)
   217a4:	dec00304 	addi	sp,sp,12
   217a8:	f800283a 	ret

000217ac <kf_bfly3>:
         kiss_fft_cpx * Fout,
         const size_t fstride,
         const kiss_fft_cfg st,
         size_t m
         )
{
   217ac:	deffe704 	addi	sp,sp,-100
   217b0:	dfc01815 	stw	ra,96(sp)
   217b4:	df001715 	stw	fp,92(sp)
   217b8:	dc801615 	stw	r18,88(sp)
   217bc:	dc401515 	stw	r17,84(sp)
   217c0:	dc001415 	stw	r16,80(sp)
   217c4:	df001704 	addi	fp,sp,92
   217c8:	e13ff915 	stw	r4,-28(fp)
   217cc:	e17ffa15 	stw	r5,-24(fp)
   217d0:	e1bffb15 	stw	r6,-20(fp)
   217d4:	e1fffc15 	stw	r7,-16(fp)
     size_t k=m;
   217d8:	e0bffc17 	ldw	r2,-16(fp)
   217dc:	e0bfe915 	stw	r2,-92(fp)
     const size_t m2 = 2*m;
   217e0:	e0bffc17 	ldw	r2,-16(fp)
   217e4:	1085883a 	add	r2,r2,r2
   217e8:	e0bfec15 	stw	r2,-80(fp)
     kiss_fft_cpx *tw1,*tw2;
     kiss_fft_cpx scratch[5];
     kiss_fft_cpx epi3;
     epi3 = st->twiddles[fstride*m];
   217ec:	e0fffa17 	ldw	r3,-24(fp)
   217f0:	e0bffc17 	ldw	r2,-16(fp)
   217f4:	1885383a 	mul	r2,r3,r2
   217f8:	e0fffb17 	ldw	r3,-20(fp)
   217fc:	10800844 	addi	r2,r2,33
   21800:	100490fa 	slli	r2,r2,3
   21804:	1885883a 	add	r2,r3,r2
   21808:	10c00017 	ldw	r3,0(r2)
   2180c:	e0fff715 	stw	r3,-36(fp)
   21810:	10800117 	ldw	r2,4(r2)
   21814:	e0bff815 	stw	r2,-32(fp)

     tw1=tw2=st->twiddles;
   21818:	e0bffb17 	ldw	r2,-20(fp)
   2181c:	10804204 	addi	r2,r2,264
   21820:	e0bfeb15 	stw	r2,-84(fp)
   21824:	e0bfeb17 	ldw	r2,-84(fp)
   21828:	e0bfea15 	stw	r2,-88(fp)

     do{
         C_FIXDIV(*Fout,3); C_FIXDIV(Fout[m],3); C_FIXDIV(Fout[m2],3);

         C_MUL(scratch[1],Fout[m] , *tw1);
   2182c:	e0bffc17 	ldw	r2,-16(fp)
   21830:	100490fa 	slli	r2,r2,3
   21834:	e0fff917 	ldw	r3,-28(fp)
   21838:	1885883a 	add	r2,r3,r2
   2183c:	10c00017 	ldw	r3,0(r2)
   21840:	e0bfea17 	ldw	r2,-88(fp)
   21844:	11000017 	ldw	r4,0(r2)
   21848:	200b883a 	mov	r5,r4
   2184c:	1809883a 	mov	r4,r3
   21850:	00264740 	call	26474 <__mulsf3>
   21854:	1007883a 	mov	r3,r2
   21858:	1821883a 	mov	r16,r3
   2185c:	e0bffc17 	ldw	r2,-16(fp)
   21860:	100490fa 	slli	r2,r2,3
   21864:	e0fff917 	ldw	r3,-28(fp)
   21868:	1885883a 	add	r2,r3,r2
   2186c:	10c00117 	ldw	r3,4(r2)
   21870:	e0bfea17 	ldw	r2,-88(fp)
   21874:	11000117 	ldw	r4,4(r2)
   21878:	200b883a 	mov	r5,r4
   2187c:	1809883a 	mov	r4,r3
   21880:	00264740 	call	26474 <__mulsf3>
   21884:	1007883a 	mov	r3,r2
   21888:	1805883a 	mov	r2,r3
   2188c:	100b883a 	mov	r5,r2
   21890:	8009883a 	mov	r4,r16
   21894:	00268700 	call	26870 <__subsf3>
   21898:	1007883a 	mov	r3,r2
   2189c:	1805883a 	mov	r2,r3
   218a0:	e0bfef15 	stw	r2,-68(fp)
   218a4:	e0bffc17 	ldw	r2,-16(fp)
   218a8:	100490fa 	slli	r2,r2,3
   218ac:	e0fff917 	ldw	r3,-28(fp)
   218b0:	1885883a 	add	r2,r3,r2
   218b4:	10c00017 	ldw	r3,0(r2)
   218b8:	e0bfea17 	ldw	r2,-88(fp)
   218bc:	11000117 	ldw	r4,4(r2)
   218c0:	200b883a 	mov	r5,r4
   218c4:	1809883a 	mov	r4,r3
   218c8:	00264740 	call	26474 <__mulsf3>
   218cc:	1007883a 	mov	r3,r2
   218d0:	1821883a 	mov	r16,r3
   218d4:	e0bffc17 	ldw	r2,-16(fp)
   218d8:	100490fa 	slli	r2,r2,3
   218dc:	e0fff917 	ldw	r3,-28(fp)
   218e0:	1885883a 	add	r2,r3,r2
   218e4:	10c00117 	ldw	r3,4(r2)
   218e8:	e0bfea17 	ldw	r2,-88(fp)
   218ec:	11000017 	ldw	r4,0(r2)
   218f0:	200b883a 	mov	r5,r4
   218f4:	1809883a 	mov	r4,r3
   218f8:	00264740 	call	26474 <__mulsf3>
   218fc:	1007883a 	mov	r3,r2
   21900:	1805883a 	mov	r2,r3
   21904:	100b883a 	mov	r5,r2
   21908:	8009883a 	mov	r4,r16
   2190c:	0025b6c0 	call	25b6c <__addsf3>
   21910:	1007883a 	mov	r3,r2
   21914:	1805883a 	mov	r2,r3
   21918:	e0bff015 	stw	r2,-64(fp)
         C_MUL(scratch[2],Fout[m2] , *tw2);
   2191c:	e0bfec17 	ldw	r2,-80(fp)
   21920:	100490fa 	slli	r2,r2,3
   21924:	e0fff917 	ldw	r3,-28(fp)
   21928:	1885883a 	add	r2,r3,r2
   2192c:	10c00017 	ldw	r3,0(r2)
   21930:	e0bfeb17 	ldw	r2,-84(fp)
   21934:	11000017 	ldw	r4,0(r2)
   21938:	200b883a 	mov	r5,r4
   2193c:	1809883a 	mov	r4,r3
   21940:	00264740 	call	26474 <__mulsf3>
   21944:	1007883a 	mov	r3,r2
   21948:	1821883a 	mov	r16,r3
   2194c:	e0bfec17 	ldw	r2,-80(fp)
   21950:	100490fa 	slli	r2,r2,3
   21954:	e0fff917 	ldw	r3,-28(fp)
   21958:	1885883a 	add	r2,r3,r2
   2195c:	10c00117 	ldw	r3,4(r2)
   21960:	e0bfeb17 	ldw	r2,-84(fp)
   21964:	11000117 	ldw	r4,4(r2)
   21968:	200b883a 	mov	r5,r4
   2196c:	1809883a 	mov	r4,r3
   21970:	00264740 	call	26474 <__mulsf3>
   21974:	1007883a 	mov	r3,r2
   21978:	1805883a 	mov	r2,r3
   2197c:	100b883a 	mov	r5,r2
   21980:	8009883a 	mov	r4,r16
   21984:	00268700 	call	26870 <__subsf3>
   21988:	1007883a 	mov	r3,r2
   2198c:	1805883a 	mov	r2,r3
   21990:	e0bff115 	stw	r2,-60(fp)
   21994:	e0bfec17 	ldw	r2,-80(fp)
   21998:	100490fa 	slli	r2,r2,3
   2199c:	e0fff917 	ldw	r3,-28(fp)
   219a0:	1885883a 	add	r2,r3,r2
   219a4:	10c00017 	ldw	r3,0(r2)
   219a8:	e0bfeb17 	ldw	r2,-84(fp)
   219ac:	11000117 	ldw	r4,4(r2)
   219b0:	200b883a 	mov	r5,r4
   219b4:	1809883a 	mov	r4,r3
   219b8:	00264740 	call	26474 <__mulsf3>
   219bc:	1007883a 	mov	r3,r2
   219c0:	1821883a 	mov	r16,r3
   219c4:	e0bfec17 	ldw	r2,-80(fp)
   219c8:	100490fa 	slli	r2,r2,3
   219cc:	e0fff917 	ldw	r3,-28(fp)
   219d0:	1885883a 	add	r2,r3,r2
   219d4:	10c00117 	ldw	r3,4(r2)
   219d8:	e0bfeb17 	ldw	r2,-84(fp)
   219dc:	11000017 	ldw	r4,0(r2)
   219e0:	200b883a 	mov	r5,r4
   219e4:	1809883a 	mov	r4,r3
   219e8:	00264740 	call	26474 <__mulsf3>
   219ec:	1007883a 	mov	r3,r2
   219f0:	1805883a 	mov	r2,r3
   219f4:	100b883a 	mov	r5,r2
   219f8:	8009883a 	mov	r4,r16
   219fc:	0025b6c0 	call	25b6c <__addsf3>
   21a00:	1007883a 	mov	r3,r2
   21a04:	1805883a 	mov	r2,r3
   21a08:	e0bff215 	stw	r2,-56(fp)

         C_ADD(scratch[3],scratch[1],scratch[2]);
   21a0c:	e0bfef17 	ldw	r2,-68(fp)
   21a10:	e0fff117 	ldw	r3,-60(fp)
   21a14:	180b883a 	mov	r5,r3
   21a18:	1009883a 	mov	r4,r2
   21a1c:	0025b6c0 	call	25b6c <__addsf3>
   21a20:	1007883a 	mov	r3,r2
   21a24:	1805883a 	mov	r2,r3
   21a28:	e0bff315 	stw	r2,-52(fp)
   21a2c:	e0bff017 	ldw	r2,-64(fp)
   21a30:	e0fff217 	ldw	r3,-56(fp)
   21a34:	180b883a 	mov	r5,r3
   21a38:	1009883a 	mov	r4,r2
   21a3c:	0025b6c0 	call	25b6c <__addsf3>
   21a40:	1007883a 	mov	r3,r2
   21a44:	1805883a 	mov	r2,r3
   21a48:	e0bff415 	stw	r2,-48(fp)
         C_SUB(scratch[0],scratch[1],scratch[2]);
   21a4c:	e0bfef17 	ldw	r2,-68(fp)
   21a50:	e0fff117 	ldw	r3,-60(fp)
   21a54:	180b883a 	mov	r5,r3
   21a58:	1009883a 	mov	r4,r2
   21a5c:	00268700 	call	26870 <__subsf3>
   21a60:	1007883a 	mov	r3,r2
   21a64:	1805883a 	mov	r2,r3
   21a68:	e0bfed15 	stw	r2,-76(fp)
   21a6c:	e0bff017 	ldw	r2,-64(fp)
   21a70:	e0fff217 	ldw	r3,-56(fp)
   21a74:	180b883a 	mov	r5,r3
   21a78:	1009883a 	mov	r4,r2
   21a7c:	00268700 	call	26870 <__subsf3>
   21a80:	1007883a 	mov	r3,r2
   21a84:	1805883a 	mov	r2,r3
   21a88:	e0bfee15 	stw	r2,-72(fp)
         tw1 += fstride;
   21a8c:	e0bffa17 	ldw	r2,-24(fp)
   21a90:	100490fa 	slli	r2,r2,3
   21a94:	e0ffea17 	ldw	r3,-88(fp)
   21a98:	1885883a 	add	r2,r3,r2
   21a9c:	e0bfea15 	stw	r2,-88(fp)
         tw2 += fstride*2;
   21aa0:	e0bffa17 	ldw	r2,-24(fp)
   21aa4:	1004913a 	slli	r2,r2,4
   21aa8:	e0ffeb17 	ldw	r3,-84(fp)
   21aac:	1885883a 	add	r2,r3,r2
   21ab0:	e0bfeb15 	stw	r2,-84(fp)

         Fout[m].r = Fout->r - HALF_OF(scratch[3].r);
   21ab4:	e0bffc17 	ldw	r2,-16(fp)
   21ab8:	100490fa 	slli	r2,r2,3
   21abc:	e0fff917 	ldw	r3,-28(fp)
   21ac0:	18a5883a 	add	r18,r3,r2
   21ac4:	e0bff917 	ldw	r2,-28(fp)
   21ac8:	10c00017 	ldw	r3,0(r2)
   21acc:	1809883a 	mov	r4,r3
   21ad0:	00294ec0 	call	294ec <__extendsfdf2>
   21ad4:	1021883a 	mov	r16,r2
   21ad8:	1823883a 	mov	r17,r3
   21adc:	e0bff317 	ldw	r2,-52(fp)
   21ae0:	1009883a 	mov	r4,r2
   21ae4:	00294ec0 	call	294ec <__extendsfdf2>
   21ae8:	1011883a 	mov	r8,r2
   21aec:	1813883a 	mov	r9,r3
   21af0:	000d883a 	mov	r6,zero
   21af4:	01cff834 	movhi	r7,16352
   21af8:	4009883a 	mov	r4,r8
   21afc:	480b883a 	mov	r5,r9
   21b00:	00282d40 	call	282d4 <__muldf3>
   21b04:	1009883a 	mov	r4,r2
   21b08:	180b883a 	mov	r5,r3
   21b0c:	2005883a 	mov	r2,r4
   21b10:	2807883a 	mov	r3,r5
   21b14:	100d883a 	mov	r6,r2
   21b18:	180f883a 	mov	r7,r3
   21b1c:	8009883a 	mov	r4,r16
   21b20:	880b883a 	mov	r5,r17
   21b24:	00289ec0 	call	289ec <__subdf3>
   21b28:	1009883a 	mov	r4,r2
   21b2c:	180b883a 	mov	r5,r3
   21b30:	2005883a 	mov	r2,r4
   21b34:	2807883a 	mov	r3,r5
   21b38:	1009883a 	mov	r4,r2
   21b3c:	180b883a 	mov	r5,r3
   21b40:	00295fc0 	call	295fc <__truncdfsf2>
   21b44:	1007883a 	mov	r3,r2
   21b48:	90c00015 	stw	r3,0(r18)
         Fout[m].i = Fout->i - HALF_OF(scratch[3].i);
   21b4c:	e0bffc17 	ldw	r2,-16(fp)
   21b50:	100490fa 	slli	r2,r2,3
   21b54:	e0fff917 	ldw	r3,-28(fp)
   21b58:	18a5883a 	add	r18,r3,r2
   21b5c:	e0bff917 	ldw	r2,-28(fp)
   21b60:	10c00117 	ldw	r3,4(r2)
   21b64:	1809883a 	mov	r4,r3
   21b68:	00294ec0 	call	294ec <__extendsfdf2>
   21b6c:	1021883a 	mov	r16,r2
   21b70:	1823883a 	mov	r17,r3
   21b74:	e0bff417 	ldw	r2,-48(fp)
   21b78:	1009883a 	mov	r4,r2
   21b7c:	00294ec0 	call	294ec <__extendsfdf2>
   21b80:	1011883a 	mov	r8,r2
   21b84:	1813883a 	mov	r9,r3
   21b88:	000d883a 	mov	r6,zero
   21b8c:	01cff834 	movhi	r7,16352
   21b90:	4009883a 	mov	r4,r8
   21b94:	480b883a 	mov	r5,r9
   21b98:	00282d40 	call	282d4 <__muldf3>
   21b9c:	1009883a 	mov	r4,r2
   21ba0:	180b883a 	mov	r5,r3
   21ba4:	2005883a 	mov	r2,r4
   21ba8:	2807883a 	mov	r3,r5
   21bac:	100d883a 	mov	r6,r2
   21bb0:	180f883a 	mov	r7,r3
   21bb4:	8009883a 	mov	r4,r16
   21bb8:	880b883a 	mov	r5,r17
   21bbc:	00289ec0 	call	289ec <__subdf3>
   21bc0:	1009883a 	mov	r4,r2
   21bc4:	180b883a 	mov	r5,r3
   21bc8:	2005883a 	mov	r2,r4
   21bcc:	2807883a 	mov	r3,r5
   21bd0:	1009883a 	mov	r4,r2
   21bd4:	180b883a 	mov	r5,r3
   21bd8:	00295fc0 	call	295fc <__truncdfsf2>
   21bdc:	1007883a 	mov	r3,r2
   21be0:	90c00115 	stw	r3,4(r18)

         C_MULBYSCALAR( scratch[0] , epi3.i );
   21be4:	e0bfed17 	ldw	r2,-76(fp)
   21be8:	e0fff817 	ldw	r3,-32(fp)
   21bec:	180b883a 	mov	r5,r3
   21bf0:	1009883a 	mov	r4,r2
   21bf4:	00264740 	call	26474 <__mulsf3>
   21bf8:	1007883a 	mov	r3,r2
   21bfc:	1805883a 	mov	r2,r3
   21c00:	e0bfed15 	stw	r2,-76(fp)
   21c04:	e0bfee17 	ldw	r2,-72(fp)
   21c08:	e0fff817 	ldw	r3,-32(fp)
   21c0c:	180b883a 	mov	r5,r3
   21c10:	1009883a 	mov	r4,r2
   21c14:	00264740 	call	26474 <__mulsf3>
   21c18:	1007883a 	mov	r3,r2
   21c1c:	1805883a 	mov	r2,r3
   21c20:	e0bfee15 	stw	r2,-72(fp)

         C_ADDTO(*Fout,scratch[3]);
   21c24:	e0bff917 	ldw	r2,-28(fp)
   21c28:	10c00017 	ldw	r3,0(r2)
   21c2c:	e0bff317 	ldw	r2,-52(fp)
   21c30:	100b883a 	mov	r5,r2
   21c34:	1809883a 	mov	r4,r3
   21c38:	0025b6c0 	call	25b6c <__addsf3>
   21c3c:	1009883a 	mov	r4,r2
   21c40:	2007883a 	mov	r3,r4
   21c44:	e0bff917 	ldw	r2,-28(fp)
   21c48:	10c00015 	stw	r3,0(r2)
   21c4c:	e0bff917 	ldw	r2,-28(fp)
   21c50:	10c00117 	ldw	r3,4(r2)
   21c54:	e0bff417 	ldw	r2,-48(fp)
   21c58:	100b883a 	mov	r5,r2
   21c5c:	1809883a 	mov	r4,r3
   21c60:	0025b6c0 	call	25b6c <__addsf3>
   21c64:	1009883a 	mov	r4,r2
   21c68:	2007883a 	mov	r3,r4
   21c6c:	e0bff917 	ldw	r2,-28(fp)
   21c70:	10c00115 	stw	r3,4(r2)

         Fout[m2].r = Fout[m].r + scratch[0].i;
   21c74:	e0bfec17 	ldw	r2,-80(fp)
   21c78:	100490fa 	slli	r2,r2,3
   21c7c:	e0fff917 	ldw	r3,-28(fp)
   21c80:	18a1883a 	add	r16,r3,r2
   21c84:	e0bffc17 	ldw	r2,-16(fp)
   21c88:	100490fa 	slli	r2,r2,3
   21c8c:	e0fff917 	ldw	r3,-28(fp)
   21c90:	1885883a 	add	r2,r3,r2
   21c94:	10c00017 	ldw	r3,0(r2)
   21c98:	e0bfee17 	ldw	r2,-72(fp)
   21c9c:	100b883a 	mov	r5,r2
   21ca0:	1809883a 	mov	r4,r3
   21ca4:	0025b6c0 	call	25b6c <__addsf3>
   21ca8:	1007883a 	mov	r3,r2
   21cac:	1805883a 	mov	r2,r3
   21cb0:	80800015 	stw	r2,0(r16)
         Fout[m2].i = Fout[m].i - scratch[0].r;
   21cb4:	e0bfec17 	ldw	r2,-80(fp)
   21cb8:	100490fa 	slli	r2,r2,3
   21cbc:	e0fff917 	ldw	r3,-28(fp)
   21cc0:	18a1883a 	add	r16,r3,r2
   21cc4:	e0bffc17 	ldw	r2,-16(fp)
   21cc8:	100490fa 	slli	r2,r2,3
   21ccc:	e0fff917 	ldw	r3,-28(fp)
   21cd0:	1885883a 	add	r2,r3,r2
   21cd4:	10c00117 	ldw	r3,4(r2)
   21cd8:	e0bfed17 	ldw	r2,-76(fp)
   21cdc:	100b883a 	mov	r5,r2
   21ce0:	1809883a 	mov	r4,r3
   21ce4:	00268700 	call	26870 <__subsf3>
   21ce8:	1007883a 	mov	r3,r2
   21cec:	1805883a 	mov	r2,r3
   21cf0:	80800115 	stw	r2,4(r16)

         Fout[m].r -= scratch[0].i;
   21cf4:	e0bffc17 	ldw	r2,-16(fp)
   21cf8:	100490fa 	slli	r2,r2,3
   21cfc:	e0fff917 	ldw	r3,-28(fp)
   21d00:	18a1883a 	add	r16,r3,r2
   21d04:	e0bffc17 	ldw	r2,-16(fp)
   21d08:	100490fa 	slli	r2,r2,3
   21d0c:	e0fff917 	ldw	r3,-28(fp)
   21d10:	1885883a 	add	r2,r3,r2
   21d14:	10c00017 	ldw	r3,0(r2)
   21d18:	e0bfee17 	ldw	r2,-72(fp)
   21d1c:	100b883a 	mov	r5,r2
   21d20:	1809883a 	mov	r4,r3
   21d24:	00268700 	call	26870 <__subsf3>
   21d28:	1007883a 	mov	r3,r2
   21d2c:	1805883a 	mov	r2,r3
   21d30:	80800015 	stw	r2,0(r16)
         Fout[m].i += scratch[0].r;
   21d34:	e0bffc17 	ldw	r2,-16(fp)
   21d38:	100490fa 	slli	r2,r2,3
   21d3c:	e0fff917 	ldw	r3,-28(fp)
   21d40:	18a1883a 	add	r16,r3,r2
   21d44:	e0bffc17 	ldw	r2,-16(fp)
   21d48:	100490fa 	slli	r2,r2,3
   21d4c:	e0fff917 	ldw	r3,-28(fp)
   21d50:	1885883a 	add	r2,r3,r2
   21d54:	10c00117 	ldw	r3,4(r2)
   21d58:	e0bfed17 	ldw	r2,-76(fp)
   21d5c:	100b883a 	mov	r5,r2
   21d60:	1809883a 	mov	r4,r3
   21d64:	0025b6c0 	call	25b6c <__addsf3>
   21d68:	1007883a 	mov	r3,r2
   21d6c:	1805883a 	mov	r2,r3
   21d70:	80800115 	stw	r2,4(r16)

         ++Fout;
   21d74:	e0bff917 	ldw	r2,-28(fp)
   21d78:	10800204 	addi	r2,r2,8
   21d7c:	e0bff915 	stw	r2,-28(fp)
     }while(--k);
   21d80:	e0bfe917 	ldw	r2,-92(fp)
   21d84:	10bfffc4 	addi	r2,r2,-1
   21d88:	e0bfe915 	stw	r2,-92(fp)
   21d8c:	e0bfe917 	ldw	r2,-92(fp)
   21d90:	103ea61e 	bne	r2,zero,2182c <kf_bfly3+0x80>
}
   21d94:	0001883a 	nop
   21d98:	e6fffd04 	addi	sp,fp,-12
   21d9c:	dfc00417 	ldw	ra,16(sp)
   21da0:	df000317 	ldw	fp,12(sp)
   21da4:	dc800217 	ldw	r18,8(sp)
   21da8:	dc400117 	ldw	r17,4(sp)
   21dac:	dc000017 	ldw	r16,0(sp)
   21db0:	dec00504 	addi	sp,sp,20
   21db4:	f800283a 	ret

00021db8 <kf_bfly5>:
        kiss_fft_cpx * Fout,
        const size_t fstride,
        const kiss_fft_cfg st,
        int m
        )
{
   21db8:	deffd304 	addi	sp,sp,-180
   21dbc:	dfc02c15 	stw	ra,176(sp)
   21dc0:	df002b15 	stw	fp,172(sp)
   21dc4:	dc002a15 	stw	r16,168(sp)
   21dc8:	df002b04 	addi	fp,sp,172
   21dcc:	e13ffb15 	stw	r4,-20(fp)
   21dd0:	e17ffc15 	stw	r5,-16(fp)
   21dd4:	e1bffd15 	stw	r6,-12(fp)
   21dd8:	e1fffe15 	stw	r7,-8(fp)
    kiss_fft_cpx *Fout0,*Fout1,*Fout2,*Fout3,*Fout4;
    int u;
    kiss_fft_cpx scratch[13];
    kiss_fft_cpx * twiddles = st->twiddles;
   21ddc:	e0bffd17 	ldw	r2,-12(fp)
   21de0:	10804204 	addi	r2,r2,264
   21de4:	e0bfdb15 	stw	r2,-148(fp)
    kiss_fft_cpx *tw;
    kiss_fft_cpx ya,yb;
    ya = twiddles[fstride*m];
   21de8:	e0fffe17 	ldw	r3,-8(fp)
   21dec:	e0bffc17 	ldw	r2,-16(fp)
   21df0:	1885383a 	mul	r2,r3,r2
   21df4:	100490fa 	slli	r2,r2,3
   21df8:	e0ffdb17 	ldw	r3,-148(fp)
   21dfc:	1885883a 	add	r2,r3,r2
   21e00:	10c00017 	ldw	r3,0(r2)
   21e04:	e0fff715 	stw	r3,-36(fp)
   21e08:	10800117 	ldw	r2,4(r2)
   21e0c:	e0bff815 	stw	r2,-32(fp)
    yb = twiddles[fstride*2*m];
   21e10:	e0fffe17 	ldw	r3,-8(fp)
   21e14:	e0bffc17 	ldw	r2,-16(fp)
   21e18:	1885383a 	mul	r2,r3,r2
   21e1c:	1004913a 	slli	r2,r2,4
   21e20:	e0ffdb17 	ldw	r3,-148(fp)
   21e24:	1885883a 	add	r2,r3,r2
   21e28:	10c00017 	ldw	r3,0(r2)
   21e2c:	e0fff915 	stw	r3,-28(fp)
   21e30:	10800117 	ldw	r2,4(r2)
   21e34:	e0bffa15 	stw	r2,-24(fp)

    Fout0=Fout;
   21e38:	e0bffb17 	ldw	r2,-20(fp)
   21e3c:	e0bfd515 	stw	r2,-172(fp)
    Fout1=Fout0+m;
   21e40:	e0bffe17 	ldw	r2,-8(fp)
   21e44:	100490fa 	slli	r2,r2,3
   21e48:	e0ffd517 	ldw	r3,-172(fp)
   21e4c:	1885883a 	add	r2,r3,r2
   21e50:	e0bfd615 	stw	r2,-168(fp)
    Fout2=Fout0+2*m;
   21e54:	e0bffe17 	ldw	r2,-8(fp)
   21e58:	1004913a 	slli	r2,r2,4
   21e5c:	1007883a 	mov	r3,r2
   21e60:	e0bfd517 	ldw	r2,-172(fp)
   21e64:	10c5883a 	add	r2,r2,r3
   21e68:	e0bfd715 	stw	r2,-164(fp)
    Fout3=Fout0+3*m;
   21e6c:	e0bffe17 	ldw	r2,-8(fp)
   21e70:	10800624 	muli	r2,r2,24
   21e74:	1007883a 	mov	r3,r2
   21e78:	e0bfd517 	ldw	r2,-172(fp)
   21e7c:	10c5883a 	add	r2,r2,r3
   21e80:	e0bfd815 	stw	r2,-160(fp)
    Fout4=Fout0+4*m;
   21e84:	e0bffe17 	ldw	r2,-8(fp)
   21e88:	1004917a 	slli	r2,r2,5
   21e8c:	1007883a 	mov	r3,r2
   21e90:	e0bfd517 	ldw	r2,-172(fp)
   21e94:	10c5883a 	add	r2,r2,r3
   21e98:	e0bfd915 	stw	r2,-156(fp)

    tw=st->twiddles;
   21e9c:	e0bffd17 	ldw	r2,-12(fp)
   21ea0:	10804204 	addi	r2,r2,264
   21ea4:	e0bfdc15 	stw	r2,-144(fp)
    for ( u=0; u<m; ++u ) {
   21ea8:	e03fda15 	stw	zero,-152(fp)
   21eac:	00027806 	br	22890 <kf_bfly5+0xad8>
        C_FIXDIV( *Fout0,5); C_FIXDIV( *Fout1,5); C_FIXDIV( *Fout2,5); C_FIXDIV( *Fout3,5); C_FIXDIV( *Fout4,5);
        scratch[0] = *Fout0;
   21eb0:	e0bfd517 	ldw	r2,-172(fp)
   21eb4:	10c00017 	ldw	r3,0(r2)
   21eb8:	e0ffdd15 	stw	r3,-140(fp)
   21ebc:	10800117 	ldw	r2,4(r2)
   21ec0:	e0bfde15 	stw	r2,-136(fp)

        C_MUL(scratch[1] ,*Fout1, tw[u*fstride]);
   21ec4:	e0bfd617 	ldw	r2,-168(fp)
   21ec8:	11000017 	ldw	r4,0(r2)
   21ecc:	e0ffda17 	ldw	r3,-152(fp)
   21ed0:	e0bffc17 	ldw	r2,-16(fp)
   21ed4:	1885383a 	mul	r2,r3,r2
   21ed8:	100490fa 	slli	r2,r2,3
   21edc:	e0ffdc17 	ldw	r3,-144(fp)
   21ee0:	1885883a 	add	r2,r3,r2
   21ee4:	10c00017 	ldw	r3,0(r2)
   21ee8:	180b883a 	mov	r5,r3
   21eec:	00264740 	call	26474 <__mulsf3>
   21ef0:	1007883a 	mov	r3,r2
   21ef4:	1821883a 	mov	r16,r3
   21ef8:	e0bfd617 	ldw	r2,-168(fp)
   21efc:	11000117 	ldw	r4,4(r2)
   21f00:	e0ffda17 	ldw	r3,-152(fp)
   21f04:	e0bffc17 	ldw	r2,-16(fp)
   21f08:	1885383a 	mul	r2,r3,r2
   21f0c:	100490fa 	slli	r2,r2,3
   21f10:	e0ffdc17 	ldw	r3,-144(fp)
   21f14:	1885883a 	add	r2,r3,r2
   21f18:	10c00117 	ldw	r3,4(r2)
   21f1c:	180b883a 	mov	r5,r3
   21f20:	00264740 	call	26474 <__mulsf3>
   21f24:	1007883a 	mov	r3,r2
   21f28:	1805883a 	mov	r2,r3
   21f2c:	100b883a 	mov	r5,r2
   21f30:	8009883a 	mov	r4,r16
   21f34:	00268700 	call	26870 <__subsf3>
   21f38:	1007883a 	mov	r3,r2
   21f3c:	1805883a 	mov	r2,r3
   21f40:	e0bfdf15 	stw	r2,-132(fp)
   21f44:	e0bfd617 	ldw	r2,-168(fp)
   21f48:	11000017 	ldw	r4,0(r2)
   21f4c:	e0ffda17 	ldw	r3,-152(fp)
   21f50:	e0bffc17 	ldw	r2,-16(fp)
   21f54:	1885383a 	mul	r2,r3,r2
   21f58:	100490fa 	slli	r2,r2,3
   21f5c:	e0ffdc17 	ldw	r3,-144(fp)
   21f60:	1885883a 	add	r2,r3,r2
   21f64:	10c00117 	ldw	r3,4(r2)
   21f68:	180b883a 	mov	r5,r3
   21f6c:	00264740 	call	26474 <__mulsf3>
   21f70:	1007883a 	mov	r3,r2
   21f74:	1821883a 	mov	r16,r3
   21f78:	e0bfd617 	ldw	r2,-168(fp)
   21f7c:	11000117 	ldw	r4,4(r2)
   21f80:	e0ffda17 	ldw	r3,-152(fp)
   21f84:	e0bffc17 	ldw	r2,-16(fp)
   21f88:	1885383a 	mul	r2,r3,r2
   21f8c:	100490fa 	slli	r2,r2,3
   21f90:	e0ffdc17 	ldw	r3,-144(fp)
   21f94:	1885883a 	add	r2,r3,r2
   21f98:	10c00017 	ldw	r3,0(r2)
   21f9c:	180b883a 	mov	r5,r3
   21fa0:	00264740 	call	26474 <__mulsf3>
   21fa4:	1007883a 	mov	r3,r2
   21fa8:	1805883a 	mov	r2,r3
   21fac:	100b883a 	mov	r5,r2
   21fb0:	8009883a 	mov	r4,r16
   21fb4:	0025b6c0 	call	25b6c <__addsf3>
   21fb8:	1007883a 	mov	r3,r2
   21fbc:	1805883a 	mov	r2,r3
   21fc0:	e0bfe015 	stw	r2,-128(fp)
        C_MUL(scratch[2] ,*Fout2, tw[2*u*fstride]);
   21fc4:	e0bfd717 	ldw	r2,-164(fp)
   21fc8:	11000017 	ldw	r4,0(r2)
   21fcc:	e0ffda17 	ldw	r3,-152(fp)
   21fd0:	e0bffc17 	ldw	r2,-16(fp)
   21fd4:	1885383a 	mul	r2,r3,r2
   21fd8:	1004913a 	slli	r2,r2,4
   21fdc:	e0ffdc17 	ldw	r3,-144(fp)
   21fe0:	1885883a 	add	r2,r3,r2
   21fe4:	10c00017 	ldw	r3,0(r2)
   21fe8:	180b883a 	mov	r5,r3
   21fec:	00264740 	call	26474 <__mulsf3>
   21ff0:	1007883a 	mov	r3,r2
   21ff4:	1821883a 	mov	r16,r3
   21ff8:	e0bfd717 	ldw	r2,-164(fp)
   21ffc:	11000117 	ldw	r4,4(r2)
   22000:	e0ffda17 	ldw	r3,-152(fp)
   22004:	e0bffc17 	ldw	r2,-16(fp)
   22008:	1885383a 	mul	r2,r3,r2
   2200c:	1004913a 	slli	r2,r2,4
   22010:	e0ffdc17 	ldw	r3,-144(fp)
   22014:	1885883a 	add	r2,r3,r2
   22018:	10c00117 	ldw	r3,4(r2)
   2201c:	180b883a 	mov	r5,r3
   22020:	00264740 	call	26474 <__mulsf3>
   22024:	1007883a 	mov	r3,r2
   22028:	1805883a 	mov	r2,r3
   2202c:	100b883a 	mov	r5,r2
   22030:	8009883a 	mov	r4,r16
   22034:	00268700 	call	26870 <__subsf3>
   22038:	1007883a 	mov	r3,r2
   2203c:	1805883a 	mov	r2,r3
   22040:	e0bfe115 	stw	r2,-124(fp)
   22044:	e0bfd717 	ldw	r2,-164(fp)
   22048:	11000017 	ldw	r4,0(r2)
   2204c:	e0ffda17 	ldw	r3,-152(fp)
   22050:	e0bffc17 	ldw	r2,-16(fp)
   22054:	1885383a 	mul	r2,r3,r2
   22058:	1004913a 	slli	r2,r2,4
   2205c:	e0ffdc17 	ldw	r3,-144(fp)
   22060:	1885883a 	add	r2,r3,r2
   22064:	10c00117 	ldw	r3,4(r2)
   22068:	180b883a 	mov	r5,r3
   2206c:	00264740 	call	26474 <__mulsf3>
   22070:	1007883a 	mov	r3,r2
   22074:	1821883a 	mov	r16,r3
   22078:	e0bfd717 	ldw	r2,-164(fp)
   2207c:	11000117 	ldw	r4,4(r2)
   22080:	e0ffda17 	ldw	r3,-152(fp)
   22084:	e0bffc17 	ldw	r2,-16(fp)
   22088:	1885383a 	mul	r2,r3,r2
   2208c:	1004913a 	slli	r2,r2,4
   22090:	e0ffdc17 	ldw	r3,-144(fp)
   22094:	1885883a 	add	r2,r3,r2
   22098:	10c00017 	ldw	r3,0(r2)
   2209c:	180b883a 	mov	r5,r3
   220a0:	00264740 	call	26474 <__mulsf3>
   220a4:	1007883a 	mov	r3,r2
   220a8:	1805883a 	mov	r2,r3
   220ac:	100b883a 	mov	r5,r2
   220b0:	8009883a 	mov	r4,r16
   220b4:	0025b6c0 	call	25b6c <__addsf3>
   220b8:	1007883a 	mov	r3,r2
   220bc:	1805883a 	mov	r2,r3
   220c0:	e0bfe215 	stw	r2,-120(fp)
        C_MUL(scratch[3] ,*Fout3, tw[3*u*fstride]);
   220c4:	e0bfd817 	ldw	r2,-160(fp)
   220c8:	11000017 	ldw	r4,0(r2)
   220cc:	e0ffda17 	ldw	r3,-152(fp)
   220d0:	e0bffc17 	ldw	r2,-16(fp)
   220d4:	1885383a 	mul	r2,r3,r2
   220d8:	10800624 	muli	r2,r2,24
   220dc:	e0ffdc17 	ldw	r3,-144(fp)
   220e0:	1885883a 	add	r2,r3,r2
   220e4:	10c00017 	ldw	r3,0(r2)
   220e8:	180b883a 	mov	r5,r3
   220ec:	00264740 	call	26474 <__mulsf3>
   220f0:	1007883a 	mov	r3,r2
   220f4:	1821883a 	mov	r16,r3
   220f8:	e0bfd817 	ldw	r2,-160(fp)
   220fc:	11000117 	ldw	r4,4(r2)
   22100:	e0ffda17 	ldw	r3,-152(fp)
   22104:	e0bffc17 	ldw	r2,-16(fp)
   22108:	1885383a 	mul	r2,r3,r2
   2210c:	10800624 	muli	r2,r2,24
   22110:	e0ffdc17 	ldw	r3,-144(fp)
   22114:	1885883a 	add	r2,r3,r2
   22118:	10c00117 	ldw	r3,4(r2)
   2211c:	180b883a 	mov	r5,r3
   22120:	00264740 	call	26474 <__mulsf3>
   22124:	1007883a 	mov	r3,r2
   22128:	1805883a 	mov	r2,r3
   2212c:	100b883a 	mov	r5,r2
   22130:	8009883a 	mov	r4,r16
   22134:	00268700 	call	26870 <__subsf3>
   22138:	1007883a 	mov	r3,r2
   2213c:	1805883a 	mov	r2,r3
   22140:	e0bfe315 	stw	r2,-116(fp)
   22144:	e0bfd817 	ldw	r2,-160(fp)
   22148:	11000017 	ldw	r4,0(r2)
   2214c:	e0ffda17 	ldw	r3,-152(fp)
   22150:	e0bffc17 	ldw	r2,-16(fp)
   22154:	1885383a 	mul	r2,r3,r2
   22158:	10800624 	muli	r2,r2,24
   2215c:	e0ffdc17 	ldw	r3,-144(fp)
   22160:	1885883a 	add	r2,r3,r2
   22164:	10c00117 	ldw	r3,4(r2)
   22168:	180b883a 	mov	r5,r3
   2216c:	00264740 	call	26474 <__mulsf3>
   22170:	1007883a 	mov	r3,r2
   22174:	1821883a 	mov	r16,r3
   22178:	e0bfd817 	ldw	r2,-160(fp)
   2217c:	11000117 	ldw	r4,4(r2)
   22180:	e0ffda17 	ldw	r3,-152(fp)
   22184:	e0bffc17 	ldw	r2,-16(fp)
   22188:	1885383a 	mul	r2,r3,r2
   2218c:	10800624 	muli	r2,r2,24
   22190:	e0ffdc17 	ldw	r3,-144(fp)
   22194:	1885883a 	add	r2,r3,r2
   22198:	10c00017 	ldw	r3,0(r2)
   2219c:	180b883a 	mov	r5,r3
   221a0:	00264740 	call	26474 <__mulsf3>
   221a4:	1007883a 	mov	r3,r2
   221a8:	1805883a 	mov	r2,r3
   221ac:	100b883a 	mov	r5,r2
   221b0:	8009883a 	mov	r4,r16
   221b4:	0025b6c0 	call	25b6c <__addsf3>
   221b8:	1007883a 	mov	r3,r2
   221bc:	1805883a 	mov	r2,r3
   221c0:	e0bfe415 	stw	r2,-112(fp)
        C_MUL(scratch[4] ,*Fout4, tw[4*u*fstride]);
   221c4:	e0bfd917 	ldw	r2,-156(fp)
   221c8:	11000017 	ldw	r4,0(r2)
   221cc:	e0ffda17 	ldw	r3,-152(fp)
   221d0:	e0bffc17 	ldw	r2,-16(fp)
   221d4:	1885383a 	mul	r2,r3,r2
   221d8:	1004917a 	slli	r2,r2,5
   221dc:	e0ffdc17 	ldw	r3,-144(fp)
   221e0:	1885883a 	add	r2,r3,r2
   221e4:	10c00017 	ldw	r3,0(r2)
   221e8:	180b883a 	mov	r5,r3
   221ec:	00264740 	call	26474 <__mulsf3>
   221f0:	1007883a 	mov	r3,r2
   221f4:	1821883a 	mov	r16,r3
   221f8:	e0bfd917 	ldw	r2,-156(fp)
   221fc:	11000117 	ldw	r4,4(r2)
   22200:	e0ffda17 	ldw	r3,-152(fp)
   22204:	e0bffc17 	ldw	r2,-16(fp)
   22208:	1885383a 	mul	r2,r3,r2
   2220c:	1004917a 	slli	r2,r2,5
   22210:	e0ffdc17 	ldw	r3,-144(fp)
   22214:	1885883a 	add	r2,r3,r2
   22218:	10c00117 	ldw	r3,4(r2)
   2221c:	180b883a 	mov	r5,r3
   22220:	00264740 	call	26474 <__mulsf3>
   22224:	1007883a 	mov	r3,r2
   22228:	1805883a 	mov	r2,r3
   2222c:	100b883a 	mov	r5,r2
   22230:	8009883a 	mov	r4,r16
   22234:	00268700 	call	26870 <__subsf3>
   22238:	1007883a 	mov	r3,r2
   2223c:	1805883a 	mov	r2,r3
   22240:	e0bfe515 	stw	r2,-108(fp)
   22244:	e0bfd917 	ldw	r2,-156(fp)
   22248:	11000017 	ldw	r4,0(r2)
   2224c:	e0ffda17 	ldw	r3,-152(fp)
   22250:	e0bffc17 	ldw	r2,-16(fp)
   22254:	1885383a 	mul	r2,r3,r2
   22258:	1004917a 	slli	r2,r2,5
   2225c:	e0ffdc17 	ldw	r3,-144(fp)
   22260:	1885883a 	add	r2,r3,r2
   22264:	10c00117 	ldw	r3,4(r2)
   22268:	180b883a 	mov	r5,r3
   2226c:	00264740 	call	26474 <__mulsf3>
   22270:	1007883a 	mov	r3,r2
   22274:	1821883a 	mov	r16,r3
   22278:	e0bfd917 	ldw	r2,-156(fp)
   2227c:	11000117 	ldw	r4,4(r2)
   22280:	e0ffda17 	ldw	r3,-152(fp)
   22284:	e0bffc17 	ldw	r2,-16(fp)
   22288:	1885383a 	mul	r2,r3,r2
   2228c:	1004917a 	slli	r2,r2,5
   22290:	e0ffdc17 	ldw	r3,-144(fp)
   22294:	1885883a 	add	r2,r3,r2
   22298:	10c00017 	ldw	r3,0(r2)
   2229c:	180b883a 	mov	r5,r3
   222a0:	00264740 	call	26474 <__mulsf3>
   222a4:	1007883a 	mov	r3,r2
   222a8:	1805883a 	mov	r2,r3
   222ac:	100b883a 	mov	r5,r2
   222b0:	8009883a 	mov	r4,r16
   222b4:	0025b6c0 	call	25b6c <__addsf3>
   222b8:	1007883a 	mov	r3,r2
   222bc:	1805883a 	mov	r2,r3
   222c0:	e0bfe615 	stw	r2,-104(fp)

        C_ADD( scratch[7],scratch[1],scratch[4]);
   222c4:	e0bfdf17 	ldw	r2,-132(fp)
   222c8:	e0ffe517 	ldw	r3,-108(fp)
   222cc:	180b883a 	mov	r5,r3
   222d0:	1009883a 	mov	r4,r2
   222d4:	0025b6c0 	call	25b6c <__addsf3>
   222d8:	1007883a 	mov	r3,r2
   222dc:	1805883a 	mov	r2,r3
   222e0:	e0bfeb15 	stw	r2,-84(fp)
   222e4:	e0bfe017 	ldw	r2,-128(fp)
   222e8:	e0ffe617 	ldw	r3,-104(fp)
   222ec:	180b883a 	mov	r5,r3
   222f0:	1009883a 	mov	r4,r2
   222f4:	0025b6c0 	call	25b6c <__addsf3>
   222f8:	1007883a 	mov	r3,r2
   222fc:	1805883a 	mov	r2,r3
   22300:	e0bfec15 	stw	r2,-80(fp)
        C_SUB( scratch[10],scratch[1],scratch[4]);
   22304:	e0bfdf17 	ldw	r2,-132(fp)
   22308:	e0ffe517 	ldw	r3,-108(fp)
   2230c:	180b883a 	mov	r5,r3
   22310:	1009883a 	mov	r4,r2
   22314:	00268700 	call	26870 <__subsf3>
   22318:	1007883a 	mov	r3,r2
   2231c:	1805883a 	mov	r2,r3
   22320:	e0bff115 	stw	r2,-60(fp)
   22324:	e0bfe017 	ldw	r2,-128(fp)
   22328:	e0ffe617 	ldw	r3,-104(fp)
   2232c:	180b883a 	mov	r5,r3
   22330:	1009883a 	mov	r4,r2
   22334:	00268700 	call	26870 <__subsf3>
   22338:	1007883a 	mov	r3,r2
   2233c:	1805883a 	mov	r2,r3
   22340:	e0bff215 	stw	r2,-56(fp)
        C_ADD( scratch[8],scratch[2],scratch[3]);
   22344:	e0bfe117 	ldw	r2,-124(fp)
   22348:	e0ffe317 	ldw	r3,-116(fp)
   2234c:	180b883a 	mov	r5,r3
   22350:	1009883a 	mov	r4,r2
   22354:	0025b6c0 	call	25b6c <__addsf3>
   22358:	1007883a 	mov	r3,r2
   2235c:	1805883a 	mov	r2,r3
   22360:	e0bfed15 	stw	r2,-76(fp)
   22364:	e0bfe217 	ldw	r2,-120(fp)
   22368:	e0ffe417 	ldw	r3,-112(fp)
   2236c:	180b883a 	mov	r5,r3
   22370:	1009883a 	mov	r4,r2
   22374:	0025b6c0 	call	25b6c <__addsf3>
   22378:	1007883a 	mov	r3,r2
   2237c:	1805883a 	mov	r2,r3
   22380:	e0bfee15 	stw	r2,-72(fp)
        C_SUB( scratch[9],scratch[2],scratch[3]);
   22384:	e0bfe117 	ldw	r2,-124(fp)
   22388:	e0ffe317 	ldw	r3,-116(fp)
   2238c:	180b883a 	mov	r5,r3
   22390:	1009883a 	mov	r4,r2
   22394:	00268700 	call	26870 <__subsf3>
   22398:	1007883a 	mov	r3,r2
   2239c:	1805883a 	mov	r2,r3
   223a0:	e0bfef15 	stw	r2,-68(fp)
   223a4:	e0bfe217 	ldw	r2,-120(fp)
   223a8:	e0ffe417 	ldw	r3,-112(fp)
   223ac:	180b883a 	mov	r5,r3
   223b0:	1009883a 	mov	r4,r2
   223b4:	00268700 	call	26870 <__subsf3>
   223b8:	1007883a 	mov	r3,r2
   223bc:	1805883a 	mov	r2,r3
   223c0:	e0bff015 	stw	r2,-64(fp)

        Fout0->r += scratch[7].r + scratch[8].r;
   223c4:	e0bfd517 	ldw	r2,-172(fp)
   223c8:	14000017 	ldw	r16,0(r2)
   223cc:	e0bfeb17 	ldw	r2,-84(fp)
   223d0:	e0ffed17 	ldw	r3,-76(fp)
   223d4:	180b883a 	mov	r5,r3
   223d8:	1009883a 	mov	r4,r2
   223dc:	0025b6c0 	call	25b6c <__addsf3>
   223e0:	1007883a 	mov	r3,r2
   223e4:	1805883a 	mov	r2,r3
   223e8:	100b883a 	mov	r5,r2
   223ec:	8009883a 	mov	r4,r16
   223f0:	0025b6c0 	call	25b6c <__addsf3>
   223f4:	1009883a 	mov	r4,r2
   223f8:	2007883a 	mov	r3,r4
   223fc:	e0bfd517 	ldw	r2,-172(fp)
   22400:	10c00015 	stw	r3,0(r2)
        Fout0->i += scratch[7].i + scratch[8].i;
   22404:	e0bfd517 	ldw	r2,-172(fp)
   22408:	14000117 	ldw	r16,4(r2)
   2240c:	e0bfec17 	ldw	r2,-80(fp)
   22410:	e0ffee17 	ldw	r3,-72(fp)
   22414:	180b883a 	mov	r5,r3
   22418:	1009883a 	mov	r4,r2
   2241c:	0025b6c0 	call	25b6c <__addsf3>
   22420:	1007883a 	mov	r3,r2
   22424:	1805883a 	mov	r2,r3
   22428:	100b883a 	mov	r5,r2
   2242c:	8009883a 	mov	r4,r16
   22430:	0025b6c0 	call	25b6c <__addsf3>
   22434:	1009883a 	mov	r4,r2
   22438:	2007883a 	mov	r3,r4
   2243c:	e0bfd517 	ldw	r2,-172(fp)
   22440:	10c00115 	stw	r3,4(r2)

        scratch[5].r = scratch[0].r + S_MUL(scratch[7].r,ya.r) + S_MUL(scratch[8].r,yb.r);
   22444:	e43fdd17 	ldw	r16,-140(fp)
   22448:	e0bfeb17 	ldw	r2,-84(fp)
   2244c:	e0fff717 	ldw	r3,-36(fp)
   22450:	180b883a 	mov	r5,r3
   22454:	1009883a 	mov	r4,r2
   22458:	00264740 	call	26474 <__mulsf3>
   2245c:	1007883a 	mov	r3,r2
   22460:	1805883a 	mov	r2,r3
   22464:	100b883a 	mov	r5,r2
   22468:	8009883a 	mov	r4,r16
   2246c:	0025b6c0 	call	25b6c <__addsf3>
   22470:	1007883a 	mov	r3,r2
   22474:	1821883a 	mov	r16,r3
   22478:	e0bfed17 	ldw	r2,-76(fp)
   2247c:	e0fff917 	ldw	r3,-28(fp)
   22480:	180b883a 	mov	r5,r3
   22484:	1009883a 	mov	r4,r2
   22488:	00264740 	call	26474 <__mulsf3>
   2248c:	1007883a 	mov	r3,r2
   22490:	1805883a 	mov	r2,r3
   22494:	100b883a 	mov	r5,r2
   22498:	8009883a 	mov	r4,r16
   2249c:	0025b6c0 	call	25b6c <__addsf3>
   224a0:	1007883a 	mov	r3,r2
   224a4:	1805883a 	mov	r2,r3
   224a8:	e0bfe715 	stw	r2,-100(fp)
        scratch[5].i = scratch[0].i + S_MUL(scratch[7].i,ya.r) + S_MUL(scratch[8].i,yb.r);
   224ac:	e43fde17 	ldw	r16,-136(fp)
   224b0:	e0bfec17 	ldw	r2,-80(fp)
   224b4:	e0fff717 	ldw	r3,-36(fp)
   224b8:	180b883a 	mov	r5,r3
   224bc:	1009883a 	mov	r4,r2
   224c0:	00264740 	call	26474 <__mulsf3>
   224c4:	1007883a 	mov	r3,r2
   224c8:	1805883a 	mov	r2,r3
   224cc:	100b883a 	mov	r5,r2
   224d0:	8009883a 	mov	r4,r16
   224d4:	0025b6c0 	call	25b6c <__addsf3>
   224d8:	1007883a 	mov	r3,r2
   224dc:	1821883a 	mov	r16,r3
   224e0:	e0bfee17 	ldw	r2,-72(fp)
   224e4:	e0fff917 	ldw	r3,-28(fp)
   224e8:	180b883a 	mov	r5,r3
   224ec:	1009883a 	mov	r4,r2
   224f0:	00264740 	call	26474 <__mulsf3>
   224f4:	1007883a 	mov	r3,r2
   224f8:	1805883a 	mov	r2,r3
   224fc:	100b883a 	mov	r5,r2
   22500:	8009883a 	mov	r4,r16
   22504:	0025b6c0 	call	25b6c <__addsf3>
   22508:	1007883a 	mov	r3,r2
   2250c:	1805883a 	mov	r2,r3
   22510:	e0bfe815 	stw	r2,-96(fp)

        scratch[6].r =  S_MUL(scratch[10].i,ya.i) + S_MUL(scratch[9].i,yb.i);
   22514:	e0bff217 	ldw	r2,-56(fp)
   22518:	e0fff817 	ldw	r3,-32(fp)
   2251c:	180b883a 	mov	r5,r3
   22520:	1009883a 	mov	r4,r2
   22524:	00264740 	call	26474 <__mulsf3>
   22528:	1007883a 	mov	r3,r2
   2252c:	1821883a 	mov	r16,r3
   22530:	e0bff017 	ldw	r2,-64(fp)
   22534:	e0fffa17 	ldw	r3,-24(fp)
   22538:	180b883a 	mov	r5,r3
   2253c:	1009883a 	mov	r4,r2
   22540:	00264740 	call	26474 <__mulsf3>
   22544:	1007883a 	mov	r3,r2
   22548:	1805883a 	mov	r2,r3
   2254c:	100b883a 	mov	r5,r2
   22550:	8009883a 	mov	r4,r16
   22554:	0025b6c0 	call	25b6c <__addsf3>
   22558:	1007883a 	mov	r3,r2
   2255c:	1805883a 	mov	r2,r3
   22560:	e0bfe915 	stw	r2,-92(fp)
        scratch[6].i = -S_MUL(scratch[10].r,ya.i) - S_MUL(scratch[9].r,yb.i);
   22564:	e0bff117 	ldw	r2,-60(fp)
   22568:	e0fff817 	ldw	r3,-32(fp)
   2256c:	180b883a 	mov	r5,r3
   22570:	1009883a 	mov	r4,r2
   22574:	00264740 	call	26474 <__mulsf3>
   22578:	1007883a 	mov	r3,r2
   2257c:	1805883a 	mov	r2,r3
   22580:	1420003c 	xorhi	r16,r2,32768
   22584:	e0bfef17 	ldw	r2,-68(fp)
   22588:	e0fffa17 	ldw	r3,-24(fp)
   2258c:	180b883a 	mov	r5,r3
   22590:	1009883a 	mov	r4,r2
   22594:	00264740 	call	26474 <__mulsf3>
   22598:	1007883a 	mov	r3,r2
   2259c:	1805883a 	mov	r2,r3
   225a0:	100b883a 	mov	r5,r2
   225a4:	8009883a 	mov	r4,r16
   225a8:	00268700 	call	26870 <__subsf3>
   225ac:	1007883a 	mov	r3,r2
   225b0:	1805883a 	mov	r2,r3
   225b4:	e0bfea15 	stw	r2,-88(fp)

        C_SUB(*Fout1,scratch[5],scratch[6]);
   225b8:	e0bfe717 	ldw	r2,-100(fp)
   225bc:	e0ffe917 	ldw	r3,-92(fp)
   225c0:	180b883a 	mov	r5,r3
   225c4:	1009883a 	mov	r4,r2
   225c8:	00268700 	call	26870 <__subsf3>
   225cc:	1009883a 	mov	r4,r2
   225d0:	2007883a 	mov	r3,r4
   225d4:	e0bfd617 	ldw	r2,-168(fp)
   225d8:	10c00015 	stw	r3,0(r2)
   225dc:	e0bfe817 	ldw	r2,-96(fp)
   225e0:	e0ffea17 	ldw	r3,-88(fp)
   225e4:	180b883a 	mov	r5,r3
   225e8:	1009883a 	mov	r4,r2
   225ec:	00268700 	call	26870 <__subsf3>
   225f0:	1009883a 	mov	r4,r2
   225f4:	2007883a 	mov	r3,r4
   225f8:	e0bfd617 	ldw	r2,-168(fp)
   225fc:	10c00115 	stw	r3,4(r2)
        C_ADD(*Fout4,scratch[5],scratch[6]);
   22600:	e0bfe717 	ldw	r2,-100(fp)
   22604:	e0ffe917 	ldw	r3,-92(fp)
   22608:	180b883a 	mov	r5,r3
   2260c:	1009883a 	mov	r4,r2
   22610:	0025b6c0 	call	25b6c <__addsf3>
   22614:	1009883a 	mov	r4,r2
   22618:	2007883a 	mov	r3,r4
   2261c:	e0bfd917 	ldw	r2,-156(fp)
   22620:	10c00015 	stw	r3,0(r2)
   22624:	e0bfe817 	ldw	r2,-96(fp)
   22628:	e0ffea17 	ldw	r3,-88(fp)
   2262c:	180b883a 	mov	r5,r3
   22630:	1009883a 	mov	r4,r2
   22634:	0025b6c0 	call	25b6c <__addsf3>
   22638:	1009883a 	mov	r4,r2
   2263c:	2007883a 	mov	r3,r4
   22640:	e0bfd917 	ldw	r2,-156(fp)
   22644:	10c00115 	stw	r3,4(r2)

        scratch[11].r = scratch[0].r + S_MUL(scratch[7].r,yb.r) + S_MUL(scratch[8].r,ya.r);
   22648:	e43fdd17 	ldw	r16,-140(fp)
   2264c:	e0bfeb17 	ldw	r2,-84(fp)
   22650:	e0fff917 	ldw	r3,-28(fp)
   22654:	180b883a 	mov	r5,r3
   22658:	1009883a 	mov	r4,r2
   2265c:	00264740 	call	26474 <__mulsf3>
   22660:	1007883a 	mov	r3,r2
   22664:	1805883a 	mov	r2,r3
   22668:	100b883a 	mov	r5,r2
   2266c:	8009883a 	mov	r4,r16
   22670:	0025b6c0 	call	25b6c <__addsf3>
   22674:	1007883a 	mov	r3,r2
   22678:	1821883a 	mov	r16,r3
   2267c:	e0bfed17 	ldw	r2,-76(fp)
   22680:	e0fff717 	ldw	r3,-36(fp)
   22684:	180b883a 	mov	r5,r3
   22688:	1009883a 	mov	r4,r2
   2268c:	00264740 	call	26474 <__mulsf3>
   22690:	1007883a 	mov	r3,r2
   22694:	1805883a 	mov	r2,r3
   22698:	100b883a 	mov	r5,r2
   2269c:	8009883a 	mov	r4,r16
   226a0:	0025b6c0 	call	25b6c <__addsf3>
   226a4:	1007883a 	mov	r3,r2
   226a8:	1805883a 	mov	r2,r3
   226ac:	e0bff315 	stw	r2,-52(fp)
        scratch[11].i = scratch[0].i + S_MUL(scratch[7].i,yb.r) + S_MUL(scratch[8].i,ya.r);
   226b0:	e43fde17 	ldw	r16,-136(fp)
   226b4:	e0bfec17 	ldw	r2,-80(fp)
   226b8:	e0fff917 	ldw	r3,-28(fp)
   226bc:	180b883a 	mov	r5,r3
   226c0:	1009883a 	mov	r4,r2
   226c4:	00264740 	call	26474 <__mulsf3>
   226c8:	1007883a 	mov	r3,r2
   226cc:	1805883a 	mov	r2,r3
   226d0:	100b883a 	mov	r5,r2
   226d4:	8009883a 	mov	r4,r16
   226d8:	0025b6c0 	call	25b6c <__addsf3>
   226dc:	1007883a 	mov	r3,r2
   226e0:	1821883a 	mov	r16,r3
   226e4:	e0bfee17 	ldw	r2,-72(fp)
   226e8:	e0fff717 	ldw	r3,-36(fp)
   226ec:	180b883a 	mov	r5,r3
   226f0:	1009883a 	mov	r4,r2
   226f4:	00264740 	call	26474 <__mulsf3>
   226f8:	1007883a 	mov	r3,r2
   226fc:	1805883a 	mov	r2,r3
   22700:	100b883a 	mov	r5,r2
   22704:	8009883a 	mov	r4,r16
   22708:	0025b6c0 	call	25b6c <__addsf3>
   2270c:	1007883a 	mov	r3,r2
   22710:	1805883a 	mov	r2,r3
   22714:	e0bff415 	stw	r2,-48(fp)
        scratch[12].r = - S_MUL(scratch[10].i,yb.i) + S_MUL(scratch[9].i,ya.i);
   22718:	e0bff017 	ldw	r2,-64(fp)
   2271c:	e0fff817 	ldw	r3,-32(fp)
   22720:	180b883a 	mov	r5,r3
   22724:	1009883a 	mov	r4,r2
   22728:	00264740 	call	26474 <__mulsf3>
   2272c:	1007883a 	mov	r3,r2
   22730:	1821883a 	mov	r16,r3
   22734:	e0bff217 	ldw	r2,-56(fp)
   22738:	e0fffa17 	ldw	r3,-24(fp)
   2273c:	180b883a 	mov	r5,r3
   22740:	1009883a 	mov	r4,r2
   22744:	00264740 	call	26474 <__mulsf3>
   22748:	1007883a 	mov	r3,r2
   2274c:	1805883a 	mov	r2,r3
   22750:	100b883a 	mov	r5,r2
   22754:	8009883a 	mov	r4,r16
   22758:	00268700 	call	26870 <__subsf3>
   2275c:	1007883a 	mov	r3,r2
   22760:	1805883a 	mov	r2,r3
   22764:	e0bff515 	stw	r2,-44(fp)
        scratch[12].i = S_MUL(scratch[10].r,yb.i) - S_MUL(scratch[9].r,ya.i);
   22768:	e0bff117 	ldw	r2,-60(fp)
   2276c:	e0fffa17 	ldw	r3,-24(fp)
   22770:	180b883a 	mov	r5,r3
   22774:	1009883a 	mov	r4,r2
   22778:	00264740 	call	26474 <__mulsf3>
   2277c:	1007883a 	mov	r3,r2
   22780:	1821883a 	mov	r16,r3
   22784:	e0bfef17 	ldw	r2,-68(fp)
   22788:	e0fff817 	ldw	r3,-32(fp)
   2278c:	180b883a 	mov	r5,r3
   22790:	1009883a 	mov	r4,r2
   22794:	00264740 	call	26474 <__mulsf3>
   22798:	1007883a 	mov	r3,r2
   2279c:	1805883a 	mov	r2,r3
   227a0:	100b883a 	mov	r5,r2
   227a4:	8009883a 	mov	r4,r16
   227a8:	00268700 	call	26870 <__subsf3>
   227ac:	1007883a 	mov	r3,r2
   227b0:	1805883a 	mov	r2,r3
   227b4:	e0bff615 	stw	r2,-40(fp)

        C_ADD(*Fout2,scratch[11],scratch[12]);
   227b8:	e0bff317 	ldw	r2,-52(fp)
   227bc:	e0fff517 	ldw	r3,-44(fp)
   227c0:	180b883a 	mov	r5,r3
   227c4:	1009883a 	mov	r4,r2
   227c8:	0025b6c0 	call	25b6c <__addsf3>
   227cc:	1009883a 	mov	r4,r2
   227d0:	2007883a 	mov	r3,r4
   227d4:	e0bfd717 	ldw	r2,-164(fp)
   227d8:	10c00015 	stw	r3,0(r2)
   227dc:	e0bff417 	ldw	r2,-48(fp)
   227e0:	e0fff617 	ldw	r3,-40(fp)
   227e4:	180b883a 	mov	r5,r3
   227e8:	1009883a 	mov	r4,r2
   227ec:	0025b6c0 	call	25b6c <__addsf3>
   227f0:	1009883a 	mov	r4,r2
   227f4:	2007883a 	mov	r3,r4
   227f8:	e0bfd717 	ldw	r2,-164(fp)
   227fc:	10c00115 	stw	r3,4(r2)
        C_SUB(*Fout3,scratch[11],scratch[12]);
   22800:	e0bff317 	ldw	r2,-52(fp)
   22804:	e0fff517 	ldw	r3,-44(fp)
   22808:	180b883a 	mov	r5,r3
   2280c:	1009883a 	mov	r4,r2
   22810:	00268700 	call	26870 <__subsf3>
   22814:	1009883a 	mov	r4,r2
   22818:	2007883a 	mov	r3,r4
   2281c:	e0bfd817 	ldw	r2,-160(fp)
   22820:	10c00015 	stw	r3,0(r2)
   22824:	e0bff417 	ldw	r2,-48(fp)
   22828:	e0fff617 	ldw	r3,-40(fp)
   2282c:	180b883a 	mov	r5,r3
   22830:	1009883a 	mov	r4,r2
   22834:	00268700 	call	26870 <__subsf3>
   22838:	1009883a 	mov	r4,r2
   2283c:	2007883a 	mov	r3,r4
   22840:	e0bfd817 	ldw	r2,-160(fp)
   22844:	10c00115 	stw	r3,4(r2)

        ++Fout0;++Fout1;++Fout2;++Fout3;++Fout4;
   22848:	e0bfd517 	ldw	r2,-172(fp)
   2284c:	10800204 	addi	r2,r2,8
   22850:	e0bfd515 	stw	r2,-172(fp)
   22854:	e0bfd617 	ldw	r2,-168(fp)
   22858:	10800204 	addi	r2,r2,8
   2285c:	e0bfd615 	stw	r2,-168(fp)
   22860:	e0bfd717 	ldw	r2,-164(fp)
   22864:	10800204 	addi	r2,r2,8
   22868:	e0bfd715 	stw	r2,-164(fp)
   2286c:	e0bfd817 	ldw	r2,-160(fp)
   22870:	10800204 	addi	r2,r2,8
   22874:	e0bfd815 	stw	r2,-160(fp)
   22878:	e0bfd917 	ldw	r2,-156(fp)
   2287c:	10800204 	addi	r2,r2,8
   22880:	e0bfd915 	stw	r2,-156(fp)
    Fout2=Fout0+2*m;
    Fout3=Fout0+3*m;
    Fout4=Fout0+4*m;

    tw=st->twiddles;
    for ( u=0; u<m; ++u ) {
   22884:	e0bfda17 	ldw	r2,-152(fp)
   22888:	10800044 	addi	r2,r2,1
   2288c:	e0bfda15 	stw	r2,-152(fp)
   22890:	e0ffda17 	ldw	r3,-152(fp)
   22894:	e0bffe17 	ldw	r2,-8(fp)
   22898:	18bd8516 	blt	r3,r2,21eb0 <kf_bfly5+0xf8>
        C_ADD(*Fout2,scratch[11],scratch[12]);
        C_SUB(*Fout3,scratch[11],scratch[12]);

        ++Fout0;++Fout1;++Fout2;++Fout3;++Fout4;
    }
}
   2289c:	0001883a 	nop
   228a0:	e6ffff04 	addi	sp,fp,-4
   228a4:	dfc00217 	ldw	ra,8(sp)
   228a8:	df000117 	ldw	fp,4(sp)
   228ac:	dc000017 	ldw	r16,0(sp)
   228b0:	dec00304 	addi	sp,sp,12
   228b4:	f800283a 	ret

000228b8 <kf_bfly_generic>:
        const size_t fstride,
        const kiss_fft_cfg st,
        int m,
        int p
        )
{
   228b8:	deffef04 	addi	sp,sp,-68
   228bc:	dfc01015 	stw	ra,64(sp)
   228c0:	df000f15 	stw	fp,60(sp)
   228c4:	dc000e15 	stw	r16,56(sp)
   228c8:	df000f04 	addi	fp,sp,60
   228cc:	e13ffb15 	stw	r4,-20(fp)
   228d0:	e17ffc15 	stw	r5,-16(fp)
   228d4:	e1bffd15 	stw	r6,-12(fp)
   228d8:	e1fffe15 	stw	r7,-8(fp)
    int u,k,q1,q;
    kiss_fft_cpx * twiddles = st->twiddles;
   228dc:	e0bffd17 	ldw	r2,-12(fp)
   228e0:	10804204 	addi	r2,r2,264
   228e4:	e0bff615 	stw	r2,-40(fp)
    kiss_fft_cpx t;
    int Norig = st->nfft;
   228e8:	e0bffd17 	ldw	r2,-12(fp)
   228ec:	10800017 	ldw	r2,0(r2)
   228f0:	e0bff715 	stw	r2,-36(fp)

    kiss_fft_cpx * scratch = (kiss_fft_cpx*)KISS_FFT_TMP_ALLOC(sizeof(kiss_fft_cpx)*p);
   228f4:	e0800217 	ldw	r2,8(fp)
   228f8:	100490fa 	slli	r2,r2,3
   228fc:	1009883a 	mov	r4,r2
   22900:	002af0c0 	call	2af0c <malloc>
   22904:	e0bff815 	stw	r2,-32(fp)

    for ( u=0; u<m; ++u ) {
   22908:	e03ff115 	stw	zero,-60(fp)
   2290c:	0000af06 	br	22bcc <kf_bfly_generic+0x314>
        k=u;
   22910:	e0bff117 	ldw	r2,-60(fp)
   22914:	e0bff215 	stw	r2,-56(fp)
        for ( q1=0 ; q1<p ; ++q1 ) {
   22918:	e03ff315 	stw	zero,-52(fp)
   2291c:	00001306 	br	2296c <kf_bfly_generic+0xb4>
            scratch[q1] = Fout[ k  ];
   22920:	e0bff317 	ldw	r2,-52(fp)
   22924:	100490fa 	slli	r2,r2,3
   22928:	e0fff817 	ldw	r3,-32(fp)
   2292c:	1885883a 	add	r2,r3,r2
   22930:	e0fff217 	ldw	r3,-56(fp)
   22934:	180690fa 	slli	r3,r3,3
   22938:	e13ffb17 	ldw	r4,-20(fp)
   2293c:	20c7883a 	add	r3,r4,r3
   22940:	19000017 	ldw	r4,0(r3)
   22944:	11000015 	stw	r4,0(r2)
   22948:	18c00117 	ldw	r3,4(r3)
   2294c:	10c00115 	stw	r3,4(r2)
            C_FIXDIV(scratch[q1],p);
            k += m;
   22950:	e0fff217 	ldw	r3,-56(fp)
   22954:	e0bffe17 	ldw	r2,-8(fp)
   22958:	1885883a 	add	r2,r3,r2
   2295c:	e0bff215 	stw	r2,-56(fp)

    kiss_fft_cpx * scratch = (kiss_fft_cpx*)KISS_FFT_TMP_ALLOC(sizeof(kiss_fft_cpx)*p);

    for ( u=0; u<m; ++u ) {
        k=u;
        for ( q1=0 ; q1<p ; ++q1 ) {
   22960:	e0bff317 	ldw	r2,-52(fp)
   22964:	10800044 	addi	r2,r2,1
   22968:	e0bff315 	stw	r2,-52(fp)
   2296c:	e0fff317 	ldw	r3,-52(fp)
   22970:	e0800217 	ldw	r2,8(fp)
   22974:	18bfea16 	blt	r3,r2,22920 <kf_bfly_generic+0x68>
            scratch[q1] = Fout[ k  ];
            C_FIXDIV(scratch[q1],p);
            k += m;
        }

        k=u;
   22978:	e0bff117 	ldw	r2,-60(fp)
   2297c:	e0bff215 	stw	r2,-56(fp)
        for ( q1=0 ; q1<p ; ++q1 ) {
   22980:	e03ff315 	stw	zero,-52(fp)
   22984:	00008b06 	br	22bb4 <kf_bfly_generic+0x2fc>
            int twidx=0;
   22988:	e03ff515 	stw	zero,-44(fp)
            Fout[ k ] = scratch[0];
   2298c:	e0bff217 	ldw	r2,-56(fp)
   22990:	100490fa 	slli	r2,r2,3
   22994:	e0fffb17 	ldw	r3,-20(fp)
   22998:	1885883a 	add	r2,r3,r2
   2299c:	e0fff817 	ldw	r3,-32(fp)
   229a0:	19000017 	ldw	r4,0(r3)
   229a4:	11000015 	stw	r4,0(r2)
   229a8:	18c00117 	ldw	r3,4(r3)
   229ac:	10c00115 	stw	r3,4(r2)
            for (q=1;q<p;++q ) {
   229b0:	00800044 	movi	r2,1
   229b4:	e0bff415 	stw	r2,-48(fp)
   229b8:	00007406 	br	22b8c <kf_bfly_generic+0x2d4>
                twidx += fstride * k;
   229bc:	e0fff217 	ldw	r3,-56(fp)
   229c0:	e0bffc17 	ldw	r2,-16(fp)
   229c4:	1887383a 	mul	r3,r3,r2
   229c8:	e0bff517 	ldw	r2,-44(fp)
   229cc:	1885883a 	add	r2,r3,r2
   229d0:	e0bff515 	stw	r2,-44(fp)
                if (twidx>=Norig) twidx-=Norig;
   229d4:	e0fff517 	ldw	r3,-44(fp)
   229d8:	e0bff717 	ldw	r2,-36(fp)
   229dc:	18800416 	blt	r3,r2,229f0 <kf_bfly_generic+0x138>
   229e0:	e0fff517 	ldw	r3,-44(fp)
   229e4:	e0bff717 	ldw	r2,-36(fp)
   229e8:	1885c83a 	sub	r2,r3,r2
   229ec:	e0bff515 	stw	r2,-44(fp)
                C_MUL(t,scratch[q] , twiddles[twidx] );
   229f0:	e0bff417 	ldw	r2,-48(fp)
   229f4:	100490fa 	slli	r2,r2,3
   229f8:	e0fff817 	ldw	r3,-32(fp)
   229fc:	1885883a 	add	r2,r3,r2
   22a00:	11000017 	ldw	r4,0(r2)
   22a04:	e0bff517 	ldw	r2,-44(fp)
   22a08:	100490fa 	slli	r2,r2,3
   22a0c:	e0fff617 	ldw	r3,-40(fp)
   22a10:	1885883a 	add	r2,r3,r2
   22a14:	10c00017 	ldw	r3,0(r2)
   22a18:	180b883a 	mov	r5,r3
   22a1c:	00264740 	call	26474 <__mulsf3>
   22a20:	1007883a 	mov	r3,r2
   22a24:	1821883a 	mov	r16,r3
   22a28:	e0bff417 	ldw	r2,-48(fp)
   22a2c:	100490fa 	slli	r2,r2,3
   22a30:	e0fff817 	ldw	r3,-32(fp)
   22a34:	1885883a 	add	r2,r3,r2
   22a38:	11000117 	ldw	r4,4(r2)
   22a3c:	e0bff517 	ldw	r2,-44(fp)
   22a40:	100490fa 	slli	r2,r2,3
   22a44:	e0fff617 	ldw	r3,-40(fp)
   22a48:	1885883a 	add	r2,r3,r2
   22a4c:	10c00117 	ldw	r3,4(r2)
   22a50:	180b883a 	mov	r5,r3
   22a54:	00264740 	call	26474 <__mulsf3>
   22a58:	1007883a 	mov	r3,r2
   22a5c:	1805883a 	mov	r2,r3
   22a60:	100b883a 	mov	r5,r2
   22a64:	8009883a 	mov	r4,r16
   22a68:	00268700 	call	26870 <__subsf3>
   22a6c:	1007883a 	mov	r3,r2
   22a70:	1805883a 	mov	r2,r3
   22a74:	e0bff915 	stw	r2,-28(fp)
   22a78:	e0bff417 	ldw	r2,-48(fp)
   22a7c:	100490fa 	slli	r2,r2,3
   22a80:	e0fff817 	ldw	r3,-32(fp)
   22a84:	1885883a 	add	r2,r3,r2
   22a88:	11000017 	ldw	r4,0(r2)
   22a8c:	e0bff517 	ldw	r2,-44(fp)
   22a90:	100490fa 	slli	r2,r2,3
   22a94:	e0fff617 	ldw	r3,-40(fp)
   22a98:	1885883a 	add	r2,r3,r2
   22a9c:	10c00117 	ldw	r3,4(r2)
   22aa0:	180b883a 	mov	r5,r3
   22aa4:	00264740 	call	26474 <__mulsf3>
   22aa8:	1007883a 	mov	r3,r2
   22aac:	1821883a 	mov	r16,r3
   22ab0:	e0bff417 	ldw	r2,-48(fp)
   22ab4:	100490fa 	slli	r2,r2,3
   22ab8:	e0fff817 	ldw	r3,-32(fp)
   22abc:	1885883a 	add	r2,r3,r2
   22ac0:	11000117 	ldw	r4,4(r2)
   22ac4:	e0bff517 	ldw	r2,-44(fp)
   22ac8:	100490fa 	slli	r2,r2,3
   22acc:	e0fff617 	ldw	r3,-40(fp)
   22ad0:	1885883a 	add	r2,r3,r2
   22ad4:	10c00017 	ldw	r3,0(r2)
   22ad8:	180b883a 	mov	r5,r3
   22adc:	00264740 	call	26474 <__mulsf3>
   22ae0:	1007883a 	mov	r3,r2
   22ae4:	1805883a 	mov	r2,r3
   22ae8:	100b883a 	mov	r5,r2
   22aec:	8009883a 	mov	r4,r16
   22af0:	0025b6c0 	call	25b6c <__addsf3>
   22af4:	1007883a 	mov	r3,r2
   22af8:	1805883a 	mov	r2,r3
   22afc:	e0bffa15 	stw	r2,-24(fp)
                C_ADDTO( Fout[ k ] ,t);
   22b00:	e0bff217 	ldw	r2,-56(fp)
   22b04:	100490fa 	slli	r2,r2,3
   22b08:	e0fffb17 	ldw	r3,-20(fp)
   22b0c:	18a1883a 	add	r16,r3,r2
   22b10:	e0bff217 	ldw	r2,-56(fp)
   22b14:	100490fa 	slli	r2,r2,3
   22b18:	e0fffb17 	ldw	r3,-20(fp)
   22b1c:	1885883a 	add	r2,r3,r2
   22b20:	10c00017 	ldw	r3,0(r2)
   22b24:	e0bff917 	ldw	r2,-28(fp)
   22b28:	100b883a 	mov	r5,r2
   22b2c:	1809883a 	mov	r4,r3
   22b30:	0025b6c0 	call	25b6c <__addsf3>
   22b34:	1007883a 	mov	r3,r2
   22b38:	1805883a 	mov	r2,r3
   22b3c:	80800015 	stw	r2,0(r16)
   22b40:	e0bff217 	ldw	r2,-56(fp)
   22b44:	100490fa 	slli	r2,r2,3
   22b48:	e0fffb17 	ldw	r3,-20(fp)
   22b4c:	18a1883a 	add	r16,r3,r2
   22b50:	e0bff217 	ldw	r2,-56(fp)
   22b54:	100490fa 	slli	r2,r2,3
   22b58:	e0fffb17 	ldw	r3,-20(fp)
   22b5c:	1885883a 	add	r2,r3,r2
   22b60:	10c00117 	ldw	r3,4(r2)
   22b64:	e0bffa17 	ldw	r2,-24(fp)
   22b68:	100b883a 	mov	r5,r2
   22b6c:	1809883a 	mov	r4,r3
   22b70:	0025b6c0 	call	25b6c <__addsf3>
   22b74:	1007883a 	mov	r3,r2
   22b78:	1805883a 	mov	r2,r3
   22b7c:	80800115 	stw	r2,4(r16)

        k=u;
        for ( q1=0 ; q1<p ; ++q1 ) {
            int twidx=0;
            Fout[ k ] = scratch[0];
            for (q=1;q<p;++q ) {
   22b80:	e0bff417 	ldw	r2,-48(fp)
   22b84:	10800044 	addi	r2,r2,1
   22b88:	e0bff415 	stw	r2,-48(fp)
   22b8c:	e0fff417 	ldw	r3,-48(fp)
   22b90:	e0800217 	ldw	r2,8(fp)
   22b94:	18bf8916 	blt	r3,r2,229bc <kf_bfly_generic+0x104>
                twidx += fstride * k;
                if (twidx>=Norig) twidx-=Norig;
                C_MUL(t,scratch[q] , twiddles[twidx] );
                C_ADDTO( Fout[ k ] ,t);
            }
            k += m;
   22b98:	e0fff217 	ldw	r3,-56(fp)
   22b9c:	e0bffe17 	ldw	r2,-8(fp)
   22ba0:	1885883a 	add	r2,r3,r2
   22ba4:	e0bff215 	stw	r2,-56(fp)
            C_FIXDIV(scratch[q1],p);
            k += m;
        }

        k=u;
        for ( q1=0 ; q1<p ; ++q1 ) {
   22ba8:	e0bff317 	ldw	r2,-52(fp)
   22bac:	10800044 	addi	r2,r2,1
   22bb0:	e0bff315 	stw	r2,-52(fp)
   22bb4:	e0fff317 	ldw	r3,-52(fp)
   22bb8:	e0800217 	ldw	r2,8(fp)
   22bbc:	18bf7216 	blt	r3,r2,22988 <kf_bfly_generic+0xd0>
    kiss_fft_cpx t;
    int Norig = st->nfft;

    kiss_fft_cpx * scratch = (kiss_fft_cpx*)KISS_FFT_TMP_ALLOC(sizeof(kiss_fft_cpx)*p);

    for ( u=0; u<m; ++u ) {
   22bc0:	e0bff117 	ldw	r2,-60(fp)
   22bc4:	10800044 	addi	r2,r2,1
   22bc8:	e0bff115 	stw	r2,-60(fp)
   22bcc:	e0fff117 	ldw	r3,-60(fp)
   22bd0:	e0bffe17 	ldw	r2,-8(fp)
   22bd4:	18bf4e16 	blt	r3,r2,22910 <kf_bfly_generic+0x58>
                C_ADDTO( Fout[ k ] ,t);
            }
            k += m;
        }
    }
    KISS_FFT_TMP_FREE(scratch);
   22bd8:	e13ff817 	ldw	r4,-32(fp)
   22bdc:	002af200 	call	2af20 <free>
}
   22be0:	0001883a 	nop
   22be4:	e6ffff04 	addi	sp,fp,-4
   22be8:	dfc00217 	ldw	ra,8(sp)
   22bec:	df000117 	ldw	fp,4(sp)
   22bf0:	dc000017 	ldw	r16,0(sp)
   22bf4:	dec00304 	addi	sp,sp,12
   22bf8:	f800283a 	ret

00022bfc <kf_work>:
        const size_t fstride,
        int in_stride,
        int * factors,
        const kiss_fft_cfg st
        )
{
   22bfc:	defff404 	addi	sp,sp,-48
   22c00:	dfc00b15 	stw	ra,44(sp)
   22c04:	df000a15 	stw	fp,40(sp)
   22c08:	df000a04 	addi	fp,sp,40
   22c0c:	e13ffc15 	stw	r4,-16(fp)
   22c10:	e17ffd15 	stw	r5,-12(fp)
   22c14:	e1bffe15 	stw	r6,-8(fp)
   22c18:	e1ffff15 	stw	r7,-4(fp)
    kiss_fft_cpx * Fout_beg=Fout;
   22c1c:	e0bffc17 	ldw	r2,-16(fp)
   22c20:	e0bff815 	stw	r2,-32(fp)
    const int p=*factors++; /* the radix  */
   22c24:	e0800217 	ldw	r2,8(fp)
   22c28:	10c00104 	addi	r3,r2,4
   22c2c:	e0c00215 	stw	r3,8(fp)
   22c30:	10800017 	ldw	r2,0(r2)
   22c34:	e0bff915 	stw	r2,-28(fp)
    const int m=*factors++; /* stage's fft length/p */
   22c38:	e0800217 	ldw	r2,8(fp)
   22c3c:	10c00104 	addi	r3,r2,4
   22c40:	e0c00215 	stw	r3,8(fp)
   22c44:	10800017 	ldw	r2,0(r2)
   22c48:	e0bffa15 	stw	r2,-24(fp)
    const kiss_fft_cpx * Fout_end = Fout + p*m;
   22c4c:	e0fff917 	ldw	r3,-28(fp)
   22c50:	e0bffa17 	ldw	r2,-24(fp)
   22c54:	1885383a 	mul	r2,r3,r2
   22c58:	100490fa 	slli	r2,r2,3
   22c5c:	e0fffc17 	ldw	r3,-16(fp)
   22c60:	1885883a 	add	r2,r3,r2
   22c64:	e0bffb15 	stw	r2,-20(fp)
        }
        return;
    }
#endif

    if (m==1) {
   22c68:	e0bffa17 	ldw	r2,-24(fp)
   22c6c:	10800058 	cmpnei	r2,r2,1
   22c70:	1000141e 	bne	r2,zero,22cc4 <kf_work+0xc8>
        do{
            *Fout = *f;
   22c74:	e0bffc17 	ldw	r2,-16(fp)
   22c78:	e0fffd17 	ldw	r3,-12(fp)
   22c7c:	19000017 	ldw	r4,0(r3)
   22c80:	11000015 	stw	r4,0(r2)
   22c84:	18c00117 	ldw	r3,4(r3)
   22c88:	10c00115 	stw	r3,4(r2)
            f += fstride*in_stride;
   22c8c:	e0ffff17 	ldw	r3,-4(fp)
   22c90:	e0bffe17 	ldw	r2,-8(fp)
   22c94:	1885383a 	mul	r2,r3,r2
   22c98:	100490fa 	slli	r2,r2,3
   22c9c:	e0fffd17 	ldw	r3,-12(fp)
   22ca0:	1885883a 	add	r2,r3,r2
   22ca4:	e0bffd15 	stw	r2,-12(fp)
        }while(++Fout != Fout_end );
   22ca8:	e0bffc17 	ldw	r2,-16(fp)
   22cac:	10800204 	addi	r2,r2,8
   22cb0:	e0bffc15 	stw	r2,-16(fp)
   22cb4:	e0fffc17 	ldw	r3,-16(fp)
   22cb8:	e0bffb17 	ldw	r2,-20(fp)
   22cbc:	18bfed1e 	bne	r3,r2,22c74 <kf_work+0x78>
   22cc0:	00001b06 	br	22d30 <kf_work+0x134>
        do{
            // recursive call:
            // DFT of size m*p performed by doing
            // p instances of smaller DFTs of size m, 
            // each one takes a decimated version of the input
            kf_work( Fout , f, fstride*p, in_stride, factors,st);
   22cc4:	e0fff917 	ldw	r3,-28(fp)
   22cc8:	e0bffe17 	ldw	r2,-8(fp)
   22ccc:	1887383a 	mul	r3,r3,r2
   22cd0:	e0800317 	ldw	r2,12(fp)
   22cd4:	d8800115 	stw	r2,4(sp)
   22cd8:	e0800217 	ldw	r2,8(fp)
   22cdc:	d8800015 	stw	r2,0(sp)
   22ce0:	e1ffff17 	ldw	r7,-4(fp)
   22ce4:	180d883a 	mov	r6,r3
   22ce8:	e17ffd17 	ldw	r5,-12(fp)
   22cec:	e13ffc17 	ldw	r4,-16(fp)
   22cf0:	0022bfc0 	call	22bfc <kf_work>
            f += fstride*in_stride;
   22cf4:	e0ffff17 	ldw	r3,-4(fp)
   22cf8:	e0bffe17 	ldw	r2,-8(fp)
   22cfc:	1885383a 	mul	r2,r3,r2
   22d00:	100490fa 	slli	r2,r2,3
   22d04:	e0fffd17 	ldw	r3,-12(fp)
   22d08:	1885883a 	add	r2,r3,r2
   22d0c:	e0bffd15 	stw	r2,-12(fp)
        }while( (Fout += m) != Fout_end );
   22d10:	e0bffa17 	ldw	r2,-24(fp)
   22d14:	100490fa 	slli	r2,r2,3
   22d18:	e0fffc17 	ldw	r3,-16(fp)
   22d1c:	1885883a 	add	r2,r3,r2
   22d20:	e0bffc15 	stw	r2,-16(fp)
   22d24:	e0fffc17 	ldw	r3,-16(fp)
   22d28:	e0bffb17 	ldw	r2,-20(fp)
   22d2c:	18bfe51e 	bne	r3,r2,22cc4 <kf_work+0xc8>
    }

    Fout=Fout_beg;
   22d30:	e0bff817 	ldw	r2,-32(fp)
   22d34:	e0bffc15 	stw	r2,-16(fp)

    // recombine the p smaller DFTs 
    switch (p) {
   22d38:	e0bff917 	ldw	r2,-28(fp)
   22d3c:	10c000e0 	cmpeqi	r3,r2,3
   22d40:	1800101e 	bne	r3,zero,22d84 <kf_work+0x188>
   22d44:	10c00108 	cmpgei	r3,r2,4
   22d48:	1800031e 	bne	r3,zero,22d58 <kf_work+0x15c>
   22d4c:	108000a0 	cmpeqi	r2,r2,2
   22d50:	1000061e 	bne	r2,zero,22d6c <kf_work+0x170>
   22d54:	00001f06 	br	22dd4 <kf_work+0x1d8>
   22d58:	10c00120 	cmpeqi	r3,r2,4
   22d5c:	1800101e 	bne	r3,zero,22da0 <kf_work+0x1a4>
   22d60:	10800160 	cmpeqi	r2,r2,5
   22d64:	1000151e 	bne	r2,zero,22dbc <kf_work+0x1c0>
   22d68:	00001a06 	br	22dd4 <kf_work+0x1d8>
        case 2: kf_bfly2(Fout,fstride,st,m); break;
   22d6c:	e1fffa17 	ldw	r7,-24(fp)
   22d70:	e1800317 	ldw	r6,12(fp)
   22d74:	e17ffe17 	ldw	r5,-8(fp)
   22d78:	e13ffc17 	ldw	r4,-16(fp)
   22d7c:	0020e9c0 	call	20e9c <kf_bfly2>
   22d80:	00001c06 	br	22df4 <kf_work+0x1f8>
        case 3: kf_bfly3(Fout,fstride,st,m); break; 
   22d84:	e0bffa17 	ldw	r2,-24(fp)
   22d88:	100f883a 	mov	r7,r2
   22d8c:	e1800317 	ldw	r6,12(fp)
   22d90:	e17ffe17 	ldw	r5,-8(fp)
   22d94:	e13ffc17 	ldw	r4,-16(fp)
   22d98:	00217ac0 	call	217ac <kf_bfly3>
   22d9c:	00001506 	br	22df4 <kf_work+0x1f8>
        case 4: kf_bfly4(Fout,fstride,st,m); break;
   22da0:	e0bffa17 	ldw	r2,-24(fp)
   22da4:	100f883a 	mov	r7,r2
   22da8:	e1800317 	ldw	r6,12(fp)
   22dac:	e17ffe17 	ldw	r5,-8(fp)
   22db0:	e13ffc17 	ldw	r4,-16(fp)
   22db4:	002109c0 	call	2109c <kf_bfly4>
   22db8:	00000e06 	br	22df4 <kf_work+0x1f8>
        case 5: kf_bfly5(Fout,fstride,st,m); break; 
   22dbc:	e1fffa17 	ldw	r7,-24(fp)
   22dc0:	e1800317 	ldw	r6,12(fp)
   22dc4:	e17ffe17 	ldw	r5,-8(fp)
   22dc8:	e13ffc17 	ldw	r4,-16(fp)
   22dcc:	0021db80 	call	21db8 <kf_bfly5>
   22dd0:	00000806 	br	22df4 <kf_work+0x1f8>
        default: kf_bfly_generic(Fout,fstride,st,m,p); break;
   22dd4:	e0bff917 	ldw	r2,-28(fp)
   22dd8:	d8800015 	stw	r2,0(sp)
   22ddc:	e1fffa17 	ldw	r7,-24(fp)
   22de0:	e1800317 	ldw	r6,12(fp)
   22de4:	e17ffe17 	ldw	r5,-8(fp)
   22de8:	e13ffc17 	ldw	r4,-16(fp)
   22dec:	00228b80 	call	228b8 <kf_bfly_generic>
   22df0:	0001883a 	nop
    }
}
   22df4:	0001883a 	nop
   22df8:	e037883a 	mov	sp,fp
   22dfc:	dfc00117 	ldw	ra,4(sp)
   22e00:	df000017 	ldw	fp,0(sp)
   22e04:	dec00204 	addi	sp,sp,8
   22e08:	f800283a 	ret

00022e0c <kf_factor>:
    where 
    p[i] * m[i] = m[i-1]
    m0 = n                  */
static 
void kf_factor(int n,int * facbuf)
{
   22e0c:	defff904 	addi	sp,sp,-28
   22e10:	dfc00615 	stw	ra,24(sp)
   22e14:	df000515 	stw	fp,20(sp)
   22e18:	df000504 	addi	fp,sp,20
   22e1c:	e13ffe15 	stw	r4,-8(fp)
   22e20:	e17fff15 	stw	r5,-4(fp)
    int p=4;
   22e24:	00800104 	movi	r2,4
   22e28:	e0bffb15 	stw	r2,-20(fp)
    double floor_sqrt;
    floor_sqrt = floor( sqrt((double)n) );
   22e2c:	e13ffe17 	ldw	r4,-8(fp)
   22e30:	00293680 	call	29368 <__floatsidf>
   22e34:	100b883a 	mov	r5,r2
   22e38:	180d883a 	mov	r6,r3
   22e3c:	2809883a 	mov	r4,r5
   22e40:	300b883a 	mov	r5,r6
   22e44:	002374c0 	call	2374c <sqrt>
   22e48:	100b883a 	mov	r5,r2
   22e4c:	180d883a 	mov	r6,r3
   22e50:	2809883a 	mov	r4,r5
   22e54:	300b883a 	mov	r5,r6
   22e58:	00234700 	call	23470 <floor>
   22e5c:	e0bffc15 	stw	r2,-16(fp)
   22e60:	e0fffd15 	stw	r3,-12(fp)

    /*factor out powers of 4, powers of 2, then any remaining primes */
    do {
        while (n % p) {
   22e64:	00001c06 	br	22ed8 <kf_factor+0xcc>
            switch (p) {
   22e68:	e0bffb17 	ldw	r2,-20(fp)
   22e6c:	10c000a0 	cmpeqi	r3,r2,2
   22e70:	1800051e 	bne	r3,zero,22e88 <kf_factor+0x7c>
   22e74:	10800120 	cmpeqi	r2,r2,4
   22e78:	10000626 	beq	r2,zero,22e94 <kf_factor+0x88>
                case 4: p = 2; break;
   22e7c:	00800084 	movi	r2,2
   22e80:	e0bffb15 	stw	r2,-20(fp)
   22e84:	00000706 	br	22ea4 <kf_factor+0x98>
                case 2: p = 3; break;
   22e88:	008000c4 	movi	r2,3
   22e8c:	e0bffb15 	stw	r2,-20(fp)
   22e90:	00000406 	br	22ea4 <kf_factor+0x98>
                default: p += 2; break;
   22e94:	e0bffb17 	ldw	r2,-20(fp)
   22e98:	10800084 	addi	r2,r2,2
   22e9c:	e0bffb15 	stw	r2,-20(fp)
   22ea0:	0001883a 	nop
            }
            if (p > floor_sqrt)
   22ea4:	e13ffb17 	ldw	r4,-20(fp)
   22ea8:	00293680 	call	29368 <__floatsidf>
   22eac:	1011883a 	mov	r8,r2
   22eb0:	1813883a 	mov	r9,r3
   22eb4:	e1bffc17 	ldw	r6,-16(fp)
   22eb8:	e1fffd17 	ldw	r7,-12(fp)
   22ebc:	4009883a 	mov	r4,r8
   22ec0:	480b883a 	mov	r5,r9
   22ec4:	00281040 	call	28104 <__gedf2>
   22ec8:	00800116 	blt	zero,r2,22ed0 <kf_factor+0xc4>
   22ecc:	00000206 	br	22ed8 <kf_factor+0xcc>
                p = n;          /* no more factors, skip to end */
   22ed0:	e0bffe17 	ldw	r2,-8(fp)
   22ed4:	e0bffb15 	stw	r2,-20(fp)
    double floor_sqrt;
    floor_sqrt = floor( sqrt((double)n) );

    /*factor out powers of 4, powers of 2, then any remaining primes */
    do {
        while (n % p) {
   22ed8:	e0bffe17 	ldw	r2,-8(fp)
   22edc:	e17ffb17 	ldw	r5,-20(fp)
   22ee0:	1009883a 	mov	r4,r2
   22ee4:	0025a3c0 	call	25a3c <__modsi3>
   22ee8:	103fdf1e 	bne	r2,zero,22e68 <kf_factor+0x5c>
                default: p += 2; break;
            }
            if (p > floor_sqrt)
                p = n;          /* no more factors, skip to end */
        }
        n /= p;
   22eec:	e17ffb17 	ldw	r5,-20(fp)
   22ef0:	e13ffe17 	ldw	r4,-8(fp)
   22ef4:	00259b80 	call	259b8 <__divsi3>
   22ef8:	e0bffe15 	stw	r2,-8(fp)
        *facbuf++ = p;
   22efc:	e0bfff17 	ldw	r2,-4(fp)
   22f00:	10c00104 	addi	r3,r2,4
   22f04:	e0ffff15 	stw	r3,-4(fp)
   22f08:	e0fffb17 	ldw	r3,-20(fp)
   22f0c:	10c00015 	stw	r3,0(r2)
        *facbuf++ = n;
   22f10:	e0bfff17 	ldw	r2,-4(fp)
   22f14:	10c00104 	addi	r3,r2,4
   22f18:	e0ffff15 	stw	r3,-4(fp)
   22f1c:	e0fffe17 	ldw	r3,-8(fp)
   22f20:	10c00015 	stw	r3,0(r2)
    } while (n > 1);
   22f24:	e0bffe17 	ldw	r2,-8(fp)
   22f28:	10800088 	cmpgei	r2,r2,2
   22f2c:	103fea1e 	bne	r2,zero,22ed8 <kf_factor+0xcc>
}
   22f30:	0001883a 	nop
   22f34:	e037883a 	mov	sp,fp
   22f38:	dfc00117 	ldw	ra,4(sp)
   22f3c:	df000017 	ldw	fp,0(sp)
   22f40:	dec00204 	addi	sp,sp,8
   22f44:	f800283a 	ret

00022f48 <kiss_fft_alloc>:
 *
 * The return value is a contiguous block of memory, allocated with malloc.  As such,
 * It can be freed with free(), rather than a kiss_fft-specific function.
 * */
kiss_fft_cfg kiss_fft_alloc(int nfft,int inverse_fft,void * mem,size_t * lenmem )
{
   22f48:	defff104 	addi	sp,sp,-60
   22f4c:	dfc00e15 	stw	ra,56(sp)
   22f50:	df000d15 	stw	fp,52(sp)
   22f54:	dc400c15 	stw	r17,48(sp)
   22f58:	dc000b15 	stw	r16,44(sp)
   22f5c:	df000d04 	addi	fp,sp,52
   22f60:	e13ffa15 	stw	r4,-24(fp)
   22f64:	e17ffb15 	stw	r5,-20(fp)
   22f68:	e1bffc15 	stw	r6,-16(fp)
   22f6c:	e1fffd15 	stw	r7,-12(fp)
    KISS_FFT_ALIGN_CHECK(mem)

    kiss_fft_cfg st=NULL;
   22f70:	e03ff315 	stw	zero,-52(fp)
    size_t memneeded = KISS_FFT_ALIGN_SIZE_UP(sizeof(struct kiss_fft_state)
   22f74:	e0bffa17 	ldw	r2,-24(fp)
   22f78:	10800844 	addi	r2,r2,33
   22f7c:	100490fa 	slli	r2,r2,3
   22f80:	e0bff715 	stw	r2,-36(fp)
        + sizeof(kiss_fft_cpx)*(nfft-1)); /* twiddle factors*/

    if ( lenmem==NULL ) {
   22f84:	e0bffd17 	ldw	r2,-12(fp)
   22f88:	1000041e 	bne	r2,zero,22f9c <kiss_fft_alloc+0x54>
        st = ( kiss_fft_cfg)KISS_FFT_MALLOC( memneeded );
   22f8c:	e13ff717 	ldw	r4,-36(fp)
   22f90:	002af0c0 	call	2af0c <malloc>
   22f94:	e0bff315 	stw	r2,-52(fp)
   22f98:	00000b06 	br	22fc8 <kiss_fft_alloc+0x80>
    }else{
        if (mem != NULL && *lenmem >= memneeded)
   22f9c:	e0bffc17 	ldw	r2,-16(fp)
   22fa0:	10000626 	beq	r2,zero,22fbc <kiss_fft_alloc+0x74>
   22fa4:	e0bffd17 	ldw	r2,-12(fp)
   22fa8:	10c00017 	ldw	r3,0(r2)
   22fac:	e0bff717 	ldw	r2,-36(fp)
   22fb0:	18800236 	bltu	r3,r2,22fbc <kiss_fft_alloc+0x74>
            st = (kiss_fft_cfg)mem;
   22fb4:	e0bffc17 	ldw	r2,-16(fp)
   22fb8:	e0bff315 	stw	r2,-52(fp)
        *lenmem = memneeded;
   22fbc:	e0bffd17 	ldw	r2,-12(fp)
   22fc0:	e0fff717 	ldw	r3,-36(fp)
   22fc4:	10c00015 	stw	r3,0(r2)
    }
    if (st) {
   22fc8:	e0bff317 	ldw	r2,-52(fp)
   22fcc:	10006226 	beq	r2,zero,23158 <kiss_fft_alloc+0x210>
        int i;
        st->nfft=nfft;
   22fd0:	e0bff317 	ldw	r2,-52(fp)
   22fd4:	e0fffa17 	ldw	r3,-24(fp)
   22fd8:	10c00015 	stw	r3,0(r2)
        st->inverse = inverse_fft;
   22fdc:	e0bff317 	ldw	r2,-52(fp)
   22fe0:	e0fffb17 	ldw	r3,-20(fp)
   22fe4:	10c00115 	stw	r3,4(r2)

        for (i=0;i<nfft;++i) {
   22fe8:	e03ff415 	stw	zero,-48(fp)
   22fec:	00005206 	br	23138 <kiss_fft_alloc+0x1f0>
            const double pi=3.141592653589793238462643383279502884197169399375105820974944;
   22ff0:	00951134 	movhi	r2,21572
   22ff4:	108b4604 	addi	r2,r2,11544
   22ff8:	e0bff815 	stw	r2,-32(fp)
   22ffc:	00900274 	movhi	r2,16393
   23000:	10887ec4 	addi	r2,r2,8699
   23004:	e0bff915 	stw	r2,-28(fp)
            double phase = -2*pi*i / nfft;
   23008:	000d883a 	mov	r6,zero
   2300c:	01f00034 	movhi	r7,49152
   23010:	e13ff817 	ldw	r4,-32(fp)
   23014:	e17ff917 	ldw	r5,-28(fp)
   23018:	00282d40 	call	282d4 <__muldf3>
   2301c:	1009883a 	mov	r4,r2
   23020:	180b883a 	mov	r5,r3
   23024:	2021883a 	mov	r16,r4
   23028:	2823883a 	mov	r17,r5
   2302c:	e13ff417 	ldw	r4,-48(fp)
   23030:	00293680 	call	29368 <__floatsidf>
   23034:	1009883a 	mov	r4,r2
   23038:	180b883a 	mov	r5,r3
   2303c:	200d883a 	mov	r6,r4
   23040:	280f883a 	mov	r7,r5
   23044:	8009883a 	mov	r4,r16
   23048:	880b883a 	mov	r5,r17
   2304c:	00282d40 	call	282d4 <__muldf3>
   23050:	1009883a 	mov	r4,r2
   23054:	180b883a 	mov	r5,r3
   23058:	2021883a 	mov	r16,r4
   2305c:	2823883a 	mov	r17,r5
   23060:	e13ffa17 	ldw	r4,-24(fp)
   23064:	00293680 	call	29368 <__floatsidf>
   23068:	1009883a 	mov	r4,r2
   2306c:	180b883a 	mov	r5,r3
   23070:	200d883a 	mov	r6,r4
   23074:	280f883a 	mov	r7,r5
   23078:	8009883a 	mov	r4,r16
   2307c:	880b883a 	mov	r5,r17
   23080:	00277940 	call	27794 <__divdf3>
   23084:	1009883a 	mov	r4,r2
   23088:	180b883a 	mov	r5,r3
   2308c:	e13ff515 	stw	r4,-44(fp)
   23090:	e17ff615 	stw	r5,-40(fp)
            if (st->inverse)
   23094:	e0bff317 	ldw	r2,-52(fp)
   23098:	10800117 	ldw	r2,4(r2)
   2309c:	10000526 	beq	r2,zero,230b4 <kiss_fft_alloc+0x16c>
                phase *= -1;
   230a0:	e0bff517 	ldw	r2,-44(fp)
   230a4:	e0bff515 	stw	r2,-44(fp)
   230a8:	e0bff617 	ldw	r2,-40(fp)
   230ac:	10a0003c 	xorhi	r2,r2,32768
   230b0:	e0bff615 	stw	r2,-40(fp)
            kf_cexp(st->twiddles+i, phase );
   230b4:	e0bff317 	ldw	r2,-52(fp)
   230b8:	10c04204 	addi	r3,r2,264
   230bc:	e0bff417 	ldw	r2,-48(fp)
   230c0:	100490fa 	slli	r2,r2,3
   230c4:	18a1883a 	add	r16,r3,r2
   230c8:	e13ff517 	ldw	r4,-44(fp)
   230cc:	e17ff617 	ldw	r5,-40(fp)
   230d0:	00233840 	call	23384 <cos>
   230d4:	100b883a 	mov	r5,r2
   230d8:	180d883a 	mov	r6,r3
   230dc:	2809883a 	mov	r4,r5
   230e0:	300b883a 	mov	r5,r6
   230e4:	00295fc0 	call	295fc <__truncdfsf2>
   230e8:	1007883a 	mov	r3,r2
   230ec:	80c00015 	stw	r3,0(r16)
   230f0:	e0bff317 	ldw	r2,-52(fp)
   230f4:	10c04204 	addi	r3,r2,264
   230f8:	e0bff417 	ldw	r2,-48(fp)
   230fc:	100490fa 	slli	r2,r2,3
   23100:	18a1883a 	add	r16,r3,r2
   23104:	e13ff517 	ldw	r4,-44(fp)
   23108:	e17ff617 	ldw	r5,-40(fp)
   2310c:	002365c0 	call	2365c <sin>
   23110:	100b883a 	mov	r5,r2
   23114:	180d883a 	mov	r6,r3
   23118:	2809883a 	mov	r4,r5
   2311c:	300b883a 	mov	r5,r6
   23120:	00295fc0 	call	295fc <__truncdfsf2>
   23124:	1007883a 	mov	r3,r2
   23128:	80c00115 	stw	r3,4(r16)
    if (st) {
        int i;
        st->nfft=nfft;
        st->inverse = inverse_fft;

        for (i=0;i<nfft;++i) {
   2312c:	e0bff417 	ldw	r2,-48(fp)
   23130:	10800044 	addi	r2,r2,1
   23134:	e0bff415 	stw	r2,-48(fp)
   23138:	e0fff417 	ldw	r3,-48(fp)
   2313c:	e0bffa17 	ldw	r2,-24(fp)
   23140:	18bfab16 	blt	r3,r2,22ff0 <kiss_fft_alloc+0xa8>
            if (st->inverse)
                phase *= -1;
            kf_cexp(st->twiddles+i, phase );
        }

        kf_factor(nfft,st->factors);
   23144:	e0bff317 	ldw	r2,-52(fp)
   23148:	10800204 	addi	r2,r2,8
   2314c:	100b883a 	mov	r5,r2
   23150:	e13ffa17 	ldw	r4,-24(fp)
   23154:	0022e0c0 	call	22e0c <kf_factor>
    }
    return st;
   23158:	e0bff317 	ldw	r2,-52(fp)
}
   2315c:	e6fffe04 	addi	sp,fp,-8
   23160:	dfc00317 	ldw	ra,12(sp)
   23164:	df000217 	ldw	fp,8(sp)
   23168:	dc400117 	ldw	r17,4(sp)
   2316c:	dc000017 	ldw	r16,0(sp)
   23170:	dec00404 	addi	sp,sp,16
   23174:	f800283a 	ret

00023178 <kiss_fft_stride>:


void kiss_fft_stride(kiss_fft_cfg st,const kiss_fft_cpx *fin,kiss_fft_cpx *fout,int in_stride)
{
   23178:	defff704 	addi	sp,sp,-36
   2317c:	dfc00815 	stw	ra,32(sp)
   23180:	df000715 	stw	fp,28(sp)
   23184:	df000704 	addi	fp,sp,28
   23188:	e13ffc15 	stw	r4,-16(fp)
   2318c:	e17ffd15 	stw	r5,-12(fp)
   23190:	e1bffe15 	stw	r6,-8(fp)
   23194:	e1ffff15 	stw	r7,-4(fp)
    if (fin == fout) {
   23198:	e0fffd17 	ldw	r3,-12(fp)
   2319c:	e0bffe17 	ldw	r2,-8(fp)
   231a0:	18801a1e 	bne	r3,r2,2320c <kiss_fft_stride+0x94>
        //NOTE: this is not really an in-place FFT algorithm.
        //It just performs an out-of-place FFT into a temp buffer
        kiss_fft_cpx * tmpbuf = (kiss_fft_cpx*)KISS_FFT_TMP_ALLOC( sizeof(kiss_fft_cpx)*st->nfft);
   231a4:	e0bffc17 	ldw	r2,-16(fp)
   231a8:	10800017 	ldw	r2,0(r2)
   231ac:	100490fa 	slli	r2,r2,3
   231b0:	1009883a 	mov	r4,r2
   231b4:	002af0c0 	call	2af0c <malloc>
   231b8:	e0bffb15 	stw	r2,-20(fp)
        kf_work(tmpbuf,fin,1,in_stride, st->factors,st);
   231bc:	e0bffc17 	ldw	r2,-16(fp)
   231c0:	10800204 	addi	r2,r2,8
   231c4:	e0fffc17 	ldw	r3,-16(fp)
   231c8:	d8c00115 	stw	r3,4(sp)
   231cc:	d8800015 	stw	r2,0(sp)
   231d0:	e1ffff17 	ldw	r7,-4(fp)
   231d4:	01800044 	movi	r6,1
   231d8:	e17ffd17 	ldw	r5,-12(fp)
   231dc:	e13ffb17 	ldw	r4,-20(fp)
   231e0:	0022bfc0 	call	22bfc <kf_work>
        memcpy(fout,tmpbuf,sizeof(kiss_fft_cpx)*st->nfft);
   231e4:	e0bffc17 	ldw	r2,-16(fp)
   231e8:	10800017 	ldw	r2,0(r2)
   231ec:	100490fa 	slli	r2,r2,3
   231f0:	100d883a 	mov	r6,r2
   231f4:	e17ffb17 	ldw	r5,-20(fp)
   231f8:	e13ffe17 	ldw	r4,-8(fp)
   231fc:	002b7400 	call	2b740 <memcpy>
        KISS_FFT_TMP_FREE(tmpbuf);
   23200:	e13ffb17 	ldw	r4,-20(fp)
   23204:	002af200 	call	2af20 <free>
    }else{
        kf_work( fout, fin, 1,in_stride, st->factors,st );
    }
}
   23208:	00000a06 	br	23234 <kiss_fft_stride+0xbc>
        kiss_fft_cpx * tmpbuf = (kiss_fft_cpx*)KISS_FFT_TMP_ALLOC( sizeof(kiss_fft_cpx)*st->nfft);
        kf_work(tmpbuf,fin,1,in_stride, st->factors,st);
        memcpy(fout,tmpbuf,sizeof(kiss_fft_cpx)*st->nfft);
        KISS_FFT_TMP_FREE(tmpbuf);
    }else{
        kf_work( fout, fin, 1,in_stride, st->factors,st );
   2320c:	e0bffc17 	ldw	r2,-16(fp)
   23210:	10800204 	addi	r2,r2,8
   23214:	e0fffc17 	ldw	r3,-16(fp)
   23218:	d8c00115 	stw	r3,4(sp)
   2321c:	d8800015 	stw	r2,0(sp)
   23220:	e1ffff17 	ldw	r7,-4(fp)
   23224:	01800044 	movi	r6,1
   23228:	e17ffd17 	ldw	r5,-12(fp)
   2322c:	e13ffe17 	ldw	r4,-8(fp)
   23230:	0022bfc0 	call	22bfc <kf_work>
    }
}
   23234:	0001883a 	nop
   23238:	e037883a 	mov	sp,fp
   2323c:	dfc00117 	ldw	ra,4(sp)
   23240:	df000017 	ldw	fp,0(sp)
   23244:	dec00204 	addi	sp,sp,8
   23248:	f800283a 	ret

0002324c <kiss_fft>:

void kiss_fft(kiss_fft_cfg cfg,const kiss_fft_cpx *fin,kiss_fft_cpx *fout)
{
   2324c:	defffb04 	addi	sp,sp,-20
   23250:	dfc00415 	stw	ra,16(sp)
   23254:	df000315 	stw	fp,12(sp)
   23258:	df000304 	addi	fp,sp,12
   2325c:	e13ffd15 	stw	r4,-12(fp)
   23260:	e17ffe15 	stw	r5,-8(fp)
   23264:	e1bfff15 	stw	r6,-4(fp)
    kiss_fft_stride(cfg,fin,fout,1);
   23268:	01c00044 	movi	r7,1
   2326c:	e1bfff17 	ldw	r6,-4(fp)
   23270:	e17ffe17 	ldw	r5,-8(fp)
   23274:	e13ffd17 	ldw	r4,-12(fp)
   23278:	00231780 	call	23178 <kiss_fft_stride>
}
   2327c:	0001883a 	nop
   23280:	e037883a 	mov	sp,fp
   23284:	dfc00117 	ldw	ra,4(sp)
   23288:	df000017 	ldw	fp,0(sp)
   2328c:	dec00204 	addi	sp,sp,8
   23290:	f800283a 	ret

00023294 <kiss_fft_cleanup>:


void kiss_fft_cleanup(void)
{
   23294:	deffff04 	addi	sp,sp,-4
   23298:	df000015 	stw	fp,0(sp)
   2329c:	d839883a 	mov	fp,sp
    // nothing needed any more
}
   232a0:	0001883a 	nop
   232a4:	e037883a 	mov	sp,fp
   232a8:	df000017 	ldw	fp,0(sp)
   232ac:	dec00104 	addi	sp,sp,4
   232b0:	f800283a 	ret

000232b4 <kiss_fft_next_fast_size>:

int kiss_fft_next_fast_size(int n)
{
   232b4:	defffc04 	addi	sp,sp,-16
   232b8:	dfc00315 	stw	ra,12(sp)
   232bc:	df000215 	stw	fp,8(sp)
   232c0:	df000204 	addi	fp,sp,8
   232c4:	e13fff15 	stw	r4,-4(fp)
    while(1) {
        int m=n;
   232c8:	e0bfff17 	ldw	r2,-4(fp)
   232cc:	e0bffe15 	stw	r2,-8(fp)
        while ( (m%2) == 0 ) m/=2;
   232d0:	00000506 	br	232e8 <kiss_fft_next_fast_size+0x34>
   232d4:	e0bffe17 	ldw	r2,-8(fp)
   232d8:	1006d7fa 	srli	r3,r2,31
   232dc:	1885883a 	add	r2,r3,r2
   232e0:	1005d07a 	srai	r2,r2,1
   232e4:	e0bffe15 	stw	r2,-8(fp)
   232e8:	e0bffe17 	ldw	r2,-8(fp)
   232ec:	1080004c 	andi	r2,r2,1
   232f0:	103ff826 	beq	r2,zero,232d4 <kiss_fft_next_fast_size+0x20>
        while ( (m%3) == 0 ) m/=3;
   232f4:	00000506 	br	2330c <kiss_fft_next_fast_size+0x58>
   232f8:	e0bffe17 	ldw	r2,-8(fp)
   232fc:	014000c4 	movi	r5,3
   23300:	1009883a 	mov	r4,r2
   23304:	00259b80 	call	259b8 <__divsi3>
   23308:	e0bffe15 	stw	r2,-8(fp)
   2330c:	e0bffe17 	ldw	r2,-8(fp)
   23310:	014000c4 	movi	r5,3
   23314:	1009883a 	mov	r4,r2
   23318:	0025a3c0 	call	25a3c <__modsi3>
   2331c:	103ff626 	beq	r2,zero,232f8 <kiss_fft_next_fast_size+0x44>
        while ( (m%5) == 0 ) m/=5;
   23320:	00000506 	br	23338 <kiss_fft_next_fast_size+0x84>
   23324:	e0bffe17 	ldw	r2,-8(fp)
   23328:	01400144 	movi	r5,5
   2332c:	1009883a 	mov	r4,r2
   23330:	00259b80 	call	259b8 <__divsi3>
   23334:	e0bffe15 	stw	r2,-8(fp)
   23338:	e0bffe17 	ldw	r2,-8(fp)
   2333c:	01400144 	movi	r5,5
   23340:	1009883a 	mov	r4,r2
   23344:	0025a3c0 	call	25a3c <__modsi3>
   23348:	103ff626 	beq	r2,zero,23324 <kiss_fft_next_fast_size+0x70>
        if (m<=1)
   2334c:	e0bffe17 	ldw	r2,-8(fp)
   23350:	10800088 	cmpgei	r2,r2,2
   23354:	10000426 	beq	r2,zero,23368 <kiss_fft_next_fast_size+0xb4>
            break; /* n is completely factorable by twos, threes, and fives */
        n++;
   23358:	e0bfff17 	ldw	r2,-4(fp)
   2335c:	10800044 	addi	r2,r2,1
   23360:	e0bfff15 	stw	r2,-4(fp)
    }
   23364:	003fd806 	br	232c8 <kiss_fft_next_fast_size+0x14>
        int m=n;
        while ( (m%2) == 0 ) m/=2;
        while ( (m%3) == 0 ) m/=3;
        while ( (m%5) == 0 ) m/=5;
        if (m<=1)
            break; /* n is completely factorable by twos, threes, and fives */
   23368:	0001883a 	nop
        n++;
    }
    return n;
   2336c:	e0bfff17 	ldw	r2,-4(fp)
}
   23370:	e037883a 	mov	sp,fp
   23374:	dfc00117 	ldw	ra,4(sp)
   23378:	df000017 	ldw	fp,0(sp)
   2337c:	dec00204 	addi	sp,sp,8
   23380:	f800283a 	ret

00023384 <cos>:
   23384:	00a00034 	movhi	r2,32768
   23388:	defffa04 	addi	sp,sp,-24
   2338c:	10bfffc4 	addi	r2,r2,-1
   23390:	00cffa74 	movhi	r3,16361
   23394:	dfc00515 	stw	ra,20(sp)
   23398:	2884703a 	and	r2,r5,r2
   2339c:	18c87ec4 	addi	r3,r3,8699
   233a0:	1880180e 	bge	r3,r2,23404 <cos+0x80>
   233a4:	00dffc34 	movhi	r3,32752
   233a8:	18ffffc4 	addi	r3,r3,-1
   233ac:	1880060e 	bge	r3,r2,233c8 <cos+0x44>
   233b0:	280f883a 	mov	r7,r5
   233b4:	200d883a 	mov	r6,r4
   233b8:	00289ec0 	call	289ec <__subdf3>
   233bc:	dfc00517 	ldw	ra,20(sp)
   233c0:	dec00604 	addi	sp,sp,24
   233c4:	f800283a 	ret
   233c8:	d9800104 	addi	r6,sp,4
   233cc:	002387c0 	call	2387c <__ieee754_rem_pio2>
   233d0:	108000cc 	andi	r2,r2,3
   233d4:	00c00044 	movi	r3,1
   233d8:	10c01726 	beq	r2,r3,23438 <cos+0xb4>
   233dc:	01000084 	movi	r4,2
   233e0:	11000e26 	beq	r2,r4,2341c <cos+0x98>
   233e4:	10001c26 	beq	r2,zero,23458 <cos+0xd4>
   233e8:	d9800317 	ldw	r6,12(sp)
   233ec:	d9c00417 	ldw	r7,16(sp)
   233f0:	d9000117 	ldw	r4,4(sp)
   233f4:	d9400217 	ldw	r5,8(sp)
   233f8:	d8c00015 	stw	r3,0(sp)
   233fc:	00254a40 	call	254a4 <__kernel_sin>
   23400:	003fee06 	br	233bc <cos+0x38>
   23404:	000d883a 	mov	r6,zero
   23408:	000f883a 	mov	r7,zero
   2340c:	00242700 	call	24270 <__kernel_cos>
   23410:	dfc00517 	ldw	ra,20(sp)
   23414:	dec00604 	addi	sp,sp,24
   23418:	f800283a 	ret
   2341c:	d9800317 	ldw	r6,12(sp)
   23420:	d9c00417 	ldw	r7,16(sp)
   23424:	d9000117 	ldw	r4,4(sp)
   23428:	d9400217 	ldw	r5,8(sp)
   2342c:	00242700 	call	24270 <__kernel_cos>
   23430:	18e0003c 	xorhi	r3,r3,32768
   23434:	003fe106 	br	233bc <cos+0x38>
   23438:	d9800317 	ldw	r6,12(sp)
   2343c:	d9c00417 	ldw	r7,16(sp)
   23440:	d9000117 	ldw	r4,4(sp)
   23444:	d9400217 	ldw	r5,8(sp)
   23448:	d8800015 	stw	r2,0(sp)
   2344c:	00254a40 	call	254a4 <__kernel_sin>
   23450:	18e0003c 	xorhi	r3,r3,32768
   23454:	003fd906 	br	233bc <cos+0x38>
   23458:	d9800317 	ldw	r6,12(sp)
   2345c:	d9c00417 	ldw	r7,16(sp)
   23460:	d9000117 	ldw	r4,4(sp)
   23464:	d9400217 	ldw	r5,8(sp)
   23468:	00242700 	call	24270 <__kernel_cos>
   2346c:	003fd306 	br	233bc <cos+0x38>

00023470 <floor>:
   23470:	2811d53a 	srai	r8,r5,20
   23474:	defffa04 	addi	sp,sp,-24
   23478:	dcc00315 	stw	r19,12(sp)
   2347c:	4201ffcc 	andi	r8,r8,2047
   23480:	dc800215 	stw	r18,8(sp)
   23484:	dc400115 	stw	r17,4(sp)
   23488:	dc000015 	stw	r16,0(sp)
   2348c:	dfc00515 	stw	ra,20(sp)
   23490:	dd000415 	stw	r20,16(sp)
   23494:	44bf0044 	addi	r18,r8,-1023
   23498:	018004c4 	movi	r6,19
   2349c:	2821883a 	mov	r16,r5
   234a0:	2005883a 	mov	r2,r4
   234a4:	280f883a 	mov	r7,r5
   234a8:	2827883a 	mov	r19,r5
   234ac:	2023883a 	mov	r17,r4
   234b0:	34801916 	blt	r6,r18,23518 <floor+0xa8>
   234b4:	90003c16 	blt	r18,zero,235a8 <floor+0x138>
   234b8:	05000434 	movhi	r20,16
   234bc:	a53fffc4 	addi	r20,r20,-1
   234c0:	a4a9d83a 	sra	r20,r20,r18
   234c4:	2d0c703a 	and	r6,r5,r20
   234c8:	310cb03a 	or	r6,r6,r4
   234cc:	30001626 	beq	r6,zero,23528 <floor+0xb8>
   234d0:	01a20034 	movhi	r6,34816
   234d4:	01df8e34 	movhi	r7,32312
   234d8:	319d6704 	addi	r6,r6,30108
   234dc:	39f90f04 	addi	r7,r7,-7108
   234e0:	0026ee80 	call	26ee8 <__adddf3>
   234e4:	000d883a 	mov	r6,zero
   234e8:	000f883a 	mov	r7,zero
   234ec:	1009883a 	mov	r4,r2
   234f0:	180b883a 	mov	r5,r3
   234f4:	00281040 	call	28104 <__gedf2>
   234f8:	0080040e 	bge	zero,r2,2350c <floor+0x9c>
   234fc:	80003c16 	blt	r16,zero,235f0 <floor+0x180>
   23500:	0520303a 	nor	r16,zero,r20
   23504:	84e0703a 	and	r16,r16,r19
   23508:	0023883a 	mov	r17,zero
   2350c:	8805883a 	mov	r2,r17
   23510:	8007883a 	mov	r3,r16
   23514:	00000506 	br	2352c <floor+0xbc>
   23518:	01800cc4 	movi	r6,51
   2351c:	34800b0e 	bge	r6,r18,2354c <floor+0xdc>
   23520:	01810004 	movi	r6,1024
   23524:	91802f26 	beq	r18,r6,235e4 <floor+0x174>
   23528:	3807883a 	mov	r3,r7
   2352c:	dfc00517 	ldw	ra,20(sp)
   23530:	dd000417 	ldw	r20,16(sp)
   23534:	dcc00317 	ldw	r19,12(sp)
   23538:	dc800217 	ldw	r18,8(sp)
   2353c:	dc400117 	ldw	r17,4(sp)
   23540:	dc000017 	ldw	r16,0(sp)
   23544:	dec00604 	addi	sp,sp,24
   23548:	f800283a 	ret
   2354c:	423efb44 	addi	r8,r8,-1043
   23550:	053fffc4 	movi	r20,-1
   23554:	a228d83a 	srl	r20,r20,r8
   23558:	250c703a 	and	r6,r4,r20
   2355c:	303ff226 	beq	r6,zero,23528 <floor+0xb8>
   23560:	01a20034 	movhi	r6,34816
   23564:	01df8e34 	movhi	r7,32312
   23568:	319d6704 	addi	r6,r6,30108
   2356c:	39f90f04 	addi	r7,r7,-7108
   23570:	0026ee80 	call	26ee8 <__adddf3>
   23574:	000d883a 	mov	r6,zero
   23578:	000f883a 	mov	r7,zero
   2357c:	1009883a 	mov	r4,r2
   23580:	180b883a 	mov	r5,r3
   23584:	00281040 	call	28104 <__gedf2>
   23588:	00bfe00e 	bge	zero,r2,2350c <floor+0x9c>
   2358c:	80001c16 	blt	r16,zero,23600 <floor+0x190>
   23590:	0510303a 	nor	r8,zero,r20
   23594:	9821883a 	mov	r16,r19
   23598:	8a22703a 	and	r17,r17,r8
   2359c:	8805883a 	mov	r2,r17
   235a0:	8007883a 	mov	r3,r16
   235a4:	003fe106 	br	2352c <floor+0xbc>
   235a8:	01a20034 	movhi	r6,34816
   235ac:	01df8e34 	movhi	r7,32312
   235b0:	319d6704 	addi	r6,r6,30108
   235b4:	39f90f04 	addi	r7,r7,-7108
   235b8:	0026ee80 	call	26ee8 <__adddf3>
   235bc:	000d883a 	mov	r6,zero
   235c0:	000f883a 	mov	r7,zero
   235c4:	1009883a 	mov	r4,r2
   235c8:	180b883a 	mov	r5,r3
   235cc:	00281040 	call	28104 <__gedf2>
   235d0:	00bfce0e 	bge	zero,r2,2350c <floor+0x9c>
   235d4:	80001516 	blt	r16,zero,2362c <floor+0x1bc>
   235d8:	0023883a 	mov	r17,zero
   235dc:	0021883a 	mov	r16,zero
   235e0:	003fca06 	br	2350c <floor+0x9c>
   235e4:	200d883a 	mov	r6,r4
   235e8:	0026ee80 	call	26ee8 <__adddf3>
   235ec:	003fcf06 	br	2352c <floor+0xbc>
   235f0:	00800434 	movhi	r2,16
   235f4:	14a5d83a 	sra	r18,r2,r18
   235f8:	84a7883a 	add	r19,r16,r18
   235fc:	003fc006 	br	23500 <floor+0x90>
   23600:	00800504 	movi	r2,20
   23604:	90801326 	beq	r18,r2,23654 <floor+0x1e4>
   23608:	00800d04 	movi	r2,52
   2360c:	14a5c83a 	sub	r18,r2,r18
   23610:	00800044 	movi	r2,1
   23614:	1484983a 	sll	r2,r2,r18
   23618:	1445883a 	add	r2,r2,r17
   2361c:	14400b2e 	bgeu	r2,r17,2364c <floor+0x1dc>
   23620:	84c00044 	addi	r19,r16,1
   23624:	1023883a 	mov	r17,r2
   23628:	003fd906 	br	23590 <floor+0x120>
   2362c:	00a00034 	movhi	r2,32768
   23630:	10bfffc4 	addi	r2,r2,-1
   23634:	8084703a 	and	r2,r16,r2
   23638:	1462b03a 	or	r17,r2,r17
   2363c:	883fb326 	beq	r17,zero,2350c <floor+0x9c>
   23640:	0023883a 	mov	r17,zero
   23644:	042ffc34 	movhi	r16,49136
   23648:	003fb006 	br	2350c <floor+0x9c>
   2364c:	1023883a 	mov	r17,r2
   23650:	003fcf06 	br	23590 <floor+0x120>
   23654:	84c00044 	addi	r19,r16,1
   23658:	003fcd06 	br	23590 <floor+0x120>

0002365c <sin>:
   2365c:	00a00034 	movhi	r2,32768
   23660:	defffa04 	addi	sp,sp,-24
   23664:	10bfffc4 	addi	r2,r2,-1
   23668:	00cffa74 	movhi	r3,16361
   2366c:	dfc00515 	stw	ra,20(sp)
   23670:	2884703a 	and	r2,r5,r2
   23674:	18c87ec4 	addi	r3,r3,8699
   23678:	1880180e 	bge	r3,r2,236dc <sin+0x80>
   2367c:	00dffc34 	movhi	r3,32752
   23680:	18ffffc4 	addi	r3,r3,-1
   23684:	1880060e 	bge	r3,r2,236a0 <sin+0x44>
   23688:	280f883a 	mov	r7,r5
   2368c:	200d883a 	mov	r6,r4
   23690:	00289ec0 	call	289ec <__subdf3>
   23694:	dfc00517 	ldw	ra,20(sp)
   23698:	dec00604 	addi	sp,sp,24
   2369c:	f800283a 	ret
   236a0:	d9800104 	addi	r6,sp,4
   236a4:	002387c0 	call	2387c <__ieee754_rem_pio2>
   236a8:	108000cc 	andi	r2,r2,3
   236ac:	00c00044 	movi	r3,1
   236b0:	10c01926 	beq	r2,r3,23718 <sin+0xbc>
   236b4:	01000084 	movi	r4,2
   236b8:	11000f26 	beq	r2,r4,236f8 <sin+0x9c>
   236bc:	10001c26 	beq	r2,zero,23730 <sin+0xd4>
   236c0:	d9800317 	ldw	r6,12(sp)
   236c4:	d9c00417 	ldw	r7,16(sp)
   236c8:	d9000117 	ldw	r4,4(sp)
   236cc:	d9400217 	ldw	r5,8(sp)
   236d0:	00242700 	call	24270 <__kernel_cos>
   236d4:	18e0003c 	xorhi	r3,r3,32768
   236d8:	003fee06 	br	23694 <sin+0x38>
   236dc:	d8000015 	stw	zero,0(sp)
   236e0:	000d883a 	mov	r6,zero
   236e4:	000f883a 	mov	r7,zero
   236e8:	00254a40 	call	254a4 <__kernel_sin>
   236ec:	dfc00517 	ldw	ra,20(sp)
   236f0:	dec00604 	addi	sp,sp,24
   236f4:	f800283a 	ret
   236f8:	d9800317 	ldw	r6,12(sp)
   236fc:	d9c00417 	ldw	r7,16(sp)
   23700:	d9000117 	ldw	r4,4(sp)
   23704:	d9400217 	ldw	r5,8(sp)
   23708:	d8c00015 	stw	r3,0(sp)
   2370c:	00254a40 	call	254a4 <__kernel_sin>
   23710:	18e0003c 	xorhi	r3,r3,32768
   23714:	003fdf06 	br	23694 <sin+0x38>
   23718:	d9800317 	ldw	r6,12(sp)
   2371c:	d9c00417 	ldw	r7,16(sp)
   23720:	d9000117 	ldw	r4,4(sp)
   23724:	d9400217 	ldw	r5,8(sp)
   23728:	00242700 	call	24270 <__kernel_cos>
   2372c:	003fd906 	br	23694 <sin+0x38>
   23730:	d9800317 	ldw	r6,12(sp)
   23734:	d9c00417 	ldw	r7,16(sp)
   23738:	d9000117 	ldw	r4,4(sp)
   2373c:	d9400217 	ldw	r5,8(sp)
   23740:	d8c00015 	stw	r3,0(sp)
   23744:	00254a40 	call	254a4 <__kernel_sin>
   23748:	003fd206 	br	23694 <sin+0x38>

0002374c <sqrt>:
   2374c:	defff104 	addi	sp,sp,-60
   23750:	dd000d15 	stw	r20,52(sp)
   23754:	05000134 	movhi	r20,4
   23758:	dcc00c15 	stw	r19,48(sp)
   2375c:	dc800b15 	stw	r18,44(sp)
   23760:	dc400a15 	stw	r17,40(sp)
   23764:	dc000915 	stw	r16,36(sp)
   23768:	dfc00e15 	stw	ra,56(sp)
   2376c:	a52e9d04 	addi	r20,r20,-17804
   23770:	2027883a 	mov	r19,r4
   23774:	2825883a 	mov	r18,r5
   23778:	0023fe80 	call	23fe8 <__ieee754_sqrt>
   2377c:	1821883a 	mov	r16,r3
   23780:	a0c00017 	ldw	r3,0(r20)
   23784:	1023883a 	mov	r17,r2
   23788:	00bfffc4 	movi	r2,-1
   2378c:	18800a26 	beq	r3,r2,237b8 <sqrt+0x6c>
   23790:	9809883a 	mov	r4,r19
   23794:	900b883a 	mov	r5,r18
   23798:	00257840 	call	25784 <__fpclassifyd>
   2379c:	10000626 	beq	r2,zero,237b8 <sqrt+0x6c>
   237a0:	000d883a 	mov	r6,zero
   237a4:	000f883a 	mov	r7,zero
   237a8:	9809883a 	mov	r4,r19
   237ac:	900b883a 	mov	r5,r18
   237b0:	00281e00 	call	281e0 <__ledf2>
   237b4:	10000a16 	blt	r2,zero,237e0 <sqrt+0x94>
   237b8:	8805883a 	mov	r2,r17
   237bc:	8007883a 	mov	r3,r16
   237c0:	dfc00e17 	ldw	ra,56(sp)
   237c4:	dd000d17 	ldw	r20,52(sp)
   237c8:	dcc00c17 	ldw	r19,48(sp)
   237cc:	dc800b17 	ldw	r18,44(sp)
   237d0:	dc400a17 	ldw	r17,40(sp)
   237d4:	dc000917 	ldw	r16,36(sp)
   237d8:	dec00f04 	addi	sp,sp,60
   237dc:	f800283a 	ret
   237e0:	00800044 	movi	r2,1
   237e4:	d8800015 	stw	r2,0(sp)
   237e8:	a4000017 	ldw	r16,0(r20)
   237ec:	00800134 	movhi	r2,4
   237f0:	10a02304 	addi	r2,r2,-32628
   237f4:	d8800115 	stw	r2,4(sp)
   237f8:	d8000815 	stw	zero,32(sp)
   237fc:	dcc00415 	stw	r19,16(sp)
   23800:	dc800515 	stw	r18,20(sp)
   23804:	dcc00215 	stw	r19,8(sp)
   23808:	dc800315 	stw	r18,12(sp)
   2380c:	80000a1e 	bne	r16,zero,23838 <sqrt+0xec>
   23810:	d8000615 	stw	zero,24(sp)
   23814:	d8000715 	stw	zero,28(sp)
   23818:	d809883a 	mov	r4,sp
   2381c:	00257f80 	call	257f8 <matherr>
   23820:	10000e26 	beq	r2,zero,2385c <sqrt+0x110>
   23824:	d8800817 	ldw	r2,32(sp)
   23828:	1000101e 	bne	r2,zero,2386c <sqrt+0x120>
   2382c:	d8800617 	ldw	r2,24(sp)
   23830:	d8c00717 	ldw	r3,28(sp)
   23834:	003fe206 	br	237c0 <sqrt+0x74>
   23838:	000d883a 	mov	r6,zero
   2383c:	000f883a 	mov	r7,zero
   23840:	0009883a 	mov	r4,zero
   23844:	000b883a 	mov	r5,zero
   23848:	00277940 	call	27794 <__divdf3>
   2384c:	d8800615 	stw	r2,24(sp)
   23850:	d8c00715 	stw	r3,28(sp)
   23854:	00800084 	movi	r2,2
   23858:	80bfef1e 	bne	r16,r2,23818 <sqrt+0xcc>
   2385c:	00298200 	call	29820 <__errno>
   23860:	00c00844 	movi	r3,33
   23864:	10c00015 	stw	r3,0(r2)
   23868:	003fee06 	br	23824 <sqrt+0xd8>
   2386c:	00298200 	call	29820 <__errno>
   23870:	d8c00817 	ldw	r3,32(sp)
   23874:	10c00015 	stw	r3,0(r2)
   23878:	003fec06 	br	2382c <sqrt+0xe0>

0002387c <__ieee754_rem_pio2>:
   2387c:	02200034 	movhi	r8,32768
   23880:	deffea04 	addi	sp,sp,-88
   23884:	423fffc4 	addi	r8,r8,-1
   23888:	00cffa74 	movhi	r3,16361
   2388c:	ddc01315 	stw	r23,76(sp)
   23890:	dc400d15 	stw	r17,52(sp)
   23894:	dfc01515 	stw	ra,84(sp)
   23898:	df001415 	stw	fp,80(sp)
   2389c:	dd801215 	stw	r22,72(sp)
   238a0:	dd401115 	stw	r21,68(sp)
   238a4:	dd001015 	stw	r20,64(sp)
   238a8:	dcc00f15 	stw	r19,60(sp)
   238ac:	dc800e15 	stw	r18,56(sp)
   238b0:	dc000c15 	stw	r16,48(sp)
   238b4:	2a2e703a 	and	r23,r5,r8
   238b8:	18c87ec4 	addi	r3,r3,8699
   238bc:	2823883a 	mov	r17,r5
   238c0:	1dc0790e 	bge	r3,r23,23aa8 <__ieee754_rem_pio2+0x22c>
   238c4:	009000f4 	movhi	r2,16387
   238c8:	10b65ec4 	addi	r2,r2,-9861
   238cc:	3021883a 	mov	r16,r6
   238d0:	2027883a 	mov	r19,r4
   238d4:	15c02316 	blt	r2,r23,23964 <__ieee754_rem_pio2+0xe8>
   238d8:	01cffe74 	movhi	r7,16377
   238dc:	39c87ec4 	addi	r7,r7,8699
   238e0:	01951034 	movhi	r6,21568
   238e4:	01417a0e 	bge	zero,r5,23ed0 <__ieee754_rem_pio2+0x654>
   238e8:	00289ec0 	call	289ec <__subdf3>
   238ec:	1025883a 	mov	r18,r2
   238f0:	008ffe74 	movhi	r2,16377
   238f4:	10887ec4 	addi	r2,r2,8699
   238f8:	1823883a 	mov	r17,r3
   238fc:	b8808426 	beq	r23,r2,23b10 <__ieee754_rem_pio2+0x294>
   23900:	018698b4 	movhi	r6,6754
   23904:	01cf7474 	movhi	r7,15825
   23908:	3198cc44 	addi	r6,r6,25393
   2390c:	39ed1844 	addi	r7,r7,-19359
   23910:	9009883a 	mov	r4,r18
   23914:	180b883a 	mov	r5,r3
   23918:	00289ec0 	call	289ec <__subdf3>
   2391c:	100d883a 	mov	r6,r2
   23920:	180f883a 	mov	r7,r3
   23924:	9009883a 	mov	r4,r18
   23928:	880b883a 	mov	r5,r17
   2392c:	80800015 	stw	r2,0(r16)
   23930:	80c00115 	stw	r3,4(r16)
   23934:	00289ec0 	call	289ec <__subdf3>
   23938:	018698b4 	movhi	r6,6754
   2393c:	01cf7474 	movhi	r7,15825
   23940:	3198cc44 	addi	r6,r6,25393
   23944:	39ed1844 	addi	r7,r7,-19359
   23948:	1009883a 	mov	r4,r2
   2394c:	180b883a 	mov	r5,r3
   23950:	00289ec0 	call	289ec <__subdf3>
   23954:	80800215 	stw	r2,8(r16)
   23958:	80c00315 	stw	r3,12(r16)
   2395c:	00800044 	movi	r2,1
   23960:	00005606 	br	23abc <__ieee754_rem_pio2+0x240>
   23964:	00904e74 	movhi	r2,16697
   23968:	10887ec4 	addi	r2,r2,8699
   2396c:	15c0830e 	bge	r2,r23,23b7c <__ieee754_rem_pio2+0x300>
   23970:	009ffc34 	movhi	r2,32752
   23974:	10bfffc4 	addi	r2,r2,-1
   23978:	15c05c16 	blt	r2,r23,23aec <__ieee754_rem_pio2+0x270>
   2397c:	b829d53a 	srai	r20,r23,20
   23980:	a53efa84 	addi	r20,r20,-1046
   23984:	a024953a 	slli	r18,r20,20
   23988:	bca5c83a 	sub	r18,r23,r18
   2398c:	900b883a 	mov	r5,r18
   23990:	00292e80 	call	292e8 <__fixdfsi>
   23994:	1009883a 	mov	r4,r2
   23998:	00293680 	call	29368 <__floatsidf>
   2399c:	9809883a 	mov	r4,r19
   239a0:	900b883a 	mov	r5,r18
   239a4:	100d883a 	mov	r6,r2
   239a8:	180f883a 	mov	r7,r3
   239ac:	d8800215 	stw	r2,8(sp)
   239b0:	d8c00315 	stw	r3,12(sp)
   239b4:	00289ec0 	call	289ec <__subdf3>
   239b8:	000d883a 	mov	r6,zero
   239bc:	01d05c34 	movhi	r7,16752
   239c0:	1009883a 	mov	r4,r2
   239c4:	180b883a 	mov	r5,r3
   239c8:	00282d40 	call	282d4 <__muldf3>
   239cc:	180b883a 	mov	r5,r3
   239d0:	1009883a 	mov	r4,r2
   239d4:	182b883a 	mov	r21,r3
   239d8:	102d883a 	mov	r22,r2
   239dc:	00292e80 	call	292e8 <__fixdfsi>
   239e0:	1009883a 	mov	r4,r2
   239e4:	00293680 	call	29368 <__floatsidf>
   239e8:	100d883a 	mov	r6,r2
   239ec:	180f883a 	mov	r7,r3
   239f0:	b009883a 	mov	r4,r22
   239f4:	a80b883a 	mov	r5,r21
   239f8:	1027883a 	mov	r19,r2
   239fc:	1825883a 	mov	r18,r3
   23a00:	d8800415 	stw	r2,16(sp)
   23a04:	d8c00515 	stw	r3,20(sp)
   23a08:	00289ec0 	call	289ec <__subdf3>
   23a0c:	000d883a 	mov	r6,zero
   23a10:	01d05c34 	movhi	r7,16752
   23a14:	1009883a 	mov	r4,r2
   23a18:	180b883a 	mov	r5,r3
   23a1c:	00282d40 	call	282d4 <__muldf3>
   23a20:	000d883a 	mov	r6,zero
   23a24:	000f883a 	mov	r7,zero
   23a28:	1009883a 	mov	r4,r2
   23a2c:	180b883a 	mov	r5,r3
   23a30:	d8800615 	stw	r2,24(sp)
   23a34:	d8c00715 	stw	r3,28(sp)
   23a38:	002807c0 	call	2807c <__eqdf2>
   23a3c:	1001431e 	bne	r2,zero,23f4c <__ieee754_rem_pio2+0x6d0>
   23a40:	000f883a 	mov	r7,zero
   23a44:	000d883a 	mov	r6,zero
   23a48:	9809883a 	mov	r4,r19
   23a4c:	900b883a 	mov	r5,r18
   23a50:	002807c0 	call	2807c <__eqdf2>
   23a54:	100f003a 	cmpeq	r7,r2,zero
   23a58:	00800084 	movi	r2,2
   23a5c:	11cfc83a 	sub	r7,r2,r7
   23a60:	00800084 	movi	r2,2
   23a64:	d8800015 	stw	r2,0(sp)
   23a68:	00800134 	movhi	r2,4
   23a6c:	10a04504 	addi	r2,r2,-32492
   23a70:	d8800115 	stw	r2,4(sp)
   23a74:	a00d883a 	mov	r6,r20
   23a78:	800b883a 	mov	r5,r16
   23a7c:	d9000204 	addi	r4,sp,8
   23a80:	00247140 	call	24714 <__kernel_rem_pio2>
   23a84:	88000d0e 	bge	r17,zero,23abc <__ieee754_rem_pio2+0x240>
   23a88:	81000117 	ldw	r4,4(r16)
   23a8c:	80c00317 	ldw	r3,12(r16)
   23a90:	0085c83a 	sub	r2,zero,r2
   23a94:	2120003c 	xorhi	r4,r4,32768
   23a98:	18e0003c 	xorhi	r3,r3,32768
   23a9c:	81000115 	stw	r4,4(r16)
   23aa0:	80c00315 	stw	r3,12(r16)
   23aa4:	00000506 	br	23abc <__ieee754_rem_pio2+0x240>
   23aa8:	31000015 	stw	r4,0(r6)
   23aac:	31400115 	stw	r5,4(r6)
   23ab0:	30000215 	stw	zero,8(r6)
   23ab4:	30000315 	stw	zero,12(r6)
   23ab8:	0005883a 	mov	r2,zero
   23abc:	dfc01517 	ldw	ra,84(sp)
   23ac0:	df001417 	ldw	fp,80(sp)
   23ac4:	ddc01317 	ldw	r23,76(sp)
   23ac8:	dd801217 	ldw	r22,72(sp)
   23acc:	dd401117 	ldw	r21,68(sp)
   23ad0:	dd001017 	ldw	r20,64(sp)
   23ad4:	dcc00f17 	ldw	r19,60(sp)
   23ad8:	dc800e17 	ldw	r18,56(sp)
   23adc:	dc400d17 	ldw	r17,52(sp)
   23ae0:	dc000c17 	ldw	r16,48(sp)
   23ae4:	dec01604 	addi	sp,sp,88
   23ae8:	f800283a 	ret
   23aec:	200d883a 	mov	r6,r4
   23af0:	280f883a 	mov	r7,r5
   23af4:	00289ec0 	call	289ec <__subdf3>
   23af8:	80800215 	stw	r2,8(r16)
   23afc:	80800015 	stw	r2,0(r16)
   23b00:	80c00315 	stw	r3,12(r16)
   23b04:	80c00115 	stw	r3,4(r16)
   23b08:	0005883a 	mov	r2,zero
   23b0c:	003feb06 	br	23abc <__ieee754_rem_pio2+0x240>
   23b10:	01cf7474 	movhi	r7,15825
   23b14:	9009883a 	mov	r4,r18
   23b18:	39ed1844 	addi	r7,r7,-19359
   23b1c:	01869834 	movhi	r6,6752
   23b20:	180b883a 	mov	r5,r3
   23b24:	00289ec0 	call	289ec <__subdf3>
   23b28:	018b80f4 	movhi	r6,11779
   23b2c:	01cee8f4 	movhi	r7,15267
   23b30:	319c1cc4 	addi	r6,r6,28787
   23b34:	39c66284 	addi	r7,r7,6538
   23b38:	1009883a 	mov	r4,r2
   23b3c:	180b883a 	mov	r5,r3
   23b40:	1025883a 	mov	r18,r2
   23b44:	1823883a 	mov	r17,r3
   23b48:	00289ec0 	call	289ec <__subdf3>
   23b4c:	100d883a 	mov	r6,r2
   23b50:	180f883a 	mov	r7,r3
   23b54:	9009883a 	mov	r4,r18
   23b58:	880b883a 	mov	r5,r17
   23b5c:	80800015 	stw	r2,0(r16)
   23b60:	80c00115 	stw	r3,4(r16)
   23b64:	00289ec0 	call	289ec <__subdf3>
   23b68:	018b80f4 	movhi	r6,11779
   23b6c:	01cee8f4 	movhi	r7,15267
   23b70:	319c1cc4 	addi	r6,r6,28787
   23b74:	39c66284 	addi	r7,r7,6538
   23b78:	003f7306 	br	23948 <__ieee754_rem_pio2+0xcc>
   23b7c:	00257700 	call	25770 <fabs>
   23b80:	019b72b4 	movhi	r6,28106
   23b84:	01cff934 	movhi	r7,16356
   23b88:	31b220c4 	addi	r6,r6,-14205
   23b8c:	39d7cc04 	addi	r7,r7,24368
   23b90:	1009883a 	mov	r4,r2
   23b94:	180b883a 	mov	r5,r3
   23b98:	102d883a 	mov	r22,r2
   23b9c:	182b883a 	mov	r21,r3
   23ba0:	00282d40 	call	282d4 <__muldf3>
   23ba4:	000d883a 	mov	r6,zero
   23ba8:	01cff834 	movhi	r7,16352
   23bac:	1009883a 	mov	r4,r2
   23bb0:	180b883a 	mov	r5,r3
   23bb4:	0026ee80 	call	26ee8 <__adddf3>
   23bb8:	180b883a 	mov	r5,r3
   23bbc:	1009883a 	mov	r4,r2
   23bc0:	00292e80 	call	292e8 <__fixdfsi>
   23bc4:	1009883a 	mov	r4,r2
   23bc8:	1025883a 	mov	r18,r2
   23bcc:	00293680 	call	29368 <__floatsidf>
   23bd0:	01cffe74 	movhi	r7,16377
   23bd4:	39c87ec4 	addi	r7,r7,8699
   23bd8:	01951034 	movhi	r6,21568
   23bdc:	1009883a 	mov	r4,r2
   23be0:	180b883a 	mov	r5,r3
   23be4:	1029883a 	mov	r20,r2
   23be8:	1827883a 	mov	r19,r3
   23bec:	00282d40 	call	282d4 <__muldf3>
   23bf0:	b009883a 	mov	r4,r22
   23bf4:	a80b883a 	mov	r5,r21
   23bf8:	100d883a 	mov	r6,r2
   23bfc:	180f883a 	mov	r7,r3
   23c00:	00289ec0 	call	289ec <__subdf3>
   23c04:	018698b4 	movhi	r6,6754
   23c08:	01cf7474 	movhi	r7,15825
   23c0c:	a009883a 	mov	r4,r20
   23c10:	3198cc44 	addi	r6,r6,25393
   23c14:	39ed1844 	addi	r7,r7,-19359
   23c18:	980b883a 	mov	r5,r19
   23c1c:	1039883a 	mov	fp,r2
   23c20:	d8c00815 	stw	r3,32(sp)
   23c24:	00282d40 	call	282d4 <__muldf3>
   23c28:	010007c4 	movi	r4,31
   23c2c:	e017883a 	mov	r11,fp
   23c30:	da800817 	ldw	r10,32(sp)
   23c34:	102d883a 	mov	r22,r2
   23c38:	182b883a 	mov	r21,r3
   23c3c:	24802816 	blt	r4,r18,23ce0 <__ieee754_rem_pio2+0x464>
   23c40:	913fffc4 	addi	r4,r18,-1
   23c44:	2109883a 	add	r4,r4,r4
   23c48:	01400134 	movhi	r5,4
   23c4c:	2109883a 	add	r4,r4,r4
   23c50:	29602504 	addi	r5,r5,-32620
   23c54:	2909883a 	add	r4,r5,r4
   23c58:	21000017 	ldw	r4,0(r4)
   23c5c:	b9002026 	beq	r23,r4,23ce0 <__ieee754_rem_pio2+0x464>
   23c60:	100d883a 	mov	r6,r2
   23c64:	180f883a 	mov	r7,r3
   23c68:	e009883a 	mov	r4,fp
   23c6c:	500b883a 	mov	r5,r10
   23c70:	da800b15 	stw	r10,44(sp)
   23c74:	df000a15 	stw	fp,40(sp)
   23c78:	00289ec0 	call	289ec <__subdf3>
   23c7c:	da800b17 	ldw	r10,44(sp)
   23c80:	dac00a17 	ldw	r11,40(sp)
   23c84:	1019883a 	mov	r12,r2
   23c88:	1813883a 	mov	r9,r3
   23c8c:	80800015 	stw	r2,0(r16)
   23c90:	80c00115 	stw	r3,4(r16)
   23c94:	600d883a 	mov	r6,r12
   23c98:	480f883a 	mov	r7,r9
   23c9c:	5809883a 	mov	r4,r11
   23ca0:	500b883a 	mov	r5,r10
   23ca4:	da400b15 	stw	r9,44(sp)
   23ca8:	db000a15 	stw	r12,40(sp)
   23cac:	00289ec0 	call	289ec <__subdf3>
   23cb0:	b00d883a 	mov	r6,r22
   23cb4:	a80f883a 	mov	r7,r21
   23cb8:	1009883a 	mov	r4,r2
   23cbc:	180b883a 	mov	r5,r3
   23cc0:	00289ec0 	call	289ec <__subdf3>
   23cc4:	80800215 	stw	r2,8(r16)
   23cc8:	80c00315 	stw	r3,12(r16)
   23ccc:	da400b17 	ldw	r9,44(sp)
   23cd0:	db000a17 	ldw	r12,40(sp)
   23cd4:	88009f16 	blt	r17,zero,23f54 <__ieee754_rem_pio2+0x6d8>
   23cd8:	9005883a 	mov	r2,r18
   23cdc:	003f7706 	br	23abc <__ieee754_rem_pio2+0x240>
   23ce0:	d9400817 	ldw	r5,32(sp)
   23ce4:	100d883a 	mov	r6,r2
   23ce8:	180f883a 	mov	r7,r3
   23cec:	e009883a 	mov	r4,fp
   23cf0:	da800b15 	stw	r10,44(sp)
   23cf4:	dac00a15 	stw	r11,40(sp)
   23cf8:	00289ec0 	call	289ec <__subdf3>
   23cfc:	1019883a 	mov	r12,r2
   23d00:	1804d53a 	srli	r2,r3,20
   23d04:	b811d53a 	srai	r8,r23,20
   23d08:	1813883a 	mov	r9,r3
   23d0c:	1081ffcc 	andi	r2,r2,2047
   23d10:	80c00115 	stw	r3,4(r16)
   23d14:	83000015 	stw	r12,0(r16)
   23d18:	4085c83a 	sub	r2,r8,r2
   23d1c:	00c00404 	movi	r3,16
   23d20:	da800b17 	ldw	r10,44(sp)
   23d24:	dac00a17 	ldw	r11,40(sp)
   23d28:	18bfda0e 	bge	r3,r2,23c94 <__ieee754_rem_pio2+0x418>
   23d2c:	01cf7474 	movhi	r7,15825
   23d30:	39ed1844 	addi	r7,r7,-19359
   23d34:	01869834 	movhi	r6,6752
   23d38:	a009883a 	mov	r4,r20
   23d3c:	980b883a 	mov	r5,r19
   23d40:	da000a15 	stw	r8,40(sp)
   23d44:	00282d40 	call	282d4 <__muldf3>
   23d48:	d9400817 	ldw	r5,32(sp)
   23d4c:	100d883a 	mov	r6,r2
   23d50:	180f883a 	mov	r7,r3
   23d54:	e009883a 	mov	r4,fp
   23d58:	102d883a 	mov	r22,r2
   23d5c:	182b883a 	mov	r21,r3
   23d60:	00289ec0 	call	289ec <__subdf3>
   23d64:	d9400817 	ldw	r5,32(sp)
   23d68:	100d883a 	mov	r6,r2
   23d6c:	180f883a 	mov	r7,r3
   23d70:	e009883a 	mov	r4,fp
   23d74:	182f883a 	mov	r23,r3
   23d78:	d8800915 	stw	r2,36(sp)
   23d7c:	00289ec0 	call	289ec <__subdf3>
   23d80:	b00d883a 	mov	r6,r22
   23d84:	a80f883a 	mov	r7,r21
   23d88:	1009883a 	mov	r4,r2
   23d8c:	180b883a 	mov	r5,r3
   23d90:	00289ec0 	call	289ec <__subdf3>
   23d94:	018b80f4 	movhi	r6,11779
   23d98:	01cee8f4 	movhi	r7,15267
   23d9c:	319c1cc4 	addi	r6,r6,28787
   23da0:	39c66284 	addi	r7,r7,6538
   23da4:	a009883a 	mov	r4,r20
   23da8:	980b883a 	mov	r5,r19
   23dac:	102d883a 	mov	r22,r2
   23db0:	182b883a 	mov	r21,r3
   23db4:	00282d40 	call	282d4 <__muldf3>
   23db8:	b00d883a 	mov	r6,r22
   23dbc:	a80f883a 	mov	r7,r21
   23dc0:	1009883a 	mov	r4,r2
   23dc4:	180b883a 	mov	r5,r3
   23dc8:	00289ec0 	call	289ec <__subdf3>
   23dcc:	d9000917 	ldw	r4,36(sp)
   23dd0:	100d883a 	mov	r6,r2
   23dd4:	180f883a 	mov	r7,r3
   23dd8:	b80b883a 	mov	r5,r23
   23ddc:	102d883a 	mov	r22,r2
   23de0:	182b883a 	mov	r21,r3
   23de4:	00289ec0 	call	289ec <__subdf3>
   23de8:	1019883a 	mov	r12,r2
   23dec:	1804d53a 	srli	r2,r3,20
   23df0:	da000a17 	ldw	r8,40(sp)
   23df4:	83000015 	stw	r12,0(r16)
   23df8:	1081ffcc 	andi	r2,r2,2047
   23dfc:	4091c83a 	sub	r8,r8,r2
   23e00:	80c00115 	stw	r3,4(r16)
   23e04:	00800c44 	movi	r2,49
   23e08:	1813883a 	mov	r9,r3
   23e0c:	1200730e 	bge	r2,r8,23fdc <__ieee754_rem_pio2+0x760>
   23e10:	01cee8f4 	movhi	r7,15267
   23e14:	39c66284 	addi	r7,r7,6538
   23e18:	018b8034 	movhi	r6,11776
   23e1c:	a009883a 	mov	r4,r20
   23e20:	980b883a 	mov	r5,r19
   23e24:	00282d40 	call	282d4 <__muldf3>
   23e28:	d9000917 	ldw	r4,36(sp)
   23e2c:	100d883a 	mov	r6,r2
   23e30:	180f883a 	mov	r7,r3
   23e34:	b80b883a 	mov	r5,r23
   23e38:	102d883a 	mov	r22,r2
   23e3c:	182b883a 	mov	r21,r3
   23e40:	00289ec0 	call	289ec <__subdf3>
   23e44:	d9000917 	ldw	r4,36(sp)
   23e48:	100d883a 	mov	r6,r2
   23e4c:	180f883a 	mov	r7,r3
   23e50:	b80b883a 	mov	r5,r23
   23e54:	d8c00b15 	stw	r3,44(sp)
   23e58:	d8800a15 	stw	r2,40(sp)
   23e5c:	00289ec0 	call	289ec <__subdf3>
   23e60:	b00d883a 	mov	r6,r22
   23e64:	a80f883a 	mov	r7,r21
   23e68:	1009883a 	mov	r4,r2
   23e6c:	180b883a 	mov	r5,r3
   23e70:	00289ec0 	call	289ec <__subdf3>
   23e74:	01894834 	movhi	r6,9504
   23e78:	01ce5f34 	movhi	r7,14716
   23e7c:	31927044 	addi	r6,r6,18881
   23e80:	39e0e684 	addi	r7,r7,-31846
   23e84:	a009883a 	mov	r4,r20
   23e88:	980b883a 	mov	r5,r19
   23e8c:	102d883a 	mov	r22,r2
   23e90:	182b883a 	mov	r21,r3
   23e94:	00282d40 	call	282d4 <__muldf3>
   23e98:	b00d883a 	mov	r6,r22
   23e9c:	a80f883a 	mov	r7,r21
   23ea0:	1009883a 	mov	r4,r2
   23ea4:	180b883a 	mov	r5,r3
   23ea8:	00289ec0 	call	289ec <__subdf3>
   23eac:	dac00a17 	ldw	r11,40(sp)
   23eb0:	da800b17 	ldw	r10,44(sp)
   23eb4:	102d883a 	mov	r22,r2
   23eb8:	182b883a 	mov	r21,r3
   23ebc:	100d883a 	mov	r6,r2
   23ec0:	180f883a 	mov	r7,r3
   23ec4:	5809883a 	mov	r4,r11
   23ec8:	500b883a 	mov	r5,r10
   23ecc:	003f6a06 	br	23c78 <__ieee754_rem_pio2+0x3fc>
   23ed0:	0026ee80 	call	26ee8 <__adddf3>
   23ed4:	1025883a 	mov	r18,r2
   23ed8:	008ffe74 	movhi	r2,16377
   23edc:	10887ec4 	addi	r2,r2,8699
   23ee0:	1823883a 	mov	r17,r3
   23ee4:	b8802226 	beq	r23,r2,23f70 <__ieee754_rem_pio2+0x6f4>
   23ee8:	018698b4 	movhi	r6,6754
   23eec:	01cf7474 	movhi	r7,15825
   23ef0:	3198cc44 	addi	r6,r6,25393
   23ef4:	39ed1844 	addi	r7,r7,-19359
   23ef8:	9009883a 	mov	r4,r18
   23efc:	180b883a 	mov	r5,r3
   23f00:	0026ee80 	call	26ee8 <__adddf3>
   23f04:	100d883a 	mov	r6,r2
   23f08:	180f883a 	mov	r7,r3
   23f0c:	9009883a 	mov	r4,r18
   23f10:	880b883a 	mov	r5,r17
   23f14:	80800015 	stw	r2,0(r16)
   23f18:	80c00115 	stw	r3,4(r16)
   23f1c:	00289ec0 	call	289ec <__subdf3>
   23f20:	018698b4 	movhi	r6,6754
   23f24:	01cf7474 	movhi	r7,15825
   23f28:	3198cc44 	addi	r6,r6,25393
   23f2c:	39ed1844 	addi	r7,r7,-19359
   23f30:	1009883a 	mov	r4,r2
   23f34:	180b883a 	mov	r5,r3
   23f38:	0026ee80 	call	26ee8 <__adddf3>
   23f3c:	80800215 	stw	r2,8(r16)
   23f40:	80c00315 	stw	r3,12(r16)
   23f44:	00bfffc4 	movi	r2,-1
   23f48:	003edc06 	br	23abc <__ieee754_rem_pio2+0x240>
   23f4c:	01c000c4 	movi	r7,3
   23f50:	003ec306 	br	23a60 <__ieee754_rem_pio2+0x1e4>
   23f54:	4a60003c 	xorhi	r9,r9,32768
   23f58:	18e0003c 	xorhi	r3,r3,32768
   23f5c:	83000015 	stw	r12,0(r16)
   23f60:	82400115 	stw	r9,4(r16)
   23f64:	80c00315 	stw	r3,12(r16)
   23f68:	0485c83a 	sub	r2,zero,r18
   23f6c:	003ed306 	br	23abc <__ieee754_rem_pio2+0x240>
   23f70:	01cf7474 	movhi	r7,15825
   23f74:	9009883a 	mov	r4,r18
   23f78:	39ed1844 	addi	r7,r7,-19359
   23f7c:	01869834 	movhi	r6,6752
   23f80:	180b883a 	mov	r5,r3
   23f84:	0026ee80 	call	26ee8 <__adddf3>
   23f88:	018b80f4 	movhi	r6,11779
   23f8c:	01cee8f4 	movhi	r7,15267
   23f90:	319c1cc4 	addi	r6,r6,28787
   23f94:	39c66284 	addi	r7,r7,6538
   23f98:	1009883a 	mov	r4,r2
   23f9c:	180b883a 	mov	r5,r3
   23fa0:	1025883a 	mov	r18,r2
   23fa4:	1823883a 	mov	r17,r3
   23fa8:	0026ee80 	call	26ee8 <__adddf3>
   23fac:	100d883a 	mov	r6,r2
   23fb0:	180f883a 	mov	r7,r3
   23fb4:	9009883a 	mov	r4,r18
   23fb8:	880b883a 	mov	r5,r17
   23fbc:	80800015 	stw	r2,0(r16)
   23fc0:	80c00115 	stw	r3,4(r16)
   23fc4:	00289ec0 	call	289ec <__subdf3>
   23fc8:	018b80f4 	movhi	r6,11779
   23fcc:	01cee8f4 	movhi	r7,15267
   23fd0:	319c1cc4 	addi	r6,r6,28787
   23fd4:	39c66284 	addi	r7,r7,6538
   23fd8:	003fd506 	br	23f30 <__ieee754_rem_pio2+0x6b4>
   23fdc:	dac00917 	ldw	r11,36(sp)
   23fe0:	b815883a 	mov	r10,r23
   23fe4:	003f2b06 	br	23c94 <__ieee754_rem_pio2+0x418>

00023fe8 <__ieee754_sqrt>:
   23fe8:	defffd04 	addi	sp,sp,-12
   23fec:	dc400115 	stw	r17,4(sp)
   23ff0:	dc000015 	stw	r16,0(sp)
   23ff4:	dfc00215 	stw	ra,8(sp)
   23ff8:	28dffc2c 	andhi	r3,r5,32752
   23ffc:	009ffc34 	movhi	r2,32752
   24000:	2821883a 	mov	r16,r5
   24004:	2023883a 	mov	r17,r4
   24008:	200d883a 	mov	r6,r4
   2400c:	18807b26 	beq	r3,r2,241fc <__ieee754_sqrt+0x214>
   24010:	01405f0e 	bge	zero,r5,24190 <__ieee754_sqrt+0x1a8>
   24014:	2815d53a 	srai	r10,r5,20
   24018:	50006a26 	beq	r10,zero,241c4 <__ieee754_sqrt+0x1dc>
   2401c:	00c00434 	movhi	r3,16
   24020:	52bf0044 	addi	r10,r10,-1023
   24024:	18ffffc4 	addi	r3,r3,-1
   24028:	80c6703a 	and	r3,r16,r3
   2402c:	5080004c 	andi	r2,r10,1
   24030:	18c00434 	orhi	r3,r3,16
   24034:	1000511e 	bne	r2,zero,2417c <__ieee754_sqrt+0x194>
   24038:	3004d7fa 	srli	r2,r6,31
   2403c:	5015d07a 	srai	r10,r10,1
   24040:	18c7883a 	add	r3,r3,r3
   24044:	10c5883a 	add	r2,r2,r3
   24048:	01400584 	movi	r5,22
   2404c:	3187883a 	add	r3,r6,r6
   24050:	0013883a 	mov	r9,zero
   24054:	000f883a 	mov	r7,zero
   24058:	01000834 	movhi	r4,32
   2405c:	390d883a 	add	r6,r7,r4
   24060:	1810d7fa 	srli	r8,r3,31
   24064:	297fffc4 	addi	r5,r5,-1
   24068:	11800316 	blt	r2,r6,24078 <__ieee754_sqrt+0x90>
   2406c:	1185c83a 	sub	r2,r2,r6
   24070:	310f883a 	add	r7,r6,r4
   24074:	4913883a 	add	r9,r9,r4
   24078:	1085883a 	add	r2,r2,r2
   2407c:	4085883a 	add	r2,r8,r2
   24080:	18c7883a 	add	r3,r3,r3
   24084:	2008d07a 	srli	r4,r4,1
   24088:	283ff41e 	bne	r5,zero,2405c <__ieee754_sqrt+0x74>
   2408c:	01200034 	movhi	r4,32768
   24090:	01800804 	movi	r6,32
   24094:	0011883a 	mov	r8,zero
   24098:	0019883a 	mov	r12,zero
   2409c:	201b883a 	mov	r13,r4
   240a0:	00000806 	br	240c4 <__ieee754_sqrt+0xdc>
   240a4:	38801726 	beq	r7,r2,24104 <__ieee754_sqrt+0x11c>
   240a8:	180ad7fa 	srli	r5,r3,31
   240ac:	1085883a 	add	r2,r2,r2
   240b0:	31bfffc4 	addi	r6,r6,-1
   240b4:	2885883a 	add	r2,r5,r2
   240b8:	18c7883a 	add	r3,r3,r3
   240bc:	2008d07a 	srli	r4,r4,1
   240c0:	30001726 	beq	r6,zero,24120 <__ieee754_sqrt+0x138>
   240c4:	230b883a 	add	r5,r4,r12
   240c8:	38bff60e 	bge	r7,r2,240a4 <__ieee754_sqrt+0xbc>
   240cc:	2ae0002c 	andhi	r11,r5,32768
   240d0:	2919883a 	add	r12,r5,r4
   240d4:	5b400826 	beq	r11,r13,240f8 <__ieee754_sqrt+0x110>
   240d8:	3817883a 	mov	r11,r7
   240dc:	11c5c83a 	sub	r2,r2,r7
   240e0:	1940012e 	bgeu	r3,r5,240e8 <__ieee754_sqrt+0x100>
   240e4:	10bfffc4 	addi	r2,r2,-1
   240e8:	1947c83a 	sub	r3,r3,r5
   240ec:	4111883a 	add	r8,r8,r4
   240f0:	580f883a 	mov	r7,r11
   240f4:	003fec06 	br	240a8 <__ieee754_sqrt+0xc0>
   240f8:	603ff716 	blt	r12,zero,240d8 <__ieee754_sqrt+0xf0>
   240fc:	3ac00044 	addi	r11,r7,1
   24100:	003ff606 	br	240dc <__ieee754_sqrt+0xf4>
   24104:	19401936 	bltu	r3,r5,2416c <__ieee754_sqrt+0x184>
   24108:	2ae0002c 	andhi	r11,r5,32768
   2410c:	2919883a 	add	r12,r5,r4
   24110:	5b404526 	beq	r11,r13,24228 <__ieee754_sqrt+0x240>
   24114:	1017883a 	mov	r11,r2
   24118:	0005883a 	mov	r2,zero
   2411c:	003ff206 	br	240e8 <__ieee754_sqrt+0x100>
   24120:	10c4b03a 	or	r2,r2,r3
   24124:	10000426 	beq	r2,zero,24138 <__ieee754_sqrt+0x150>
   24128:	00bfffc4 	movi	r2,-1
   2412c:	40804026 	beq	r8,r2,24230 <__ieee754_sqrt+0x248>
   24130:	4080004c 	andi	r2,r8,1
   24134:	4091883a 	add	r8,r8,r2
   24138:	4004d07a 	srli	r2,r8,1
   2413c:	4807d07a 	srai	r3,r9,1
   24140:	010ff834 	movhi	r4,16352
   24144:	4a40004c 	andi	r9,r9,1
   24148:	1909883a 	add	r4,r3,r4
   2414c:	4800091e 	bne	r9,zero,24174 <__ieee754_sqrt+0x18c>
   24150:	5006953a 	slli	r3,r10,20
   24154:	1907883a 	add	r3,r3,r4
   24158:	dfc00217 	ldw	ra,8(sp)
   2415c:	dc400117 	ldw	r17,4(sp)
   24160:	dc000017 	ldw	r16,0(sp)
   24164:	dec00304 	addi	sp,sp,12
   24168:	f800283a 	ret
   2416c:	3805883a 	mov	r2,r7
   24170:	003fcd06 	br	240a8 <__ieee754_sqrt+0xc0>
   24174:	10a00034 	orhi	r2,r2,32768
   24178:	003ff506 	br	24150 <__ieee754_sqrt+0x168>
   2417c:	3004d7fa 	srli	r2,r6,31
   24180:	18c7883a 	add	r3,r3,r3
   24184:	318d883a 	add	r6,r6,r6
   24188:	10c7883a 	add	r3,r2,r3
   2418c:	003faa06 	br	24038 <__ieee754_sqrt+0x50>
   24190:	00a00034 	movhi	r2,32768
   24194:	10bfffc4 	addi	r2,r2,-1
   24198:	2884703a 	and	r2,r5,r2
   2419c:	1104b03a 	or	r2,r2,r4
   241a0:	10001e26 	beq	r2,zero,2421c <__ieee754_sqrt+0x234>
   241a4:	2800291e 	bne	r5,zero,2424c <__ieee754_sqrt+0x264>
   241a8:	0015883a 	mov	r10,zero
   241ac:	3020d2fa 	srli	r16,r6,11
   241b0:	52bffac4 	addi	r10,r10,-21
   241b4:	300c957a 	slli	r6,r6,21
   241b8:	803ffc26 	beq	r16,zero,241ac <__ieee754_sqrt+0x1c4>
   241bc:	8080042c 	andhi	r2,r16,16
   241c0:	10001e1e 	bne	r2,zero,2423c <__ieee754_sqrt+0x254>
   241c4:	0005883a 	mov	r2,zero
   241c8:	00000106 	br	241d0 <__ieee754_sqrt+0x1e8>
   241cc:	1805883a 	mov	r2,r3
   241d0:	8421883a 	add	r16,r16,r16
   241d4:	8100042c 	andhi	r4,r16,16
   241d8:	10c00044 	addi	r3,r2,1
   241dc:	203ffb26 	beq	r4,zero,241cc <__ieee754_sqrt+0x1e4>
   241e0:	01000804 	movi	r4,32
   241e4:	20c9c83a 	sub	r4,r4,r3
   241e8:	3108d83a 	srl	r4,r6,r4
   241ec:	5095c83a 	sub	r10,r10,r2
   241f0:	30cc983a 	sll	r6,r6,r3
   241f4:	2420b03a 	or	r16,r4,r16
   241f8:	003f8806 	br	2401c <__ieee754_sqrt+0x34>
   241fc:	280f883a 	mov	r7,r5
   24200:	00282d40 	call	282d4 <__muldf3>
   24204:	880d883a 	mov	r6,r17
   24208:	800f883a 	mov	r7,r16
   2420c:	1009883a 	mov	r4,r2
   24210:	180b883a 	mov	r5,r3
   24214:	0026ee80 	call	26ee8 <__adddf3>
   24218:	003fcf06 	br	24158 <__ieee754_sqrt+0x170>
   2421c:	2005883a 	mov	r2,r4
   24220:	2807883a 	mov	r3,r5
   24224:	003fcc06 	br	24158 <__ieee754_sqrt+0x170>
   24228:	603fba16 	blt	r12,zero,24114 <__ieee754_sqrt+0x12c>
   2422c:	003fb306 	br	240fc <__ieee754_sqrt+0x114>
   24230:	4a400044 	addi	r9,r9,1
   24234:	0005883a 	mov	r2,zero
   24238:	003fc006 	br	2413c <__ieee754_sqrt+0x154>
   2423c:	01000804 	movi	r4,32
   24240:	00bfffc4 	movi	r2,-1
   24244:	0007883a 	mov	r3,zero
   24248:	003fe706 	br	241e8 <__ieee754_sqrt+0x200>
   2424c:	200d883a 	mov	r6,r4
   24250:	280f883a 	mov	r7,r5
   24254:	00289ec0 	call	289ec <__subdf3>
   24258:	100d883a 	mov	r6,r2
   2425c:	180f883a 	mov	r7,r3
   24260:	1009883a 	mov	r4,r2
   24264:	180b883a 	mov	r5,r3
   24268:	00277940 	call	27794 <__divdf3>
   2426c:	003fba06 	br	24158 <__ieee754_sqrt+0x170>

00024270 <__kernel_cos>:
   24270:	defff304 	addi	sp,sp,-52
   24274:	dc000315 	stw	r16,12(sp)
   24278:	04200034 	movhi	r16,32768
   2427c:	843fffc4 	addi	r16,r16,-1
   24280:	008f9034 	movhi	r2,15936
   24284:	df000b15 	stw	fp,44(sp)
   24288:	ddc00a15 	stw	r23,40(sp)
   2428c:	dd800915 	stw	r22,36(sp)
   24290:	dcc00615 	stw	r19,24(sp)
   24294:	dfc00c15 	stw	ra,48(sp)
   24298:	dd400815 	stw	r21,32(sp)
   2429c:	dd000715 	stw	r20,28(sp)
   242a0:	dc800515 	stw	r18,20(sp)
   242a4:	dc400415 	stw	r17,16(sp)
   242a8:	2c20703a 	and	r16,r5,r16
   242ac:	10bfffc4 	addi	r2,r2,-1
   242b0:	2827883a 	mov	r19,r5
   242b4:	202d883a 	mov	r22,r4
   242b8:	302f883a 	mov	r23,r6
   242bc:	3839883a 	mov	fp,r7
   242c0:	14007516 	blt	r2,r16,24498 <__kernel_cos+0x228>
   242c4:	00292e80 	call	292e8 <__fixdfsi>
   242c8:	10010f26 	beq	r2,zero,24708 <__kernel_cos+0x498>
   242cc:	b00d883a 	mov	r6,r22
   242d0:	980f883a 	mov	r7,r19
   242d4:	b009883a 	mov	r4,r22
   242d8:	980b883a 	mov	r5,r19
   242dc:	00282d40 	call	282d4 <__muldf3>
   242e0:	01afa234 	movhi	r6,48776
   242e4:	01ef6a74 	movhi	r7,48553
   242e8:	318e3504 	addi	r6,r6,14548
   242ec:	39feba44 	addi	r7,r7,-1303
   242f0:	1009883a 	mov	r4,r2
   242f4:	180b883a 	mov	r5,r3
   242f8:	102b883a 	mov	r21,r2
   242fc:	1829883a 	mov	r20,r3
   24300:	00282d40 	call	282d4 <__muldf3>
   24304:	01af6d74 	movhi	r6,48565
   24308:	01cf88b4 	movhi	r7,15906
   2430c:	31ac7104 	addi	r6,r6,-20028
   24310:	39fba784 	addi	r7,r7,-4450
   24314:	1009883a 	mov	r4,r2
   24318:	180b883a 	mov	r5,r3
   2431c:	0026ee80 	call	26ee8 <__adddf3>
   24320:	a80d883a 	mov	r6,r21
   24324:	a00f883a 	mov	r7,r20
   24328:	1009883a 	mov	r4,r2
   2432c:	180b883a 	mov	r5,r3
   24330:	00282d40 	call	282d4 <__muldf3>
   24334:	01a02734 	movhi	r6,32924
   24338:	01cfa4b4 	movhi	r7,16018
   2433c:	3194ab44 	addi	r6,r6,21165
   24340:	39df93c4 	addi	r7,r7,32335
   24344:	1009883a 	mov	r4,r2
   24348:	180b883a 	mov	r5,r3
   2434c:	00289ec0 	call	289ec <__subdf3>
   24350:	a80d883a 	mov	r6,r21
   24354:	a00f883a 	mov	r7,r20
   24358:	1009883a 	mov	r4,r2
   2435c:	180b883a 	mov	r5,r3
   24360:	00282d40 	call	282d4 <__muldf3>
   24364:	018672f4 	movhi	r6,6603
   24368:	01cfbeb4 	movhi	r7,16122
   2436c:	31856404 	addi	r6,r6,5520
   24370:	39c06804 	addi	r7,r7,416
   24374:	1009883a 	mov	r4,r2
   24378:	180b883a 	mov	r5,r3
   2437c:	0026ee80 	call	26ee8 <__adddf3>
   24380:	a80d883a 	mov	r6,r21
   24384:	a00f883a 	mov	r7,r20
   24388:	1009883a 	mov	r4,r2
   2438c:	180b883a 	mov	r5,r3
   24390:	00282d40 	call	282d4 <__muldf3>
   24394:	0185b074 	movhi	r6,5825
   24398:	01cfd5f4 	movhi	r7,16215
   2439c:	31945dc4 	addi	r6,r6,20855
   243a0:	39f05b04 	addi	r7,r7,-16020
   243a4:	1009883a 	mov	r4,r2
   243a8:	180b883a 	mov	r5,r3
   243ac:	00289ec0 	call	289ec <__subdf3>
   243b0:	a80d883a 	mov	r6,r21
   243b4:	a00f883a 	mov	r7,r20
   243b8:	1009883a 	mov	r4,r2
   243bc:	180b883a 	mov	r5,r3
   243c0:	00282d40 	call	282d4 <__muldf3>
   243c4:	01955574 	movhi	r6,21845
   243c8:	01cfe974 	movhi	r7,16293
   243cc:	31955304 	addi	r6,r6,21836
   243d0:	39d55544 	addi	r7,r7,21845
   243d4:	1009883a 	mov	r4,r2
   243d8:	180b883a 	mov	r5,r3
   243dc:	0026ee80 	call	26ee8 <__adddf3>
   243e0:	a80d883a 	mov	r6,r21
   243e4:	a00f883a 	mov	r7,r20
   243e8:	1009883a 	mov	r4,r2
   243ec:	180b883a 	mov	r5,r3
   243f0:	00282d40 	call	282d4 <__muldf3>
   243f4:	1017883a 	mov	r11,r2
   243f8:	1815883a 	mov	r10,r3
   243fc:	a809883a 	mov	r4,r21
   24400:	a00b883a 	mov	r5,r20
   24404:	000d883a 	mov	r6,zero
   24408:	01cff834 	movhi	r7,16352
   2440c:	da800215 	stw	r10,8(sp)
   24410:	dac00115 	stw	r11,4(sp)
   24414:	00282d40 	call	282d4 <__muldf3>
   24418:	dac00117 	ldw	r11,4(sp)
   2441c:	da800217 	ldw	r10,8(sp)
   24420:	a809883a 	mov	r4,r21
   24424:	580d883a 	mov	r6,r11
   24428:	500f883a 	mov	r7,r10
   2442c:	a00b883a 	mov	r5,r20
   24430:	1023883a 	mov	r17,r2
   24434:	1821883a 	mov	r16,r3
   24438:	00282d40 	call	282d4 <__muldf3>
   2443c:	b80d883a 	mov	r6,r23
   24440:	e00f883a 	mov	r7,fp
   24444:	b009883a 	mov	r4,r22
   24448:	980b883a 	mov	r5,r19
   2444c:	1029883a 	mov	r20,r2
   24450:	1825883a 	mov	r18,r3
   24454:	00282d40 	call	282d4 <__muldf3>
   24458:	a009883a 	mov	r4,r20
   2445c:	900b883a 	mov	r5,r18
   24460:	100d883a 	mov	r6,r2
   24464:	180f883a 	mov	r7,r3
   24468:	00289ec0 	call	289ec <__subdf3>
   2446c:	8809883a 	mov	r4,r17
   24470:	800b883a 	mov	r5,r16
   24474:	100d883a 	mov	r6,r2
   24478:	180f883a 	mov	r7,r3
   2447c:	00289ec0 	call	289ec <__subdf3>
   24480:	100d883a 	mov	r6,r2
   24484:	180f883a 	mov	r7,r3
   24488:	0009883a 	mov	r4,zero
   2448c:	014ffc34 	movhi	r5,16368
   24490:	00289ec0 	call	289ec <__subdf3>
   24494:	00008b06 	br	246c4 <__kernel_cos+0x454>
   24498:	200d883a 	mov	r6,r4
   2449c:	280f883a 	mov	r7,r5
   244a0:	00282d40 	call	282d4 <__muldf3>
   244a4:	01afa234 	movhi	r6,48776
   244a8:	01ef6a74 	movhi	r7,48553
   244ac:	318e3504 	addi	r6,r6,14548
   244b0:	39feba44 	addi	r7,r7,-1303
   244b4:	1009883a 	mov	r4,r2
   244b8:	180b883a 	mov	r5,r3
   244bc:	1025883a 	mov	r18,r2
   244c0:	1823883a 	mov	r17,r3
   244c4:	00282d40 	call	282d4 <__muldf3>
   244c8:	01af6d74 	movhi	r6,48565
   244cc:	01cf88b4 	movhi	r7,15906
   244d0:	31ac7104 	addi	r6,r6,-20028
   244d4:	39fba784 	addi	r7,r7,-4450
   244d8:	1009883a 	mov	r4,r2
   244dc:	180b883a 	mov	r5,r3
   244e0:	0026ee80 	call	26ee8 <__adddf3>
   244e4:	900d883a 	mov	r6,r18
   244e8:	880f883a 	mov	r7,r17
   244ec:	1009883a 	mov	r4,r2
   244f0:	180b883a 	mov	r5,r3
   244f4:	00282d40 	call	282d4 <__muldf3>
   244f8:	01a02734 	movhi	r6,32924
   244fc:	01cfa4b4 	movhi	r7,16018
   24500:	3194ab44 	addi	r6,r6,21165
   24504:	39df93c4 	addi	r7,r7,32335
   24508:	1009883a 	mov	r4,r2
   2450c:	180b883a 	mov	r5,r3
   24510:	00289ec0 	call	289ec <__subdf3>
   24514:	900d883a 	mov	r6,r18
   24518:	880f883a 	mov	r7,r17
   2451c:	1009883a 	mov	r4,r2
   24520:	180b883a 	mov	r5,r3
   24524:	00282d40 	call	282d4 <__muldf3>
   24528:	018672f4 	movhi	r6,6603
   2452c:	01cfbeb4 	movhi	r7,16122
   24530:	31856404 	addi	r6,r6,5520
   24534:	39c06804 	addi	r7,r7,416
   24538:	1009883a 	mov	r4,r2
   2453c:	180b883a 	mov	r5,r3
   24540:	0026ee80 	call	26ee8 <__adddf3>
   24544:	900d883a 	mov	r6,r18
   24548:	880f883a 	mov	r7,r17
   2454c:	1009883a 	mov	r4,r2
   24550:	180b883a 	mov	r5,r3
   24554:	00282d40 	call	282d4 <__muldf3>
   24558:	0185b074 	movhi	r6,5825
   2455c:	01cfd5f4 	movhi	r7,16215
   24560:	31945dc4 	addi	r6,r6,20855
   24564:	39f05b04 	addi	r7,r7,-16020
   24568:	1009883a 	mov	r4,r2
   2456c:	180b883a 	mov	r5,r3
   24570:	00289ec0 	call	289ec <__subdf3>
   24574:	900d883a 	mov	r6,r18
   24578:	880f883a 	mov	r7,r17
   2457c:	1009883a 	mov	r4,r2
   24580:	180b883a 	mov	r5,r3
   24584:	00282d40 	call	282d4 <__muldf3>
   24588:	01955574 	movhi	r6,21845
   2458c:	01cfe974 	movhi	r7,16293
   24590:	31955304 	addi	r6,r6,21836
   24594:	39d55544 	addi	r7,r7,21845
   24598:	1009883a 	mov	r4,r2
   2459c:	180b883a 	mov	r5,r3
   245a0:	0026ee80 	call	26ee8 <__adddf3>
   245a4:	900d883a 	mov	r6,r18
   245a8:	880f883a 	mov	r7,r17
   245ac:	1009883a 	mov	r4,r2
   245b0:	180b883a 	mov	r5,r3
   245b4:	00282d40 	call	282d4 <__muldf3>
   245b8:	1013883a 	mov	r9,r2
   245bc:	1017883a 	mov	r11,r2
   245c0:	008ff4f4 	movhi	r2,16339
   245c4:	108ccc84 	addi	r2,r2,13106
   245c8:	1811883a 	mov	r8,r3
   245cc:	902b883a 	mov	r21,r18
   245d0:	8829883a 	mov	r20,r17
   245d4:	1815883a 	mov	r10,r3
   245d8:	143f880e 	bge	r2,r16,243fc <__kernel_cos+0x18c>
   245dc:	008ffa74 	movhi	r2,16361
   245e0:	14004416 	blt	r2,r16,246f4 <__kernel_cos+0x484>
   245e4:	00bff834 	movhi	r2,65504
   245e8:	80a1883a 	add	r16,r16,r2
   245ec:	000d883a 	mov	r6,zero
   245f0:	800f883a 	mov	r7,r16
   245f4:	0009883a 	mov	r4,zero
   245f8:	014ffc34 	movhi	r5,16368
   245fc:	da400115 	stw	r9,4(sp)
   24600:	d8c00215 	stw	r3,8(sp)
   24604:	00289ec0 	call	289ec <__subdf3>
   24608:	da000217 	ldw	r8,8(sp)
   2460c:	da400117 	ldw	r9,4(sp)
   24610:	102b883a 	mov	r21,r2
   24614:	d8c00015 	stw	r3,0(sp)
   24618:	9009883a 	mov	r4,r18
   2461c:	880b883a 	mov	r5,r17
   24620:	000d883a 	mov	r6,zero
   24624:	01cff834 	movhi	r7,16352
   24628:	da000215 	stw	r8,8(sp)
   2462c:	da400115 	stw	r9,4(sp)
   24630:	00282d40 	call	282d4 <__muldf3>
   24634:	800f883a 	mov	r7,r16
   24638:	000d883a 	mov	r6,zero
   2463c:	1009883a 	mov	r4,r2
   24640:	180b883a 	mov	r5,r3
   24644:	00289ec0 	call	289ec <__subdf3>
   24648:	da400117 	ldw	r9,4(sp)
   2464c:	da000217 	ldw	r8,8(sp)
   24650:	9009883a 	mov	r4,r18
   24654:	480d883a 	mov	r6,r9
   24658:	400f883a 	mov	r7,r8
   2465c:	880b883a 	mov	r5,r17
   24660:	1029883a 	mov	r20,r2
   24664:	1821883a 	mov	r16,r3
   24668:	00282d40 	call	282d4 <__muldf3>
   2466c:	b80d883a 	mov	r6,r23
   24670:	e00f883a 	mov	r7,fp
   24674:	b009883a 	mov	r4,r22
   24678:	980b883a 	mov	r5,r19
   2467c:	1025883a 	mov	r18,r2
   24680:	1823883a 	mov	r17,r3
   24684:	00282d40 	call	282d4 <__muldf3>
   24688:	100d883a 	mov	r6,r2
   2468c:	180f883a 	mov	r7,r3
   24690:	9009883a 	mov	r4,r18
   24694:	880b883a 	mov	r5,r17
   24698:	00289ec0 	call	289ec <__subdf3>
   2469c:	100d883a 	mov	r6,r2
   246a0:	180f883a 	mov	r7,r3
   246a4:	a009883a 	mov	r4,r20
   246a8:	800b883a 	mov	r5,r16
   246ac:	00289ec0 	call	289ec <__subdf3>
   246b0:	d9400017 	ldw	r5,0(sp)
   246b4:	100d883a 	mov	r6,r2
   246b8:	180f883a 	mov	r7,r3
   246bc:	a809883a 	mov	r4,r21
   246c0:	00289ec0 	call	289ec <__subdf3>
   246c4:	dfc00c17 	ldw	ra,48(sp)
   246c8:	df000b17 	ldw	fp,44(sp)
   246cc:	ddc00a17 	ldw	r23,40(sp)
   246d0:	dd800917 	ldw	r22,36(sp)
   246d4:	dd400817 	ldw	r21,32(sp)
   246d8:	dd000717 	ldw	r20,28(sp)
   246dc:	dcc00617 	ldw	r19,24(sp)
   246e0:	dc800517 	ldw	r18,20(sp)
   246e4:	dc400417 	ldw	r17,16(sp)
   246e8:	dc000317 	ldw	r16,12(sp)
   246ec:	dec00d04 	addi	sp,sp,52
   246f0:	f800283a 	ret
   246f4:	008ff9f4 	movhi	r2,16359
   246f8:	002b883a 	mov	r21,zero
   246fc:	d8800015 	stw	r2,0(sp)
   24700:	040ff4b4 	movhi	r16,16338
   24704:	003fc406 	br	24618 <__kernel_cos+0x3a8>
   24708:	0005883a 	mov	r2,zero
   2470c:	00cffc34 	movhi	r3,16368
   24710:	003fec06 	br	246c4 <__kernel_cos+0x454>

00024714 <__kernel_rem_pio2>:
   24714:	deff5a04 	addi	sp,sp,-664
   24718:	da00a617 	ldw	r8,664(sp)
   2471c:	00c00134 	movhi	r3,4
   24720:	18e09704 	addi	r3,r3,-32164
   24724:	4205883a 	add	r2,r8,r8
   24728:	1085883a 	add	r2,r2,r2
   2472c:	1885883a 	add	r2,r3,r2
   24730:	d9008e15 	stw	r4,568(sp)
   24734:	d9408f15 	stw	r5,572(sp)
   24738:	313fff44 	addi	r4,r6,-3
   2473c:	01400604 	movi	r5,24
   24740:	dd80a215 	stw	r22,648(sp)
   24744:	dc009c15 	stw	r16,624(sp)
   24748:	dfc0a515 	stw	ra,660(sp)
   2474c:	df00a415 	stw	fp,656(sp)
   24750:	ddc0a315 	stw	r23,652(sp)
   24754:	dd40a115 	stw	r21,644(sp)
   24758:	dd00a015 	stw	r20,640(sp)
   2475c:	dcc09f15 	stw	r19,636(sp)
   24760:	dc809e15 	stw	r18,632(sp)
   24764:	dc409d15 	stw	r17,628(sp)
   24768:	3021883a 	mov	r16,r6
   2476c:	d9c09315 	stw	r7,588(sp)
   24770:	15800017 	ldw	r22,0(r2)
   24774:	00259b80 	call	259b8 <__divsi3>
   24778:	da009317 	ldw	r8,588(sp)
   2477c:	d8809215 	stw	r2,584(sp)
   24780:	423fffc4 	addi	r8,r8,-1
   24784:	da008d15 	stw	r8,564(sp)
   24788:	10033b16 	blt	r2,zero,25478 <__kernel_rem_pio2+0xd64>
   2478c:	da009217 	ldw	r8,584(sp)
   24790:	d9009217 	ldw	r4,584(sp)
   24794:	42000044 	addi	r8,r8,1
   24798:	40fffa24 	muli	r3,r8,-24
   2479c:	da009515 	stw	r8,596(sp)
   247a0:	da008d17 	ldw	r8,564(sp)
   247a4:	1c07883a 	add	r3,r3,r16
   247a8:	d8c09015 	stw	r3,576(sp)
   247ac:	b205883a 	add	r2,r22,r8
   247b0:	2223c83a 	sub	r17,r4,r8
   247b4:	10001016 	blt	r2,zero,247f8 <__kernel_rem_pio2+0xe4>
   247b8:	da00a717 	ldw	r8,668(sp)
   247bc:	8c65883a 	add	r18,r17,r17
   247c0:	94a5883a 	add	r18,r18,r18
   247c4:	1445883a 	add	r2,r2,r17
   247c8:	dcc05004 	addi	r19,sp,320
   247cc:	44a5883a 	add	r18,r8,r18
   247d0:	14000044 	addi	r16,r2,1
   247d4:	88015316 	blt	r17,zero,24d24 <__kernel_rem_pio2+0x610>
   247d8:	91000017 	ldw	r4,0(r18)
   247dc:	00293680 	call	29368 <__floatsidf>
   247e0:	98800015 	stw	r2,0(r19)
   247e4:	98c00115 	stw	r3,4(r19)
   247e8:	8c400044 	addi	r17,r17,1
   247ec:	9cc00204 	addi	r19,r19,8
   247f0:	94800104 	addi	r18,r18,4
   247f4:	8c3ff71e 	bne	r17,r16,247d4 <__kernel_rem_pio2+0xc0>
   247f8:	b0002816 	blt	r22,zero,2489c <__kernel_rem_pio2+0x188>
   247fc:	da008d17 	ldw	r8,564(sp)
   24800:	b4c00044 	addi	r19,r22,1
   24804:	982690fa 	slli	r19,r19,3
   24808:	402490fa 	slli	r18,r8,3
   2480c:	da008e17 	ldw	r8,568(sp)
   24810:	d8805004 	addi	r2,sp,320
   24814:	94000204 	addi	r16,r18,8
   24818:	d823883a 	mov	r17,sp
   2481c:	14a5883a 	add	r18,r2,r18
   24820:	dcef883a 	add	r23,sp,r19
   24824:	4421883a 	add	r16,r8,r16
   24828:	dd809115 	stw	r22,580(sp)
   2482c:	4039883a 	mov	fp,r8
   24830:	da008d17 	ldw	r8,564(sp)
   24834:	40016016 	blt	r8,zero,24db8 <__kernel_rem_pio2+0x6a4>
   24838:	e027883a 	mov	r19,fp
   2483c:	9029883a 	mov	r20,r18
   24840:	002d883a 	mov	r22,zero
   24844:	002b883a 	mov	r21,zero
   24848:	a1800017 	ldw	r6,0(r20)
   2484c:	a1c00117 	ldw	r7,4(r20)
   24850:	99000017 	ldw	r4,0(r19)
   24854:	99400117 	ldw	r5,4(r19)
   24858:	9cc00204 	addi	r19,r19,8
   2485c:	a53ffe04 	addi	r20,r20,-8
   24860:	00282d40 	call	282d4 <__muldf3>
   24864:	b009883a 	mov	r4,r22
   24868:	a80b883a 	mov	r5,r21
   2486c:	100d883a 	mov	r6,r2
   24870:	180f883a 	mov	r7,r3
   24874:	0026ee80 	call	26ee8 <__adddf3>
   24878:	102d883a 	mov	r22,r2
   2487c:	182b883a 	mov	r21,r3
   24880:	9c3ff11e 	bne	r19,r16,24848 <__kernel_rem_pio2+0x134>
   24884:	8d800015 	stw	r22,0(r17)
   24888:	8d400115 	stw	r21,4(r17)
   2488c:	8c400204 	addi	r17,r17,8
   24890:	94800204 	addi	r18,r18,8
   24894:	8dffe61e 	bne	r17,r23,24830 <__kernel_rem_pio2+0x11c>
   24898:	dd809117 	ldw	r22,580(sp)
   2489c:	00d00034 	movhi	r3,16384
   248a0:	da009317 	ldw	r8,588(sp)
   248a4:	18ffff84 	addi	r3,r3,-2
   248a8:	b0c7883a 	add	r3,r22,r3
   248ac:	18c7883a 	add	r3,r3,r3
   248b0:	402090fa 	slli	r16,r8,3
   248b4:	18c7883a 	add	r3,r3,r3
   248b8:	da007804 	addi	r8,sp,480
   248bc:	40d1883a 	add	r8,r8,r3
   248c0:	b0bfffc4 	addi	r2,r22,-1
   248c4:	da009615 	stw	r8,600(sp)
   248c8:	da008e17 	ldw	r8,568(sp)
   248cc:	1085883a 	add	r2,r2,r2
   248d0:	1085883a 	add	r2,r2,r2
   248d4:	19000104 	addi	r4,r3,4
   248d8:	d885883a 	add	r2,sp,r2
   248dc:	4421883a 	add	r16,r8,r16
   248e0:	da007804 	addi	r8,sp,480
   248e4:	4111883a 	add	r8,r8,r4
   248e8:	10807804 	addi	r2,r2,480
   248ec:	da009715 	stw	r8,604(sp)
   248f0:	b025883a 	mov	r18,r22
   248f4:	d8809815 	stw	r2,608(sp)
   248f8:	dd809415 	stw	r22,592(sp)
   248fc:	900490fa 	slli	r2,r18,3
   24900:	d885883a 	add	r2,sp,r2
   24904:	17000017 	ldw	fp,0(r2)
   24908:	15400117 	ldw	r21,4(r2)
   2490c:	04802b0e 	bge	zero,r18,249bc <__kernel_rem_pio2+0x2a8>
   24910:	00880034 	movhi	r2,8192
   24914:	10bfffc4 	addi	r2,r2,-1
   24918:	90a9883a 	add	r20,r18,r2
   2491c:	a02890fa 	slli	r20,r20,3
   24920:	dc407804 	addi	r17,sp,480
   24924:	dcfffe04 	addi	r19,sp,-8
   24928:	dd29883a 	add	r20,sp,r20
   2492c:	000d883a 	mov	r6,zero
   24930:	01cf9c34 	movhi	r7,15984
   24934:	e009883a 	mov	r4,fp
   24938:	a80b883a 	mov	r5,r21
   2493c:	00282d40 	call	282d4 <__muldf3>
   24940:	180b883a 	mov	r5,r3
   24944:	1009883a 	mov	r4,r2
   24948:	00292e80 	call	292e8 <__fixdfsi>
   2494c:	1009883a 	mov	r4,r2
   24950:	00293680 	call	29368 <__floatsidf>
   24954:	000d883a 	mov	r6,zero
   24958:	01d05c34 	movhi	r7,16752
   2495c:	1009883a 	mov	r4,r2
   24960:	180b883a 	mov	r5,r3
   24964:	102f883a 	mov	r23,r2
   24968:	182d883a 	mov	r22,r3
   2496c:	00282d40 	call	282d4 <__muldf3>
   24970:	100d883a 	mov	r6,r2
   24974:	180f883a 	mov	r7,r3
   24978:	e009883a 	mov	r4,fp
   2497c:	a80b883a 	mov	r5,r21
   24980:	00289ec0 	call	289ec <__subdf3>
   24984:	180b883a 	mov	r5,r3
   24988:	1009883a 	mov	r4,r2
   2498c:	00292e80 	call	292e8 <__fixdfsi>
   24990:	a1800017 	ldw	r6,0(r20)
   24994:	a1c00117 	ldw	r7,4(r20)
   24998:	88800015 	stw	r2,0(r17)
   2499c:	b809883a 	mov	r4,r23
   249a0:	b00b883a 	mov	r5,r22
   249a4:	0026ee80 	call	26ee8 <__adddf3>
   249a8:	a53ffe04 	addi	r20,r20,-8
   249ac:	1039883a 	mov	fp,r2
   249b0:	182b883a 	mov	r21,r3
   249b4:	8c400104 	addi	r17,r17,4
   249b8:	a4ffdc1e 	bne	r20,r19,2492c <__kernel_rem_pio2+0x218>
   249bc:	d9809017 	ldw	r6,576(sp)
   249c0:	a80b883a 	mov	r5,r21
   249c4:	e009883a 	mov	r4,fp
   249c8:	00258000 	call	25800 <scalbn>
   249cc:	000d883a 	mov	r6,zero
   249d0:	01cff034 	movhi	r7,16320
   249d4:	1009883a 	mov	r4,r2
   249d8:	180b883a 	mov	r5,r3
   249dc:	1027883a 	mov	r19,r2
   249e0:	1823883a 	mov	r17,r3
   249e4:	00282d40 	call	282d4 <__muldf3>
   249e8:	1009883a 	mov	r4,r2
   249ec:	180b883a 	mov	r5,r3
   249f0:	00234700 	call	23470 <floor>
   249f4:	000d883a 	mov	r6,zero
   249f8:	01d00834 	movhi	r7,16416
   249fc:	1009883a 	mov	r4,r2
   24a00:	180b883a 	mov	r5,r3
   24a04:	00282d40 	call	282d4 <__muldf3>
   24a08:	100d883a 	mov	r6,r2
   24a0c:	180f883a 	mov	r7,r3
   24a10:	9809883a 	mov	r4,r19
   24a14:	880b883a 	mov	r5,r17
   24a18:	00289ec0 	call	289ec <__subdf3>
   24a1c:	180b883a 	mov	r5,r3
   24a20:	1009883a 	mov	r4,r2
   24a24:	1827883a 	mov	r19,r3
   24a28:	1029883a 	mov	r20,r2
   24a2c:	00292e80 	call	292e8 <__fixdfsi>
   24a30:	1009883a 	mov	r4,r2
   24a34:	1023883a 	mov	r17,r2
   24a38:	00293680 	call	29368 <__floatsidf>
   24a3c:	a009883a 	mov	r4,r20
   24a40:	100d883a 	mov	r6,r2
   24a44:	180f883a 	mov	r7,r3
   24a48:	980b883a 	mov	r5,r19
   24a4c:	00289ec0 	call	289ec <__subdf3>
   24a50:	d9009017 	ldw	r4,576(sp)
   24a54:	1013883a 	mov	r9,r2
   24a58:	102b883a 	mov	r21,r2
   24a5c:	1811883a 	mov	r8,r3
   24a60:	0100b30e 	bge	zero,r4,24d30 <__kernel_rem_pio2+0x61c>
   24a64:	90bfffc4 	addi	r2,r18,-1
   24a68:	1085883a 	add	r2,r2,r2
   24a6c:	1085883a 	add	r2,r2,r2
   24a70:	d885883a 	add	r2,sp,r2
   24a74:	10807804 	addi	r2,r2,480
   24a78:	d9809017 	ldw	r6,576(sp)
   24a7c:	11400017 	ldw	r5,0(r2)
   24a80:	01000604 	movi	r4,24
   24a84:	2189c83a 	sub	r4,r4,r6
   24a88:	290dd83a 	sra	r6,r5,r4
   24a8c:	d9c09017 	ldw	r7,576(sp)
   24a90:	04c005c4 	movi	r19,23
   24a94:	3108983a 	sll	r4,r6,r4
   24a98:	99e7c83a 	sub	r19,r19,r7
   24a9c:	89a3883a 	add	r17,r17,r6
   24aa0:	2909c83a 	sub	r4,r5,r4
   24aa4:	24e7d83a 	sra	r19,r4,r19
   24aa8:	11000015 	stw	r4,0(r2)
   24aac:	04c02a0e 	bge	zero,r19,24b58 <__kernel_rem_pio2+0x444>
   24ab0:	8c400044 	addi	r17,r17,1
   24ab4:	0481570e 	bge	zero,r18,25014 <__kernel_rem_pio2+0x900>
   24ab8:	02804034 	movhi	r10,256
   24abc:	52bfffc4 	addi	r10,r10,-1
   24ac0:	d8807804 	addi	r2,sp,480
   24ac4:	000b883a 	mov	r5,zero
   24ac8:	0029883a 	mov	r20,zero
   24acc:	01c04034 	movhi	r7,256
   24ad0:	00000706 	br	24af0 <__kernel_rem_pio2+0x3dc>
   24ad4:	390dc83a 	sub	r6,r7,r4
   24ad8:	20000226 	beq	r4,zero,24ae4 <__kernel_rem_pio2+0x3d0>
   24adc:	11800015 	stw	r6,0(r2)
   24ae0:	05000044 	movi	r20,1
   24ae4:	29400044 	addi	r5,r5,1
   24ae8:	10800104 	addi	r2,r2,4
   24aec:	2c80080e 	bge	r5,r18,24b10 <__kernel_rem_pio2+0x3fc>
   24af0:	11000017 	ldw	r4,0(r2)
   24af4:	a03ff726 	beq	r20,zero,24ad4 <__kernel_rem_pio2+0x3c0>
   24af8:	5109c83a 	sub	r4,r10,r4
   24afc:	11000015 	stw	r4,0(r2)
   24b00:	29400044 	addi	r5,r5,1
   24b04:	05000044 	movi	r20,1
   24b08:	10800104 	addi	r2,r2,4
   24b0c:	2cbff816 	blt	r5,r18,24af0 <__kernel_rem_pio2+0x3dc>
   24b10:	d9009017 	ldw	r4,576(sp)
   24b14:	01000e0e 	bge	zero,r4,24b50 <__kernel_rem_pio2+0x43c>
   24b18:	00800044 	movi	r2,1
   24b1c:	20808d26 	beq	r4,r2,24d54 <__kernel_rem_pio2+0x640>
   24b20:	00800084 	movi	r2,2
   24b24:	20800a1e 	bne	r4,r2,24b50 <__kernel_rem_pio2+0x43c>
   24b28:	90bfffc4 	addi	r2,r18,-1
   24b2c:	1085883a 	add	r2,r2,r2
   24b30:	1085883a 	add	r2,r2,r2
   24b34:	d885883a 	add	r2,sp,r2
   24b38:	10807804 	addi	r2,r2,480
   24b3c:	11400017 	ldw	r5,0(r2)
   24b40:	01001034 	movhi	r4,64
   24b44:	213fffc4 	addi	r4,r4,-1
   24b48:	2908703a 	and	r4,r5,r4
   24b4c:	11000015 	stw	r4,0(r2)
   24b50:	00800084 	movi	r2,2
   24b54:	98805d26 	beq	r19,r2,24ccc <__kernel_rem_pio2+0x5b8>
   24b58:	400b883a 	mov	r5,r8
   24b5c:	000d883a 	mov	r6,zero
   24b60:	000f883a 	mov	r7,zero
   24b64:	a809883a 	mov	r4,r21
   24b68:	da009b15 	stw	r8,620(sp)
   24b6c:	002807c0 	call	2807c <__eqdf2>
   24b70:	da009b17 	ldw	r8,620(sp)
   24b74:	10012b1e 	bne	r2,zero,25024 <__kernel_rem_pio2+0x910>
   24b78:	da009417 	ldw	r8,592(sp)
   24b7c:	917fffc4 	addi	r5,r18,-1
   24b80:	2a000e16 	blt	r5,r8,24bbc <__kernel_rem_pio2+0x4a8>
   24b84:	00900034 	movhi	r2,16384
   24b88:	10bfffc4 	addi	r2,r2,-1
   24b8c:	9085883a 	add	r2,r18,r2
   24b90:	1085883a 	add	r2,r2,r2
   24b94:	d9809717 	ldw	r6,604(sp)
   24b98:	1085883a 	add	r2,r2,r2
   24b9c:	d9007804 	addi	r4,sp,480
   24ba0:	0007883a 	mov	r3,zero
   24ba4:	2085883a 	add	r2,r4,r2
   24ba8:	11000017 	ldw	r4,0(r2)
   24bac:	10bfff04 	addi	r2,r2,-4
   24bb0:	1906b03a 	or	r3,r3,r4
   24bb4:	11bffc1e 	bne	r2,r6,24ba8 <__kernel_rem_pio2+0x494>
   24bb8:	1800821e 	bne	r3,zero,24dc4 <__kernel_rem_pio2+0x6b0>
   24bbc:	da009817 	ldw	r8,608(sp)
   24bc0:	40800017 	ldw	r2,0(r8)
   24bc4:	1001151e 	bne	r2,zero,2501c <__kernel_rem_pio2+0x908>
   24bc8:	d8809617 	ldw	r2,600(sp)
   24bcc:	05000044 	movi	r20,1
   24bd0:	10bfff04 	addi	r2,r2,-4
   24bd4:	10c00117 	ldw	r3,4(r2)
   24bd8:	a5000044 	addi	r20,r20,1
   24bdc:	183ffc26 	beq	r3,zero,24bd0 <__kernel_rem_pio2+0x4bc>
   24be0:	9529883a 	add	r20,r18,r20
   24be4:	90800044 	addi	r2,r18,1
   24be8:	dd009115 	stw	r20,580(sp)
   24bec:	a0803216 	blt	r20,r2,24cb8 <__kernel_rem_pio2+0x5a4>
   24bf0:	da009317 	ldw	r8,588(sp)
   24bf4:	d8c09117 	ldw	r3,580(sp)
   24bf8:	44a3883a 	add	r17,r8,r18
   24bfc:	da009217 	ldw	r8,584(sp)
   24c00:	882290fa 	slli	r17,r17,3
   24c04:	40a5883a 	add	r18,r8,r2
   24c08:	da009517 	ldw	r8,596(sp)
   24c0c:	100490fa 	slli	r2,r2,3
   24c10:	94a5883a 	add	r18,r18,r18
   24c14:	40eb883a 	add	r21,r8,r3
   24c18:	da00a717 	ldw	r8,668(sp)
   24c1c:	ad6b883a 	add	r21,r21,r21
   24c20:	94a5883a 	add	r18,r18,r18
   24c24:	ad6b883a 	add	r21,r21,r21
   24c28:	d8c05004 	addi	r3,sp,320
   24c2c:	44a5883a 	add	r18,r8,r18
   24c30:	1c63883a 	add	r17,r3,r17
   24c34:	d8a7883a 	add	r19,sp,r2
   24c38:	456b883a 	add	r21,r8,r21
   24c3c:	91000017 	ldw	r4,0(r18)
   24c40:	00293680 	call	29368 <__floatsidf>
   24c44:	da008d17 	ldw	r8,564(sp)
   24c48:	88800015 	stw	r2,0(r17)
   24c4c:	88c00115 	stw	r3,4(r17)
   24c50:	40001b16 	blt	r8,zero,24cc0 <__kernel_rem_pio2+0x5ac>
   24c54:	dd008e17 	ldw	r20,568(sp)
   24c58:	882d883a 	mov	r22,r17
   24c5c:	002f883a 	mov	r23,zero
   24c60:	0039883a 	mov	fp,zero
   24c64:	b1800017 	ldw	r6,0(r22)
   24c68:	b1c00117 	ldw	r7,4(r22)
   24c6c:	a1000017 	ldw	r4,0(r20)
   24c70:	a1400117 	ldw	r5,4(r20)
   24c74:	a5000204 	addi	r20,r20,8
   24c78:	b5bffe04 	addi	r22,r22,-8
   24c7c:	00282d40 	call	282d4 <__muldf3>
   24c80:	b809883a 	mov	r4,r23
   24c84:	e00b883a 	mov	r5,fp
   24c88:	100d883a 	mov	r6,r2
   24c8c:	180f883a 	mov	r7,r3
   24c90:	0026ee80 	call	26ee8 <__adddf3>
   24c94:	102f883a 	mov	r23,r2
   24c98:	1839883a 	mov	fp,r3
   24c9c:	a43ff11e 	bne	r20,r16,24c64 <__kernel_rem_pio2+0x550>
   24ca0:	9dc00015 	stw	r23,0(r19)
   24ca4:	9f000115 	stw	fp,4(r19)
   24ca8:	94800104 	addi	r18,r18,4
   24cac:	8c400204 	addi	r17,r17,8
   24cb0:	9cc00204 	addi	r19,r19,8
   24cb4:	957fe11e 	bne	r18,r21,24c3c <__kernel_rem_pio2+0x528>
   24cb8:	dc809117 	ldw	r18,580(sp)
   24cbc:	003f0f06 	br	248fc <__kernel_rem_pio2+0x1e8>
   24cc0:	002f883a 	mov	r23,zero
   24cc4:	0039883a 	mov	fp,zero
   24cc8:	003ff506 	br	24ca0 <__kernel_rem_pio2+0x58c>
   24ccc:	480d883a 	mov	r6,r9
   24cd0:	180f883a 	mov	r7,r3
   24cd4:	0009883a 	mov	r4,zero
   24cd8:	014ffc34 	movhi	r5,16368
   24cdc:	00289ec0 	call	289ec <__subdf3>
   24ce0:	102b883a 	mov	r21,r2
   24ce4:	1811883a 	mov	r8,r3
   24ce8:	a03f9b26 	beq	r20,zero,24b58 <__kernel_rem_pio2+0x444>
   24cec:	d9809017 	ldw	r6,576(sp)
   24cf0:	0009883a 	mov	r4,zero
   24cf4:	014ffc34 	movhi	r5,16368
   24cf8:	d8c09b15 	stw	r3,620(sp)
   24cfc:	00258000 	call	25800 <scalbn>
   24d00:	da009b17 	ldw	r8,620(sp)
   24d04:	a809883a 	mov	r4,r21
   24d08:	100d883a 	mov	r6,r2
   24d0c:	400b883a 	mov	r5,r8
   24d10:	180f883a 	mov	r7,r3
   24d14:	00289ec0 	call	289ec <__subdf3>
   24d18:	102b883a 	mov	r21,r2
   24d1c:	1811883a 	mov	r8,r3
   24d20:	003f8d06 	br	24b58 <__kernel_rem_pio2+0x444>
   24d24:	0005883a 	mov	r2,zero
   24d28:	0007883a 	mov	r3,zero
   24d2c:	003eac06 	br	247e0 <__kernel_rem_pio2+0xcc>
   24d30:	d8809017 	ldw	r2,576(sp)
   24d34:	1000121e 	bne	r2,zero,24d80 <__kernel_rem_pio2+0x66c>
   24d38:	90bfffc4 	addi	r2,r18,-1
   24d3c:	1085883a 	add	r2,r2,r2
   24d40:	1085883a 	add	r2,r2,r2
   24d44:	d885883a 	add	r2,sp,r2
   24d48:	14c07817 	ldw	r19,480(r2)
   24d4c:	9827d5fa 	srai	r19,r19,23
   24d50:	003f5606 	br	24aac <__kernel_rem_pio2+0x398>
   24d54:	90bfffc4 	addi	r2,r18,-1
   24d58:	1085883a 	add	r2,r2,r2
   24d5c:	1085883a 	add	r2,r2,r2
   24d60:	d885883a 	add	r2,sp,r2
   24d64:	10807804 	addi	r2,r2,480
   24d68:	11000017 	ldw	r4,0(r2)
   24d6c:	01402034 	movhi	r5,128
   24d70:	297fffc4 	addi	r5,r5,-1
   24d74:	2148703a 	and	r4,r4,r5
   24d78:	11000015 	stw	r4,0(r2)
   24d7c:	003f7406 	br	24b50 <__kernel_rem_pio2+0x43c>
   24d80:	4809883a 	mov	r4,r9
   24d84:	180b883a 	mov	r5,r3
   24d88:	000d883a 	mov	r6,zero
   24d8c:	01cff834 	movhi	r7,16352
   24d90:	d8c09a15 	stw	r3,616(sp)
   24d94:	d8c09b15 	stw	r3,620(sp)
   24d98:	da409915 	stw	r9,612(sp)
   24d9c:	00281040 	call	28104 <__gedf2>
   24da0:	d8c09a17 	ldw	r3,616(sp)
   24da4:	da009b17 	ldw	r8,620(sp)
   24da8:	da409917 	ldw	r9,612(sp)
   24dac:	1000920e 	bge	r2,zero,24ff8 <__kernel_rem_pio2+0x8e4>
   24db0:	0027883a 	mov	r19,zero
   24db4:	003f6806 	br	24b58 <__kernel_rem_pio2+0x444>
   24db8:	002d883a 	mov	r22,zero
   24dbc:	002b883a 	mov	r21,zero
   24dc0:	003eb006 	br	24884 <__kernel_rem_pio2+0x170>
   24dc4:	2945883a 	add	r2,r5,r5
   24dc8:	da009017 	ldw	r8,576(sp)
   24dcc:	1085883a 	add	r2,r2,r2
   24dd0:	d885883a 	add	r2,sp,r2
   24dd4:	10807817 	ldw	r2,480(r2)
   24dd8:	423ffa04 	addi	r8,r8,-24
   24ddc:	dc409115 	stw	r17,580(sp)
   24de0:	dcc08d15 	stw	r19,564(sp)
   24de4:	da009015 	stw	r8,576(sp)
   24de8:	dd809417 	ldw	r22,592(sp)
   24dec:	2823883a 	mov	r17,r5
   24df0:	10000e1e 	bne	r2,zero,24e2c <__kernel_rem_pio2+0x718>
   24df4:	00900034 	movhi	r2,16384
   24df8:	10bfffc4 	addi	r2,r2,-1
   24dfc:	2885883a 	add	r2,r5,r2
   24e00:	1085883a 	add	r2,r2,r2
   24e04:	d8c07804 	addi	r3,sp,480
   24e08:	1085883a 	add	r2,r2,r2
   24e0c:	1885883a 	add	r2,r3,r2
   24e10:	4007883a 	mov	r3,r8
   24e14:	10bfff04 	addi	r2,r2,-4
   24e18:	11000117 	ldw	r4,4(r2)
   24e1c:	8c7fffc4 	addi	r17,r17,-1
   24e20:	18fffa04 	addi	r3,r3,-24
   24e24:	203ffb26 	beq	r4,zero,24e14 <__kernel_rem_pio2+0x700>
   24e28:	d8c09015 	stw	r3,576(sp)
   24e2c:	d9809017 	ldw	r6,576(sp)
   24e30:	0009883a 	mov	r4,zero
   24e34:	014ffc34 	movhi	r5,16368
   24e38:	00258000 	call	25800 <scalbn>
   24e3c:	1029883a 	mov	r20,r2
   24e40:	182b883a 	mov	r21,r3
   24e44:	88018416 	blt	r17,zero,25458 <__kernel_rem_pio2+0xd44>
   24e48:	881090fa 	slli	r8,r17,3
   24e4c:	d8c07804 	addi	r3,sp,480
   24e50:	da008e15 	stw	r8,568(sp)
   24e54:	d8808e17 	ldw	r2,568(sp)
   24e58:	8c51883a 	add	r8,r17,r17
   24e5c:	4211883a 	add	r8,r8,r8
   24e60:	d8a1883a 	add	r16,sp,r2
   24e64:	1a25883a 	add	r18,r3,r8
   24e68:	da3ffe04 	addi	r8,sp,-8
   24e6c:	da008c15 	stw	r8,560(sp)
   24e70:	8039883a 	mov	fp,r16
   24e74:	91000017 	ldw	r4,0(r18)
   24e78:	e73ffe04 	addi	fp,fp,-8
   24e7c:	94bfff04 	addi	r18,r18,-4
   24e80:	00293680 	call	29368 <__floatsidf>
   24e84:	a00d883a 	mov	r6,r20
   24e88:	a80f883a 	mov	r7,r21
   24e8c:	1009883a 	mov	r4,r2
   24e90:	180b883a 	mov	r5,r3
   24e94:	00282d40 	call	282d4 <__muldf3>
   24e98:	a009883a 	mov	r4,r20
   24e9c:	a80b883a 	mov	r5,r21
   24ea0:	e0800215 	stw	r2,8(fp)
   24ea4:	e0c00315 	stw	r3,12(fp)
   24ea8:	000d883a 	mov	r6,zero
   24eac:	01cf9c34 	movhi	r7,15984
   24eb0:	00282d40 	call	282d4 <__muldf3>
   24eb4:	da008c17 	ldw	r8,560(sp)
   24eb8:	1029883a 	mov	r20,r2
   24ebc:	182b883a 	mov	r21,r3
   24ec0:	e23fec1e 	bne	fp,r8,24e74 <__kernel_rem_pio2+0x760>
   24ec4:	0029883a 	mov	r20,zero
   24ec8:	b0004f16 	blt	r22,zero,25008 <__kernel_rem_pio2+0x8f4>
   24ecc:	05400134 	movhi	r21,4
   24ed0:	014ffe74 	movhi	r5,16377
   24ed4:	ad608904 	addi	r21,r21,-32220
   24ed8:	8027883a 	mov	r19,r16
   24edc:	01100034 	movhi	r4,16384
   24ee0:	29487ec4 	addi	r5,r5,8699
   24ee4:	0039883a 	mov	fp,zero
   24ee8:	002f883a 	mov	r23,zero
   24eec:	0025883a 	mov	r18,zero
   24ef0:	00000506 	br	24f08 <__kernel_rem_pio2+0x7f4>
   24ef4:	9cc00204 	addi	r19,r19,8
   24ef8:	a4800f16 	blt	r20,r18,24f38 <__kernel_rem_pio2+0x824>
   24efc:	a9000017 	ldw	r4,0(r21)
   24f00:	a9400117 	ldw	r5,4(r21)
   24f04:	ad400204 	addi	r21,r21,8
   24f08:	99800017 	ldw	r6,0(r19)
   24f0c:	99c00117 	ldw	r7,4(r19)
   24f10:	94800044 	addi	r18,r18,1
   24f14:	00282d40 	call	282d4 <__muldf3>
   24f18:	e009883a 	mov	r4,fp
   24f1c:	b80b883a 	mov	r5,r23
   24f20:	100d883a 	mov	r6,r2
   24f24:	180f883a 	mov	r7,r3
   24f28:	0026ee80 	call	26ee8 <__adddf3>
   24f2c:	1039883a 	mov	fp,r2
   24f30:	182f883a 	mov	r23,r3
   24f34:	b4bfef0e 	bge	r22,r18,24ef4 <__kernel_rem_pio2+0x7e0>
   24f38:	a00490fa 	slli	r2,r20,3
   24f3c:	da008c17 	ldw	r8,560(sp)
   24f40:	843ffe04 	addi	r16,r16,-8
   24f44:	d885883a 	add	r2,sp,r2
   24f48:	10802804 	addi	r2,r2,160
   24f4c:	17000015 	stw	fp,0(r2)
   24f50:	15c00115 	stw	r23,4(r2)
   24f54:	a5000044 	addi	r20,r20,1
   24f58:	823fdb1e 	bne	r16,r8,24ec8 <__kernel_rem_pio2+0x7b4>
   24f5c:	da00a617 	ldw	r8,664(sp)
   24f60:	00800084 	movi	r2,2
   24f64:	12006616 	blt	r2,r8,25100 <__kernel_rem_pio2+0x9ec>
   24f68:	0200de16 	blt	zero,r8,252e4 <__kernel_rem_pio2+0xbd0>
   24f6c:	4000141e 	bne	r8,zero,24fc0 <__kernel_rem_pio2+0x8ac>
   24f70:	da008e17 	ldw	r8,568(sp)
   24f74:	d8802804 	addi	r2,sp,160
   24f78:	0007883a 	mov	r3,zero
   24f7c:	1225883a 	add	r18,r2,r8
   24f80:	043fffc4 	movi	r16,-1
   24f84:	0005883a 	mov	r2,zero
   24f88:	91800017 	ldw	r6,0(r18)
   24f8c:	91c00117 	ldw	r7,4(r18)
   24f90:	1009883a 	mov	r4,r2
   24f94:	180b883a 	mov	r5,r3
   24f98:	8c7fffc4 	addi	r17,r17,-1
   24f9c:	0026ee80 	call	26ee8 <__adddf3>
   24fa0:	94bffe04 	addi	r18,r18,-8
   24fa4:	8c3ff81e 	bne	r17,r16,24f88 <__kernel_rem_pio2+0x874>
   24fa8:	da008d17 	ldw	r8,564(sp)
   24fac:	40000126 	beq	r8,zero,24fb4 <__kernel_rem_pio2+0x8a0>
   24fb0:	18e0003c 	xorhi	r3,r3,32768
   24fb4:	da008f17 	ldw	r8,572(sp)
   24fb8:	40800015 	stw	r2,0(r8)
   24fbc:	40c00115 	stw	r3,4(r8)
   24fc0:	da009117 	ldw	r8,580(sp)
   24fc4:	408001cc 	andi	r2,r8,7
   24fc8:	dfc0a517 	ldw	ra,660(sp)
   24fcc:	df00a417 	ldw	fp,656(sp)
   24fd0:	ddc0a317 	ldw	r23,652(sp)
   24fd4:	dd80a217 	ldw	r22,648(sp)
   24fd8:	dd40a117 	ldw	r21,644(sp)
   24fdc:	dd00a017 	ldw	r20,640(sp)
   24fe0:	dcc09f17 	ldw	r19,636(sp)
   24fe4:	dc809e17 	ldw	r18,632(sp)
   24fe8:	dc409d17 	ldw	r17,628(sp)
   24fec:	dc009c17 	ldw	r16,624(sp)
   24ff0:	dec0a604 	addi	sp,sp,664
   24ff4:	f800283a 	ret
   24ff8:	8c400044 	addi	r17,r17,1
   24ffc:	04810d0e 	bge	zero,r18,25434 <__kernel_rem_pio2+0xd20>
   25000:	04c00084 	movi	r19,2
   25004:	003eac06 	br	24ab8 <__kernel_rem_pio2+0x3a4>
   25008:	0039883a 	mov	fp,zero
   2500c:	002f883a 	mov	r23,zero
   25010:	003fc906 	br	24f38 <__kernel_rem_pio2+0x824>
   25014:	0029883a 	mov	r20,zero
   25018:	003ebd06 	br	24b10 <__kernel_rem_pio2+0x3fc>
   2501c:	05000044 	movi	r20,1
   25020:	003eef06 	br	24be0 <__kernel_rem_pio2+0x4cc>
   25024:	4029883a 	mov	r20,r8
   25028:	da009017 	ldw	r8,576(sp)
   2502c:	a809883a 	mov	r4,r21
   25030:	a00b883a 	mov	r5,r20
   25034:	020dc83a 	sub	r6,zero,r8
   25038:	dc409115 	stw	r17,580(sp)
   2503c:	dd809417 	ldw	r22,592(sp)
   25040:	dcc08d15 	stw	r19,564(sp)
   25044:	00258000 	call	25800 <scalbn>
   25048:	000d883a 	mov	r6,zero
   2504c:	01d05c34 	movhi	r7,16752
   25050:	1009883a 	mov	r4,r2
   25054:	180b883a 	mov	r5,r3
   25058:	102b883a 	mov	r21,r2
   2505c:	1823883a 	mov	r17,r3
   25060:	00281040 	call	28104 <__gedf2>
   25064:	1000e916 	blt	r2,zero,2540c <__kernel_rem_pio2+0xcf8>
   25068:	000d883a 	mov	r6,zero
   2506c:	01cf9c34 	movhi	r7,15984
   25070:	880b883a 	mov	r5,r17
   25074:	a809883a 	mov	r4,r21
   25078:	00282d40 	call	282d4 <__muldf3>
   2507c:	180b883a 	mov	r5,r3
   25080:	1009883a 	mov	r4,r2
   25084:	00292e80 	call	292e8 <__fixdfsi>
   25088:	1029883a 	mov	r20,r2
   2508c:	9485883a 	add	r2,r18,r18
   25090:	1085883a 	add	r2,r2,r2
   25094:	a009883a 	mov	r4,r20
   25098:	d8a1883a 	add	r16,sp,r2
   2509c:	00293680 	call	29368 <__floatsidf>
   250a0:	000d883a 	mov	r6,zero
   250a4:	01d05c34 	movhi	r7,16752
   250a8:	1009883a 	mov	r4,r2
   250ac:	180b883a 	mov	r5,r3
   250b0:	00282d40 	call	282d4 <__muldf3>
   250b4:	880b883a 	mov	r5,r17
   250b8:	100d883a 	mov	r6,r2
   250bc:	180f883a 	mov	r7,r3
   250c0:	a809883a 	mov	r4,r21
   250c4:	00289ec0 	call	289ec <__subdf3>
   250c8:	180b883a 	mov	r5,r3
   250cc:	1009883a 	mov	r4,r2
   250d0:	00292e80 	call	292e8 <__fixdfsi>
   250d4:	da009017 	ldw	r8,576(sp)
   250d8:	94400044 	addi	r17,r18,1
   250dc:	8c47883a 	add	r3,r17,r17
   250e0:	84007804 	addi	r16,r16,480
   250e4:	18c7883a 	add	r3,r3,r3
   250e8:	80800015 	stw	r2,0(r16)
   250ec:	d8c7883a 	add	r3,sp,r3
   250f0:	42000604 	addi	r8,r8,24
   250f4:	da009015 	stw	r8,576(sp)
   250f8:	1d007815 	stw	r20,480(r3)
   250fc:	003f4b06 	br	24e2c <__kernel_rem_pio2+0x718>
   25100:	da00a617 	ldw	r8,664(sp)
   25104:	008000c4 	movi	r2,3
   25108:	40bfad1e 	bne	r8,r2,24fc0 <__kernel_rem_pio2+0x8ac>
   2510c:	0440bc0e 	bge	zero,r17,25400 <__kernel_rem_pio2+0xcec>
   25110:	da008e17 	ldw	r8,568(sp)
   25114:	882090fa 	slli	r16,r17,3
   25118:	dd402804 	addi	r21,sp,160
   2511c:	da05883a 	add	r2,sp,r8
   25120:	10802804 	addi	r2,r2,160
   25124:	15c00017 	ldw	r23,0(r2)
   25128:	15800117 	ldw	r22,4(r2)
   2512c:	8029883a 	mov	r20,r16
   25130:	843ffe04 	addi	r16,r16,-8
   25134:	ac21883a 	add	r16,r21,r16
   25138:	ad29883a 	add	r20,r21,r20
   2513c:	dac02604 	addi	r11,sp,152
   25140:	8811883a 	mov	r8,r17
   25144:	84400017 	ldw	r17,0(r16)
   25148:	87000117 	ldw	fp,4(r16)
   2514c:	b80d883a 	mov	r6,r23
   25150:	b00f883a 	mov	r7,r22
   25154:	8809883a 	mov	r4,r17
   25158:	e00b883a 	mov	r5,fp
   2515c:	da009b15 	stw	r8,620(sp)
   25160:	dac09915 	stw	r11,612(sp)
   25164:	0026ee80 	call	26ee8 <__adddf3>
   25168:	100d883a 	mov	r6,r2
   2516c:	180f883a 	mov	r7,r3
   25170:	8809883a 	mov	r4,r17
   25174:	e00b883a 	mov	r5,fp
   25178:	1027883a 	mov	r19,r2
   2517c:	1825883a 	mov	r18,r3
   25180:	00289ec0 	call	289ec <__subdf3>
   25184:	b80d883a 	mov	r6,r23
   25188:	b00f883a 	mov	r7,r22
   2518c:	1009883a 	mov	r4,r2
   25190:	180b883a 	mov	r5,r3
   25194:	0026ee80 	call	26ee8 <__adddf3>
   25198:	dac09917 	ldw	r11,612(sp)
   2519c:	a0800015 	stw	r2,0(r20)
   251a0:	a0c00115 	stw	r3,4(r20)
   251a4:	84c00015 	stw	r19,0(r16)
   251a8:	84800115 	stw	r18,4(r16)
   251ac:	843ffe04 	addi	r16,r16,-8
   251b0:	a53ffe04 	addi	r20,r20,-8
   251b4:	982f883a 	mov	r23,r19
   251b8:	902d883a 	mov	r22,r18
   251bc:	da009b17 	ldw	r8,620(sp)
   251c0:	5c3fe01e 	bne	r11,r16,25144 <__kernel_rem_pio2+0xa30>
   251c4:	00800044 	movi	r2,1
   251c8:	12008d0e 	bge	r2,r8,25400 <__kernel_rem_pio2+0xcec>
   251cc:	402090fa 	slli	r16,r8,3
   251d0:	da008e17 	ldw	r8,568(sp)
   251d4:	8023883a 	mov	r17,r16
   251d8:	da05883a 	add	r2,sp,r8
   251dc:	10802804 	addi	r2,r2,160
   251e0:	15800017 	ldw	r22,0(r2)
   251e4:	15000117 	ldw	r20,4(r2)
   251e8:	ac63883a 	add	r17,r21,r17
   251ec:	843ffe04 	addi	r16,r16,-8
   251f0:	ac21883a 	add	r16,r21,r16
   251f4:	8825883a 	mov	r18,r17
   251f8:	8811883a 	mov	r8,r17
   251fc:	84400017 	ldw	r17,0(r16)
   25200:	87000117 	ldw	fp,4(r16)
   25204:	b009883a 	mov	r4,r22
   25208:	a00b883a 	mov	r5,r20
   2520c:	880d883a 	mov	r6,r17
   25210:	e00f883a 	mov	r7,fp
   25214:	da009b15 	stw	r8,620(sp)
   25218:	0026ee80 	call	26ee8 <__adddf3>
   2521c:	100d883a 	mov	r6,r2
   25220:	180f883a 	mov	r7,r3
   25224:	8809883a 	mov	r4,r17
   25228:	e00b883a 	mov	r5,fp
   2522c:	102f883a 	mov	r23,r2
   25230:	1827883a 	mov	r19,r3
   25234:	00289ec0 	call	289ec <__subdf3>
   25238:	b00d883a 	mov	r6,r22
   2523c:	a00f883a 	mov	r7,r20
   25240:	1009883a 	mov	r4,r2
   25244:	180b883a 	mov	r5,r3
   25248:	0026ee80 	call	26ee8 <__adddf3>
   2524c:	90800015 	stw	r2,0(r18)
   25250:	90c00115 	stw	r3,4(r18)
   25254:	85c00015 	stw	r23,0(r16)
   25258:	84c00115 	stw	r19,4(r16)
   2525c:	843ffe04 	addi	r16,r16,-8
   25260:	94bffe04 	addi	r18,r18,-8
   25264:	b82d883a 	mov	r22,r23
   25268:	9829883a 	mov	r20,r19
   2526c:	da009b17 	ldw	r8,620(sp)
   25270:	ac3fe21e 	bne	r21,r16,251fc <__kernel_rem_pio2+0xae8>
   25274:	4023883a 	mov	r17,r8
   25278:	dc002a04 	addi	r16,sp,168
   2527c:	0005883a 	mov	r2,zero
   25280:	0007883a 	mov	r3,zero
   25284:	89800017 	ldw	r6,0(r17)
   25288:	89c00117 	ldw	r7,4(r17)
   2528c:	1009883a 	mov	r4,r2
   25290:	8c7ffe04 	addi	r17,r17,-8
   25294:	180b883a 	mov	r5,r3
   25298:	0026ee80 	call	26ee8 <__adddf3>
   2529c:	847ff91e 	bne	r16,r17,25284 <__kernel_rem_pio2+0xb70>
   252a0:	da008d17 	ldw	r8,564(sp)
   252a4:	40004726 	beq	r8,zero,253c4 <__kernel_rem_pio2+0xcb0>
   252a8:	d9002b17 	ldw	r4,172(sp)
   252ac:	d9402917 	ldw	r5,164(sp)
   252b0:	d9802a17 	ldw	r6,168(sp)
   252b4:	da008f17 	ldw	r8,572(sp)
   252b8:	d9c02817 	ldw	r7,160(sp)
   252bc:	2960003c 	xorhi	r5,r5,32768
   252c0:	2120003c 	xorhi	r4,r4,32768
   252c4:	18e0003c 	xorhi	r3,r3,32768
   252c8:	41c00015 	stw	r7,0(r8)
   252cc:	41400115 	stw	r5,4(r8)
   252d0:	41800215 	stw	r6,8(r8)
   252d4:	41000315 	stw	r4,12(r8)
   252d8:	40800415 	stw	r2,16(r8)
   252dc:	40c00515 	stw	r3,20(r8)
   252e0:	003f3706 	br	24fc0 <__kernel_rem_pio2+0x8ac>
   252e4:	da008e17 	ldw	r8,568(sp)
   252e8:	d8802804 	addi	r2,sp,160
   252ec:	dc002604 	addi	r16,sp,152
   252f0:	1225883a 	add	r18,r2,r8
   252f4:	0007883a 	mov	r3,zero
   252f8:	0005883a 	mov	r2,zero
   252fc:	91800017 	ldw	r6,0(r18)
   25300:	91c00117 	ldw	r7,4(r18)
   25304:	1009883a 	mov	r4,r2
   25308:	94bffe04 	addi	r18,r18,-8
   2530c:	180b883a 	mov	r5,r3
   25310:	0026ee80 	call	26ee8 <__adddf3>
   25314:	943ff91e 	bne	r18,r16,252fc <__kernel_rem_pio2+0xbe8>
   25318:	da008d17 	ldw	r8,564(sp)
   2531c:	d9002817 	ldw	r4,160(sp)
   25320:	d9402917 	ldw	r5,164(sp)
   25324:	40001a26 	beq	r8,zero,25390 <__kernel_rem_pio2+0xc7c>
   25328:	da008f17 	ldw	r8,572(sp)
   2532c:	19a0003c 	xorhi	r6,r3,32768
   25330:	180f883a 	mov	r7,r3
   25334:	41800115 	stw	r6,4(r8)
   25338:	40800015 	stw	r2,0(r8)
   2533c:	100d883a 	mov	r6,r2
   25340:	00289ec0 	call	289ec <__subdf3>
   25344:	04400c0e 	bge	zero,r17,25378 <__kernel_rem_pio2+0xc64>
   25348:	dc002a04 	addi	r16,sp,168
   2534c:	04800044 	movi	r18,1
   25350:	81800017 	ldw	r6,0(r16)
   25354:	81c00117 	ldw	r7,4(r16)
   25358:	1009883a 	mov	r4,r2
   2535c:	180b883a 	mov	r5,r3
   25360:	94800044 	addi	r18,r18,1
   25364:	0026ee80 	call	26ee8 <__adddf3>
   25368:	84000204 	addi	r16,r16,8
   2536c:	8cbff80e 	bge	r17,r18,25350 <__kernel_rem_pio2+0xc3c>
   25370:	da008d17 	ldw	r8,564(sp)
   25374:	40004226 	beq	r8,zero,25480 <__kernel_rem_pio2+0xd6c>
   25378:	da008f17 	ldw	r8,572(sp)
   2537c:	1009883a 	mov	r4,r2
   25380:	18a0003c 	xorhi	r2,r3,32768
   25384:	41000215 	stw	r4,8(r8)
   25388:	40800315 	stw	r2,12(r8)
   2538c:	003f0c06 	br	24fc0 <__kernel_rem_pio2+0x8ac>
   25390:	da008f17 	ldw	r8,572(sp)
   25394:	100d883a 	mov	r6,r2
   25398:	180f883a 	mov	r7,r3
   2539c:	40800015 	stw	r2,0(r8)
   253a0:	40c00115 	stw	r3,4(r8)
   253a4:	00289ec0 	call	289ec <__subdf3>
   253a8:	047fe716 	blt	zero,r17,25348 <__kernel_rem_pio2+0xc34>
   253ac:	da008f17 	ldw	r8,572(sp)
   253b0:	1009883a 	mov	r4,r2
   253b4:	1805883a 	mov	r2,r3
   253b8:	41000215 	stw	r4,8(r8)
   253bc:	40800315 	stw	r2,12(r8)
   253c0:	003eff06 	br	24fc0 <__kernel_rem_pio2+0x8ac>
   253c4:	da008f17 	ldw	r8,572(sp)
   253c8:	d9802817 	ldw	r6,160(sp)
   253cc:	d9402a17 	ldw	r5,168(sp)
   253d0:	d9002b17 	ldw	r4,172(sp)
   253d4:	41800015 	stw	r6,0(r8)
   253d8:	d9802917 	ldw	r6,164(sp)
   253dc:	41400215 	stw	r5,8(r8)
   253e0:	41000315 	stw	r4,12(r8)
   253e4:	41800115 	stw	r6,4(r8)
   253e8:	40800415 	stw	r2,16(r8)
   253ec:	40c00515 	stw	r3,20(r8)
   253f0:	003ef306 	br	24fc0 <__kernel_rem_pio2+0x8ac>
   253f4:	da00a617 	ldw	r8,664(sp)
   253f8:	008000c4 	movi	r2,3
   253fc:	40bef01e 	bne	r8,r2,24fc0 <__kernel_rem_pio2+0x8ac>
   25400:	0005883a 	mov	r2,zero
   25404:	0007883a 	mov	r3,zero
   25408:	003fa506 	br	252a0 <__kernel_rem_pio2+0xb8c>
   2540c:	9485883a 	add	r2,r18,r18
   25410:	1085883a 	add	r2,r2,r2
   25414:	d8a1883a 	add	r16,sp,r2
   25418:	880b883a 	mov	r5,r17
   2541c:	a809883a 	mov	r4,r21
   25420:	84007804 	addi	r16,r16,480
   25424:	00292e80 	call	292e8 <__fixdfsi>
   25428:	80800015 	stw	r2,0(r16)
   2542c:	9023883a 	mov	r17,r18
   25430:	003e7e06 	br	24e2c <__kernel_rem_pio2+0x718>
   25434:	a80d883a 	mov	r6,r21
   25438:	400f883a 	mov	r7,r8
   2543c:	0009883a 	mov	r4,zero
   25440:	014ffc34 	movhi	r5,16368
   25444:	00289ec0 	call	289ec <__subdf3>
   25448:	102b883a 	mov	r21,r2
   2544c:	1811883a 	mov	r8,r3
   25450:	04c00084 	movi	r19,2
   25454:	003dc006 	br	24b58 <__kernel_rem_pio2+0x444>
   25458:	da00a617 	ldw	r8,664(sp)
   2545c:	00800084 	movi	r2,2
   25460:	123fe416 	blt	r2,r8,253f4 <__kernel_rem_pio2+0xce0>
   25464:	02000c16 	blt	zero,r8,25498 <__kernel_rem_pio2+0xd84>
   25468:	403ed51e 	bne	r8,zero,24fc0 <__kernel_rem_pio2+0x8ac>
   2546c:	0005883a 	mov	r2,zero
   25470:	0007883a 	mov	r3,zero
   25474:	003ecc06 	br	24fa8 <__kernel_rem_pio2+0x894>
   25478:	d8009215 	stw	zero,584(sp)
   2547c:	003cc306 	br	2478c <__kernel_rem_pio2+0x78>
   25480:	da008f17 	ldw	r8,572(sp)
   25484:	1009883a 	mov	r4,r2
   25488:	1805883a 	mov	r2,r3
   2548c:	41000215 	stw	r4,8(r8)
   25490:	40800315 	stw	r2,12(r8)
   25494:	003eca06 	br	24fc0 <__kernel_rem_pio2+0x8ac>
   25498:	0005883a 	mov	r2,zero
   2549c:	0007883a 	mov	r3,zero
   254a0:	003f9d06 	br	25318 <__kernel_rem_pio2+0xc04>

000254a4 <__kernel_sin>:
   254a4:	00a00034 	movhi	r2,32768
   254a8:	defff404 	addi	sp,sp,-48
   254ac:	10bfffc4 	addi	r2,r2,-1
   254b0:	00cf9034 	movhi	r3,15936
   254b4:	ddc00915 	stw	r23,36(sp)
   254b8:	dd800815 	stw	r22,32(sp)
   254bc:	dc400315 	stw	r17,12(sp)
   254c0:	dc000215 	stw	r16,8(sp)
   254c4:	dfc00b15 	stw	ra,44(sp)
   254c8:	df000a15 	stw	fp,40(sp)
   254cc:	dd400715 	stw	r21,28(sp)
   254d0:	dd000615 	stw	r20,24(sp)
   254d4:	dcc00515 	stw	r19,20(sp)
   254d8:	dc800415 	stw	r18,16(sp)
   254dc:	2884703a 	and	r2,r5,r2
   254e0:	18ffffc4 	addi	r3,r3,-1
   254e4:	2821883a 	mov	r16,r5
   254e8:	2023883a 	mov	r17,r4
   254ec:	302f883a 	mov	r23,r6
   254f0:	382d883a 	mov	r22,r7
   254f4:	18800216 	blt	r3,r2,25500 <__kernel_sin+0x5c>
   254f8:	00292e80 	call	292e8 <__fixdfsi>
   254fc:	10009926 	beq	r2,zero,25764 <__kernel_sin+0x2c0>
   25500:	880d883a 	mov	r6,r17
   25504:	800f883a 	mov	r7,r16
   25508:	8809883a 	mov	r4,r17
   2550c:	800b883a 	mov	r5,r16
   25510:	00282d40 	call	282d4 <__muldf3>
   25514:	100d883a 	mov	r6,r2
   25518:	180f883a 	mov	r7,r3
   2551c:	8809883a 	mov	r4,r17
   25520:	800b883a 	mov	r5,r16
   25524:	1027883a 	mov	r19,r2
   25528:	1825883a 	mov	r18,r3
   2552c:	00282d40 	call	282d4 <__muldf3>
   25530:	0196b434 	movhi	r6,23248
   25534:	01cf79b4 	movhi	r7,15846
   25538:	31b55f04 	addi	r6,r6,-10884
   2553c:	39f64e84 	addi	r7,r7,-9926
   25540:	9809883a 	mov	r4,r19
   25544:	900b883a 	mov	r5,r18
   25548:	102b883a 	mov	r21,r2
   2554c:	1829883a 	mov	r20,r3
   25550:	00282d40 	call	282d4 <__muldf3>
   25554:	01a28b34 	movhi	r6,35372
   25558:	01cf96f4 	movhi	r7,15963
