
Lab4_6_SoundAcquisition.elf:     file format elf32-littlenios2
Lab4_6_SoundAcquisition.elf
architecture: nios2:r1, flags 0x00000112:
EXEC_P, HAS_SYMS, D_PAGED
start address 0x00020248

Program Header:
    LOAD off    0x00001000 vaddr 0x00020000 paddr 0x00020000 align 2**12
         filesz 0x00000020 memsz 0x00000020 flags r-x
    LOAD off    0x00001020 vaddr 0x00020020 paddr 0x00020020 align 2**12
         filesz 0x00016560 memsz 0x00016560 flags r-x
    LOAD off    0x00017580 vaddr 0x00036580 paddr 0x00038188 align 2**12
         filesz 0x00001c08 memsz 0x00001c08 flags rw-
    LOAD off    0x00019d90 vaddr 0x00039d90 paddr 0x00039d90 align 2**12
         filesz 0x00000000 memsz 0x00000190 flags rw-

Sections:
Idx Name          Size      VMA       LMA       File off  Algn
  0 .entry        00000020  00020000  00020000  00001000  2**5
                  CONTENTS, ALLOC, LOAD, READONLY, CODE
  1 .exceptions   00000228  00020020  00020020  00001020  2**2
                  CONTENTS, ALLOC, LOAD, READONLY, CODE
  2 .text         000159bc  00020248  00020248  00001248  2**2
                  CONTENTS, ALLOC, LOAD, READONLY, CODE
  3 .rodata       0000097c  00035c04  00035c04  00016c04  2**2
                  CONTENTS, ALLOC, LOAD, READONLY, DATA
  4 .rwdata       00001c08  00036580  00038188  00017580  2**2
                  CONTENTS, ALLOC, LOAD, DATA, SMALL_DATA
  5 .bss          00000190  00039d90  00039d90  00019d90  2**2
                  ALLOC, SMALL_DATA
  6 .onchip_memory 00000000  00039f20  00039f20  00019188  2**0
                  CONTENTS
  7 .SDRAM_controller 00000000  04000000  04000000  00019188  2**0
                  CONTENTS
  8 .comment      00000023  00000000  00000000  00019188  2**0
                  CONTENTS, READONLY
  9 .debug_aranges 00001270  00000000  00000000  000191b0  2**3
                  CONTENTS, READONLY, DEBUGGING
 10 .debug_info   00029389  00000000  00000000  0001a420  2**0
                  CONTENTS, READONLY, DEBUGGING
 11 .debug_abbrev 0000b203  00000000  00000000  000437a9  2**0
                  CONTENTS, READONLY, DEBUGGING
 12 .debug_line   0000e5a7  00000000  00000000  0004e9ac  2**0
                  CONTENTS, READONLY, DEBUGGING
 13 .debug_frame  00002fd4  00000000  00000000  0005cf54  2**2
                  CONTENTS, READONLY, DEBUGGING
 14 .debug_str    00004d17  00000000  00000000  0005ff28  2**0
                  CONTENTS, READONLY, DEBUGGING
 15 .debug_loc    0001cc9d  00000000  00000000  00064c3f  2**0
                  CONTENTS, READONLY, DEBUGGING
 16 .debug_alt_sim_info 00000060  00000000  00000000  000818dc  2**2
                  CONTENTS, READONLY, DEBUGGING
 17 .debug_ranges 00001f80  00000000  00000000  00081940  2**3
                  CONTENTS, READONLY, DEBUGGING
 18 .thread_model 00000003  00000000  00000000  00087cb6  2**0
                  CONTENTS, READONLY
 19 .cpu          00000017  00000000  00000000  00087cb9  2**0
                  CONTENTS, READONLY
 20 .qsys         00000001  00000000  00000000  00087cd0  2**0
                  CONTENTS, READONLY
 21 .simulation_enabled 00000001  00000000  00000000  00087cd1  2**0
                  CONTENTS, READONLY
 22 .sysid_hash   00000004  00000000  00000000  00087cd2  2**0
                  CONTENTS, READONLY
 23 .sysid_base   00000004  00000000  00000000  00087cd6  2**0
                  CONTENTS, READONLY
 24 .sysid_time   00000004  00000000  00000000  00087cda  2**0
                  CONTENTS, READONLY
 25 .stderr_dev   0000000b  00000000  00000000  00087cde  2**0
                  CONTENTS, READONLY
 26 .stdin_dev    0000000b  00000000  00000000  00087ce9  2**0
                  CONTENTS, READONLY
 27 .stdout_dev   0000000b  00000000  00000000  00087cf4  2**0
                  CONTENTS, READONLY
 28 .sopc_system_name 0000000b  00000000  00000000  00087cff  2**0
                  CONTENTS, READONLY
 29 .quartus_project_dir 00000041  00000000  00000000  00087d0a  2**0
                  CONTENTS, READONLY
 30 .jdi          0000baf4  00000000  00000000  00087d4b  2**0
                  CONTENTS, READONLY
 31 .sopcinfo     000cfc96  00000000  00000000  0009383f  2**0
                  CONTENTS, READONLY
SYMBOL TABLE:
00020000 l    d  .entry	00000000 .entry
00020020 l    d  .exceptions	00000000 .exceptions
00020248 l    d  .text	00000000 .text
00035c04 l    d  .rodata	00000000 .rodata
00036580 l    d  .rwdata	00000000 .rwdata
00039d90 l    d  .bss	00000000 .bss
00039f20 l    d  .onchip_memory	00000000 .onchip_memory
04000000 l    d  .SDRAM_controller	00000000 .SDRAM_controller
00000000 l    d  .comment	00000000 .comment
00000000 l    d  .debug_aranges	00000000 .debug_aranges
00000000 l    d  .debug_info	00000000 .debug_info
00000000 l    d  .debug_abbrev	00000000 .debug_abbrev
00000000 l    d  .debug_line	00000000 .debug_line
00000000 l    d  .debug_frame	00000000 .debug_frame
00000000 l    d  .debug_str	00000000 .debug_str
00000000 l    d  .debug_loc	00000000 .debug_loc
00000000 l    d  .debug_alt_sim_info	00000000 .debug_alt_sim_info
00000000 l    d  .debug_ranges	00000000 .debug_ranges
00000000 l    df *ABS*	00000000 ../Lab4_6_SoundAcquisition_bsp//obj/HAL/src/crt0.o
00020290 l       .text	00000000 alt_after_alt_main
00000000 l    df *ABS*	00000000 alt_irq_handler.c
00000000 l    df *ABS*	00000000 alt_instruction_exception_entry.c
00000000 l    df *ABS*	00000000 SoundAcquisition.c
00038130 l     O .rwdata	00000004 first_available_address.3404
00000000 l    df *ABS*	00000000 s_sin.c
00000000 l    df *ABS*	00000000 w_sqrt.c
00000000 l    df *ABS*	00000000 e_rem_pio2.c
000360ac l     O .rodata	00000108 two_over_pi
0003602c l     O .rodata	00000080 npio2_hw
00000000 l    df *ABS*	00000000 e_sqrt.c
00000000 l    df *ABS*	00000000 k_cos.c
00000000 l    df *ABS*	00000000 k_rem_pio2.c
000361f4 l     O .rodata	00000010 init_jk
000361b4 l     O .rodata	00000040 PIo2
00000000 l    df *ABS*	00000000 k_sin.c
00000000 l    df *ABS*	00000000 s_fabs.c
00000000 l    df *ABS*	00000000 s_floor.c
00000000 l    df *ABS*	00000000 s_fpclassify.c
00000000 l    df *ABS*	00000000 s_lib_ver.c
00000000 l    df *ABS*	00000000 s_matherr.c
00000000 l    df *ABS*	00000000 s_scalbn.c
00000000 l    df *ABS*	00000000 s_copysign.c
00000000 l    df *ABS*	00000000 libgcc2.c
00000000 l    df *ABS*	00000000 lib2-divmod.c
00000000 l    df *ABS*	00000000 addsf3.c
00000000 l    df *ABS*	00000000 divsf3.c
00000000 l    df *ABS*	00000000 gesf2.c
00000000 l    df *ABS*	00000000 lesf2.c
00000000 l    df *ABS*	00000000 mulsf3.c
00000000 l    df *ABS*	00000000 subsf3.c
00000000 l    df *ABS*	00000000 fixsfsi.c
00000000 l    df *ABS*	00000000 floatsisf.c
00000000 l    df *ABS*	00000000 adddf3.c
00000000 l    df *ABS*	00000000 divdf3.c
00000000 l    df *ABS*	00000000 eqdf2.c
00000000 l    df *ABS*	00000000 gedf2.c
00000000 l    df *ABS*	00000000 ledf2.c
00000000 l    df *ABS*	00000000 muldf3.c
00000000 l    df *ABS*	00000000 subdf3.c
00000000 l    df *ABS*	00000000 fixdfsi.c
00000000 l    df *ABS*	00000000 floatsidf.c
00000000 l    df *ABS*	00000000 extendsfdf2.c
00000000 l    df *ABS*	00000000 truncdfsf2.c
00000000 l    df *ABS*	00000000 libgcc2.c
00000000 l    df *ABS*	00000000 libgcc2.c
00000000 l    df *ABS*	00000000 errno.c
00000000 l    df *ABS*	00000000 impure.c
00036580 l     O .rwdata	00000424 impure_data
00000000 l    df *ABS*	00000000 printf.c
00000000 l    df *ABS*	00000000 puts.c
00000000 l    df *ABS*	00000000 strlen.c
00000000 l    df *ABS*	00000000 vfprintf.c
0003634e l     O .rodata	00000010 zeroes.4404
00029b14 l     F .text	000000bc __sbprintf
0003635e l     O .rodata	00000010 blanks.4403
00000000 l    df *ABS*	00000000 wsetup.c
00000000 l    df *ABS*	00000000 dtoa.c
00029d24 l     F .text	00000200 quorem
00000000 l    df *ABS*	00000000 fflush.c
00000000 l    df *ABS*	00000000 findfp.c
0002b854 l     F .text	00000008 __fp_unlock
0002b868 l     F .text	0000019c __sinit.part.1
0002ba04 l     F .text	00000008 __fp_lock
00000000 l    df *ABS*	00000000 mallocr.c
00000000 l    df *ABS*	00000000 fvwrite.c
00000000 l    df *ABS*	00000000 fwalk.c
00000000 l    df *ABS*	00000000 locale.c
000369c4 l     O .rwdata	00000020 lc_ctype_charset
000369a4 l     O .rwdata	00000020 lc_message_charset
000369e4 l     O .rwdata	00000038 lconv
00000000 l    df *ABS*	00000000 makebuf.c
00000000 l    df *ABS*	00000000 mallocr.c
00000000 l    df *ABS*	00000000 memchr.c
00000000 l    df *ABS*	00000000 memcpy.c
00000000 l    df *ABS*	00000000 memmove.c
00000000 l    df *ABS*	00000000 memset.c
00000000 l    df *ABS*	00000000 mprec.c
0003638c l     O .rodata	0000000c p05.2768
00000000 l    df *ABS*	00000000 mallocr.c
00000000 l    df *ABS*	00000000 sbrkr.c
00000000 l    df *ABS*	00000000 stdio.c
00000000 l    df *ABS*	00000000 strcmp.c
00000000 l    df *ABS*	00000000 vfprintf.c
0002ed8c l     F .text	000000fc __sprint_r.part.0
000364c0 l     O .rodata	00000010 blanks.4348
000364b0 l     O .rodata	00000010 zeroes.4349
00030318 l     F .text	000000bc __sbprintf
00000000 l    df *ABS*	00000000 writer.c
00000000 l    df *ABS*	00000000 closer.c
00000000 l    df *ABS*	00000000 mallocr.c
00000000 l    df *ABS*	00000000 fclose.c
00000000 l    df *ABS*	00000000 fputwc.c
00000000 l    df *ABS*	00000000 fstatr.c
00000000 l    df *ABS*	00000000 int_errno.c
00000000 l    df *ABS*	00000000 isattyr.c
00000000 l    df *ABS*	00000000 lseekr.c
00000000 l    df *ABS*	00000000 readr.c
00000000 l    df *ABS*	00000000 wbuf.c
00000000 l    df *ABS*	00000000 wcrtomb.c
00000000 l    df *ABS*	00000000 wctomb_r.c
00000000 l    df *ABS*	00000000 libgcc2.c
00000000 l    df *ABS*	00000000 libgcc2.c
00000000 l    df *ABS*	00000000 floatunsidf.c
00000000 l    df *ABS*	00000000 alt_close.c
00031860 l     F .text	0000003c alt_get_errno
00000000 l    df *ABS*	00000000 alt_dev.c
0003196c l     F .text	0000002c alt_dev_null_write
00000000 l    df *ABS*	00000000 alt_errno.c
00000000 l    df *ABS*	00000000 alt_fstat.c
00031998 l     F .text	0000003c alt_get_errno
00000000 l    df *ABS*	00000000 alt_isatty.c
00031a84 l     F .text	0000003c alt_get_errno
00000000 l    df *ABS*	00000000 alt_load.c
00031b64 l     F .text	00000068 alt_load_section
00000000 l    df *ABS*	00000000 alt_lseek.c
00031c50 l     F .text	0000003c alt_get_errno
00000000 l    df *ABS*	00000000 alt_main.c
00000000 l    df *ABS*	00000000 alt_malloc_lock.c
00000000 l    df *ABS*	00000000 alt_read.c
00031e24 l     F .text	0000003c alt_get_errno
00000000 l    df *ABS*	00000000 alt_release_fd.c
00000000 l    df *ABS*	00000000 alt_sbrk.c
00038168 l     O .rwdata	00000004 heap_end
00000000 l    df *ABS*	00000000 alt_usleep.c
00000000 l    df *ABS*	00000000 alt_write.c
000320a0 l     F .text	0000003c alt_get_errno
00000000 l    df *ABS*	00000000 alt_sys_init.c
000321d4 l     F .text	00000034 alt_dev_reg
00032208 l     F .text	0000003c alt_get_errno
00032244 l     F .text	00000068 alt_avalon_mutex_reg
00036fcc l     O .rwdata	00001060 jtag_uart_0
0003802c l     O .rwdata	00000048 mailbox_to_FFT
00038074 l     O .rwdata	00000048 mailbox_to_Sound_Acquisition
000380bc l     O .rwdata	00000010 mutex_SDRAM
000380cc l     O .rwdata	00000030 audio_and_video_config_0
000380fc l     O .rwdata	00000030 audio_0
00000000 l    df *ABS*	00000000 altera_avalon_jtag_uart_fd.c
00000000 l    df *ABS*	00000000 altera_avalon_jtag_uart_init.c
000325ac l     F .text	00000210 altera_avalon_jtag_uart_irq
000327bc l     F .text	000000a0 altera_avalon_jtag_uart_timeout
00000000 l    df *ABS*	00000000 altera_avalon_jtag_uart_ioctl.c
00000000 l    df *ABS*	00000000 altera_avalon_jtag_uart_read.c
00000000 l    df *ABS*	00000000 altera_avalon_jtag_uart_write.c
00000000 l    df *ABS*	00000000 altera_avalon_mailbox_simple.c
00032df4 l     F .text	00000090 altera_avalon_mailbox_identify
00032e84 l     F .text	00000078 altera_avalon_mailbox_post
00032efc l     F .text	0000013c altera_avalon_mailbox_simple_tx_isr
00033038 l     F .text	000000ac altera_avalon_mailbox_simple_rx_isr
00000000 l    df *ABS*	00000000 altera_avalon_mutex.c
0003372c l     F .text	0000003c alt_get_errno
00033768 l     F .text	0000007c alt_mutex_trylock
00000000 l    df *ABS*	00000000 altera_avalon_timer_sc.c
000339f8 l     F .text	0000007c alt_avalon_timer_sc_irq
00000000 l    df *ABS*	00000000 altera_up_avalon_audio.c
00000000 l    df *ABS*	00000000 altera_up_avalon_audio_and_video_config.c
00000000 l    df *ABS*	00000000 alt_alarm_start.c
00000000 l    df *ABS*	00000000 alt_busy_sleep.c
00000000 l    df *ABS*	00000000 alt_dcache_flush_all.c
00000000 l    df *ABS*	00000000 alt_dev_llist_insert.c
00034c58 l     F .text	0000003c alt_get_errno
00000000 l    df *ABS*	00000000 alt_do_ctors.c
00000000 l    df *ABS*	00000000 alt_do_dtors.c
00000000 l    df *ABS*	00000000 alt_find_dev.c
00000000 l    df *ABS*	00000000 alt_icache_flush_all.c
00000000 l    df *ABS*	00000000 alt_io_redirect.c
00034ebc l     F .text	000000c4 alt_open_fd
00000000 l    df *ABS*	00000000 alt_irq_register.c
00000000 l    df *ABS*	00000000 alt_irq_vars.c
00000000 l    df *ABS*	00000000 alt_open.c
0003517c l     F .text	0000003c alt_get_errno
000351b8 l     F .text	000000c4 alt_file_locked
00000000 l    df *ABS*	00000000 alt_tick.c
00000000 l    df *ABS*	00000000 altera_nios2_gen2_irq.c
00000000 l    df *ABS*	00000000 alt_find_file.c
00000000 l    df *ABS*	00000000 alt_get_fd.c
00000000 l    df *ABS*	00000000 alt_icache_flush.c
00000000 l    df *ABS*	00000000 atexit.c
00000000 l    df *ABS*	00000000 exit.c
00000000 l    df *ABS*	00000000 memcmp.c
00000000 l    df *ABS*	00000000 __atexit.c
00000000 l    df *ABS*	00000000 __call_atexit.c
00000000 l    df *ABS*	00000000 alt_exit.c
00039dc4 g     O .bss	00000004 alt_instruction_exception_handler
000343d4 g     F .text	00000038 alt_up_av_config_reset
0002e444 g     F .text	00000074 _mprec_log10
0003482c g     F .text	00000058 alt_up_av_config_read_D5M_cfg_register
000334a0 g     F .text	00000150 altera_avalon_mailbox_send
0002e530 g     F .text	0000008c __any_on
000308b4 g     F .text	00000054 _isatty_r
00036398 g     O .rodata	00000028 __mprec_tinytens
00034444 g     F .text	00000034 alt_up_av_config_disable_interrupt
00031d60 g     F .text	0000007c alt_main
00027794 g     F .text	000000c0 _puts_r
00039e20 g     O .bss	00000100 alt_irq
00023344 g     F .text	00000014 fabs
00030908 g     F .text	00000060 _lseek_r
00021320 g     F .text	00000130 sqrt
00038188 g       *ABS*	00000000 __flash_rwdata_start
00026034 g     F .text	00000088 .hidden __eqdf2
00033d90 g     F .text	00000060 alt_up_audio_read_fifo_avail
00034508 g     F .text	000000a4 alt_up_av_config_write_audio_cfg_register
00039f20 g       *ABS*	00000000 __alt_heap_start
00027758 g     F .text	0000003c printf
00033df0 g     F .text	00000068 alt_up_audio_record_r
00030b20 g     F .text	0000009c _wcrtomb_r
0002ec4c g     F .text	0000005c __sseek
0002bba4 g     F .text	00000010 __sinit
000309c8 g     F .text	00000140 __swbuf_r
0002c66c g     F .text	0000007c _setlocale_r
0002ba0c g     F .text	00000068 __sfmoreglue
00031e00 g     F .text	00000024 __malloc_unlock
00023e68 g     F .text	00000440 .hidden __divsf3
00033cfc g     F .text	00000094 alt_up_audio_reset_audio_core
0002d33c g     F .text	0000015c memmove
0002bb8c g     F .text	00000018 _cleanup
000338a0 g     F .text	00000040 altera_avalon_mutex_trylock
0002d5c0 g     F .text	000000a8 _Balloc
00024d0c g     F .text	00000070 .hidden __fixsfsi
000260bc g     F .text	000000dc .hidden __gtdf2
00035574 g     F .text	00000024 altera_nios2_gen2_irq_init
00027718 g     F .text	00000010 __errno
00020000 g     F .entry	0000001c __reset
00033934 g     F .text	00000074 altera_avalon_mutex_is_mine
00020020 g       *ABS*	00000000 __flash_exceptions_start
00030858 g     F .text	0000005c _fstat_r
00039da8 g     O .bss	00000004 errno
00023358 g     F .text	000001ec floor
0002ebc8 g     F .text	00000008 __seofread
00033cbc g     F .text	00000040 alt_up_audio_write_interrupt_pending
00039db0 g     O .bss	00000004 alt_argv
0004012c g       *ABS*	00000000 _gp
000335f0 g     F .text	0000013c altera_avalon_mailbox_retrieve_poll
00032070 g     F .text	00000030 usleep
00024828 g     F .text	000004e4 .hidden __subsf3
00036e4c g     O .rwdata	00000180 alt_fd_list
00021450 g     F .text	0000076c __ieee754_rem_pio2
00034df8 g     F .text	00000090 alt_find_dev
0002d1f4 g     F .text	00000148 memcpy
0002b85c g     F .text	0000000c _cleanup_r
00027320 g     F .text	000000dc .hidden __floatsidf
00034f80 g     F .text	0000007c alt_io_redirect
00026198 g     F .text	000000f4 .hidden __ltdf2
00035c04 g       *ABS*	00000000 __DTOR_END__
00027854 g     F .text	00000014 puts
000357d4 g     F .text	0000009c alt_exception_cause_generated_bad_addr
000330e4 g     F .text	00000078 altera_avalon_mailbox_simple_init
00023544 g     F .text	00000074 __fpclassifyd
0002e3a0 g     F .text	000000a4 __ratio
000302fc g     F .text	0000001c __vfiprintf_internal
000341d8 g     F .text	00000050 alt_up_audio_read_fifo_head
000329b4 g     F .text	0000021c altera_avalon_jtag_uart_read
00027728 g     F .text	00000030 _printf_r
000238e4 g     F .text	00000064 .hidden __udivsi3
00031ac0 g     F .text	000000a4 isatty
000363e8 g     O .rodata	000000c8 __mprec_tens
00033428 g     F .text	00000078 altera_avalon_mailbox_status
00033320 g     F .text	00000108 altera_avalon_mailbox_close
0002c6e8 g     F .text	0000000c __locale_charset
00021e44 g     F .text	000004a4 __kernel_cos
00024364 g     F .text	000000c8 .hidden __lesf2
00023778 g     F .text	00000074 .hidden __fixunsdfsi
00035744 g     F .text	00000090 alt_icache_flush
00039da4 g     O .bss	00000004 __malloc_top_pad
00034354 g     F .text	00000080 alt_up_av_config_read_data
00038140 g     O .rwdata	00000004 __mb_cur_max
0002c718 g     F .text	0000000c _localeconv_r
0002d9cc g     F .text	0000003c __i2b
0002c028 g     F .text	000004bc __sfvwrite_r
0002eb20 g     F .text	00000054 _sbrk_r
00030968 g     F .text	00000060 _read_r
00038160 g     O .rwdata	00000004 alt_max_fd
00034228 g     F .text	00000068 alt_up_audio_write_fifo_head
0003054c g     F .text	000000f0 _fclose_r
0002b824 g     F .text	00000030 fflush
00039da0 g     O .bss	00000004 __malloc_max_sbrked_mem
00034ffc g     F .text	00000180 alt_irq_register
00020964 g     F .text	000000b8 new_audio_file
00023078 g     F .text	000002cc __kernel_sin
000273fc g     F .text	00000110 .hidden __extendsfdf2
00024ea0 g     F .text	000008ac .hidden __adddf3
0002e148 g     F .text	0000010c __b2d
00031280 g     F .text	00000538 .hidden __umoddi3
00031c8c g     F .text	000000d4 lseek
000339a8 g     F .text	00000050 altera_avalon_mutex_first_lock
00038134 g     O .rwdata	00000004 __fdlib_version
00038138 g     O .rwdata	00000004 _global_impure_ptr
0002e5bc g     F .text	00000564 _realloc_r
00039f20 g       *ABS*	00000000 __bss_end
0003546c g     F .text	00000108 alt_tick
00030d08 g     F .text	00000578 .hidden __udivdi3
000307b4 g     F .text	00000024 _fputwc_r
000207e0 g     F .text	00000184 start_recording
000363c0 g     O .rodata	00000028 __mprec_bigtens
0002d7b0 g     F .text	00000104 __s2b
000317b8 g     F .text	000000a8 .hidden __floatunsidf
0002de88 g     F .text	00000060 __mcmp
00033ae8 g     F .text	0000003c alt_up_audio_open_dev
0002bbc4 g     F .text	00000018 __fp_lock_all
00020e84 g     F .text	00000148 average_amplitude
00033f20 g     F .text	00000068 alt_up_audio_play_r
000353d0 g     F .text	0000009c alt_alarm_stop
00021020 g     F .text	000000fc receiver_mailbox_callback
00039db8 g     O .bss	00000004 alt_irq_active
0002111c g     F .text	00000114 show_state_on_7_segments
000200fc g     F .exceptions	000000d8 alt_irq_handler
00036e24 g     O .rwdata	00000028 alt_dev_null
000222e8 g     F .text	00000d90 __kernel_rem_pio2
000337e4 g     F .text	00000054 altera_avalon_mutex_open
00034c10 g     F .text	00000048 alt_dcache_flush_all
0002d8b4 g     F .text	00000068 __hi0bits
000272a0 g     F .text	00000080 .hidden __fixdfsi
00038188 g       *ABS*	00000000 __ram_rwdata_end
00020000 g       *ABS*	00000000 __alt_mem_onchip_memory
00038158 g     O .rwdata	00000008 alt_dev_list
000320dc g     F .text	000000f8 write
000242a8 g     F .text	000000bc .hidden __gtsf2
00038174 g     O .rwdata	00000008 alt_mutex_list
00036580 g       *ABS*	00000000 __ram_rodata_end
000319d4 g     F .text	000000b0 fstat
00026198 g     F .text	000000f4 .hidden __ledf2
0002dc00 g     F .text	00000140 __pow5mult
0002eea0 g     F .text	0000145c ___vfiprintf_internal_r
00039d98 g     O .bss	00000004 __nlocale_changed
00023948 g     F .text	00000058 .hidden __umodsi3
00039f20 g       *ABS*	00000000 end
0003812c g     O .rwdata	00000004 recording_index
000324f8 g     F .text	000000b4 altera_avalon_jtag_uart_init
000201d4 g     F .exceptions	00000074 alt_instruction_exception_entry
00035c04 g       *ABS*	00000000 __CTOR_LIST__
00040000 g       *ABS*	00000000 __alt_stack_pointer
00033a74 g     F .text	00000074 alt_avalon_timer_sc_init
000276b4 g     F .text	00000064 .hidden __clzsi2
00032bd0 g     F .text	00000224 altera_avalon_jtag_uart_write
0002bbb4 g     F .text	00000004 __sfp_lock_acquire
0002d110 g     F .text	000000e4 memchr
00027900 g     F .text	000021f8 ___vfprintf_internal_r
0002bd18 g     F .text	00000310 _free_r
0002c6f4 g     F .text	00000010 __locale_mb_cur_max
00035a50 g     F .text	00000180 __call_exitprocs
00039d94 g     O .bss	00000004 __mlocale_changed
00038144 g     O .rwdata	00000004 __malloc_sbrk_base
00020248 g     F .text	0000004c _start
00039dbc g     O .bss	00000004 _alt_tick_rate
00020cc0 g     F .text	00000128 play_file
00021230 g     F .text	000000f0 sin
000340d0 g     F .text	00000108 alt_up_audio_write_fifo
0002dd40 g     F .text	00000148 __lshift
000342f0 g     F .text	00000064 alt_up_av_config_write_data
00039dc0 g     O .bss	00000004 _alt_nticks
00031e60 g     F .text	000000fc read
000322e4 g     F .text	000000b0 alt_sys_init
00024d7c g     F .text	00000124 .hidden __floatsisf
00033ff0 g     F .text	000000e0 alt_up_audio_read_fifo
00035938 g     F .text	00000118 __register_exitproc
00034934 g     F .text	00000058 alt_up_av_config_write_LTM_cfg_register
00033c24 g     F .text	00000058 alt_up_audio_disable_write_interrupt
000338e0 g     F .text	00000054 altera_avalon_mutex_unlock
0002da08 g     F .text	000001f8 __multiply
0003285c g     F .text	00000068 altera_avalon_jtag_uart_close
00036580 g       *ABS*	00000000 __ram_rwdata_start
00035c04 g       *ABS*	00000000 __ram_rodata_start
00039dc8 g     O .bss	00000028 __malloc_current_mallinfo
0002e254 g     F .text	0000014c __d2b
00020de8 g     F .text	0000009c show_amplitude_on_LEDS
00032394 g     F .text	00000060 altera_avalon_jtag_uart_read_fd
000356a0 g     F .text	000000a4 alt_get_fd
00034ab8 g     F .text	00000158 alt_busy_sleep
00030434 g     F .text	00000054 _close_r
00033bd0 g     F .text	00000054 alt_up_audio_enable_write_interrupt
000358bc g     F .text	0000007c memcmp
00032454 g     F .text	00000050 altera_avalon_jtag_uart_close_fd
00039f20 g       *ABS*	00000000 __alt_stack_base
000324a4 g     F .text	00000054 altera_avalon_jtag_uart_ioctl_fd
00029bd0 g     F .text	00000154 __swsetup_r
0002574c g     F .text	000008e8 .hidden __divdf3
00033b78 g     F .text	00000058 alt_up_audio_disable_read_interrupt
0002ba74 g     F .text	00000118 __sfp
0002e4b8 g     F .text	00000078 __copybits
00036a1c g     O .rwdata	00000408 __malloc_av_
0002bbc0 g     F .text	00000004 __sinit_lock_release
0002628c g     F .text	00000718 .hidden __muldf3
0002eb74 g     F .text	00000054 __sread
00035598 g     F .text	00000108 alt_find_file
00034c94 g     F .text	000000a4 alt_dev_llist_insert
00031ddc g     F .text	00000024 __malloc_lock
00031fc0 g     F .text	000000b0 sbrk
0002b7c8 g     F .text	0000005c _fflush_r
00030488 g     F .text	000000c4 _calloc_r
00039d90 g       *ABS*	00000000 __bss_start
0002d498 g     F .text	00000128 memset
00020294 g     F .text	0000054c main
00033ec0 g     F .text	00000060 alt_up_audio_write_fifo_space
00039db4 g     O .bss	00000004 alt_envp
00039d9c g     O .bss	00000004 __malloc_max_total_mem
000323f4 g     F .text	00000060 altera_avalon_jtag_uart_write_fd
00030b08 g     F .text	00000018 __swbuf
00024364 g     F .text	000000c8 .hidden __ltsf2
00039df0 g     O .bss	00000030 recording
0002eca8 g     F .text	00000008 __sclose
000235b8 g     F .text	00000008 matherr
00040000 g       *ABS*	00000000 __alt_heap_limit
0003063c g     F .text	00000014 fclose
0002750c g     F .text	000001a8 .hidden __truncdfsf2
0003385c g     F .text	00000044 altera_avalon_mutex_lock
00029f24 g     F .text	00001688 _dtoa_r
0002c904 g     F .text	0000080c _malloc_r
00030c7c g     F .text	00000030 __ascii_wctomb
00038164 g     O .rwdata	00000004 alt_errno
0002c4e4 g     F .text	000000c4 _fwalk
000237ec g     F .text	00000084 .hidden __divsi3
0002bbf4 g     F .text	00000124 _malloc_trim_r
00035c04 g       *ABS*	00000000 __CTOR_END__
0002442c g     F .text	000003fc .hidden __mulsf3
0002ecb0 g     F .text	000000dc strcmp
00035c04 g       *ABS*	00000000 __flash_rodata_start
00035c04 g       *ABS*	00000000 __DTOR_LIST__
0002375c g     F .text	0000001c copysign
00026034 g     F .text	00000088 .hidden __nedf2
04000000 g       *ABS*	00000000 __alt_mem_SDRAM_controller
00034290 g     F .text	00000060 alt_up_av_config_open_dev
000322ac g     F .text	00000038 alt_irq_init
00031f5c g     F .text	00000064 alt_release_fd
00036204 g     O .rodata	00000100 .hidden __clz_tab
00039d90 g     O .bss	00000004 _PathLocale
00020a1c g     F .text	000002a4 generate_sinusoid
00035870 g     F .text	00000014 atexit
000242a8 g     F .text	000000bc .hidden __gesf2
000303d4 g     F .text	00000060 _write_r
000344d0 g     F .text	00000038 alt_up_av_config_read_ready
0002c724 g     F .text	00000018 setlocale
0003813c g     O .rwdata	00000004 _impure_ptr
00039dac g     O .bss	00000004 alt_argc
0002b5ac g     F .text	0000021c __sflush_r
000235c0 g     F .text	0000019c scalbn
00034d98 g     F .text	00000060 _do_dtors
0002c710 g     F .text	00000008 __locale_cjk_lang
00020020 g       .exceptions	00000000 alt_irq_entry
0002e0e4 g     F .text	00000064 __ulp
0002bbdc g     F .text	00000018 __fp_unlock_all
00038150 g     O .rwdata	00000008 alt_fs_list
00033e58 g     F .text	00000068 alt_up_audio_record_l
00020020 g       *ABS*	00000000 __ram_exceptions_start
0002c73c g     F .text	0000000c localeconv
00021bbc g     F .text	00000288 __ieee754_sqrt
0003440c g     F .text	00000038 alt_up_av_config_enable_interrupt
00034478 g     F .text	00000058 alt_up_av_config_read_acknowledge
000347d4 g     F .text	00000058 alt_up_av_config_write_DC2_cfg_register
00038188 g       *ABS*	00000000 _edata
00039f20 g       *ABS*	00000000 _end
00030650 g     F .text	00000164 __fputwc
00020248 g       *ABS*	00000000 __ram_exceptions_end
000328c4 g     F .text	000000f0 altera_avalon_jtag_uart_ioctl
00033f88 g     F .text	00000068 alt_up_audio_play_l
0003816c g     O .rwdata	00000008 alt_mailbox_simple_list
0002ebd0 g     F .text	0000007c __swrite
00038148 g     O .rwdata	00000004 __malloc_trim_threshold
0002c704 g     F .text	0000000c __locale_msgcharset
00035884 g     F .text	00000038 exit
0002c5a8 g     F .text	000000c4 _fwalk_reent
0002dee8 g     F .text	000001fc __mdiff
000348dc g     F .text	00000058 alt_up_av_config_read_LTM_cfg_register
00023870 g     F .text	00000074 .hidden __modsi3
00040000 g       *ABS*	00000000 __alt_data_end
00020020 g     F .exceptions	00000000 alt_exception
0002bbb8 g     F .text	00000004 __sfp_lock_release
0003315c g     F .text	000001c4 altera_avalon_mailbox_open
00035bd0 g     F .text	00000034 _exit
0003498c g     F .text	0000012c alt_alarm_start
0002c748 g     F .text	000001bc __smakebuf_r
00027868 g     F .text	00000098 strlen
0003527c g     F .text	00000154 open
000260bc g     F .text	000000dc .hidden __gedf2
000345ac g     F .text	000000e8 alt_up_av_config_read_video_cfg_register
0003814c g     O .rwdata	00000004 __wctomb
00020fcc g     F .text	00000054 sender_mailbox_callback
0002ee88 g     F .text	00000018 __sprint_r
00034e88 g     F .text	00000034 alt_icache_flush_all
0003817c g     O .rwdata	00000004 alt_priority_mask
00029af8 g     F .text	0000001c __vfprintf_internal
00033838 g     F .text	00000024 altera_avalon_mutex_close
00034884 g     F .text	00000058 alt_up_av_config_write_D5M_cfg_register
00030cac g     F .text	0000005c _wctomb_r
000269a4 g     F .text	000008fc .hidden __subdf3
0002d91c g     F .text	000000b0 __lo0bits
00038180 g     O .rwdata	00000008 alt_alarm_list
00034d38 g     F .text	00000060 _do_ctors
00030bbc g     F .text	000000c0 wcrtomb
0003189c g     F .text	000000d0 close
000239a0 g     F .text	000004c8 .hidden __addsf3
00031bcc g     F .text	00000084 alt_load
00033b24 g     F .text	00000054 alt_up_audio_enable_read_interrupt
00034694 g     F .text	000000e8 alt_up_av_config_write_video_cfg_register
000307d8 g     F .text	00000080 fputwc
0002bbbc g     F .text	00000004 __sinit_lock_acquire
0002d690 g     F .text	00000120 __multadd
0002d668 g     F .text	00000028 _Bfree
0003477c g     F .text	00000058 alt_up_av_config_read_DC2_cfg_register
00033c7c g     F .text	00000040 alt_up_audio_read_interrupt_pending



Disassembly of section .entry:

00020000 <__reset>:
#if NIOS2_ICACHE_SIZE > 0 && defined(ALT_ALLOW_CODE_AT_RESET) && (!defined(ALT_SIM_OPTIMIZE) || defined(NIOS2_ECC_PRESENT))
    /* Assume the instruction cache size is always a power of two. */
#if NIOS2_ICACHE_SIZE > 0x8000
    movhi r2, %hi(NIOS2_ICACHE_SIZE)
#else
    movui r2, NIOS2_ICACHE_SIZE
   20000:	00840014 	movui	r2,4096
#endif

0:
    initi r2
   20004:	1001483a 	initi	r2
    addi r2, r2, -NIOS2_ICACHE_LINE_SIZE
   20008:	10bff804 	addi	r2,r2,-32
    bgt r2, zero, 0b
   2000c:	00bffd16 	blt	zero,r2,20004 <__alt_mem_SDRAM_controller+0xfc020004>
 * Jump to the _start entry point in the .text section if reset code
 * is allowed or if optimizing for RTL simulation.
 */
#if defined(ALT_ALLOW_CODE_AT_RESET) || defined(ALT_SIM_OPTIMIZE)
    /* Jump to the _start entry point in the .text section. */
    movhi r1, %hi(_start)
   20010:	004000b4 	movhi	at,2
    ori r1, r1, %lo(_start)
   20014:	08409214 	ori	at,at,584
    jmp r1
   20018:	0800683a 	jmp	at
   2001c:	00000000 	call	0 <__alt_mem_onchip_memory-0x20000>

Disassembly of section .exceptions:

00020020 <alt_exception>:

#else /* ALT_EXCEPTION_STACK disabled */
        /* 
         * Reserve space on normal stack for registers about to be pushed.
         */
        addi  sp, sp, -76
   20020:	deffed04 	addi	sp,sp,-76
         * documentation for details).
         *
         * Leave a gap in the stack frame at 4(sp) for the muldiv handler to
         * store zero into.
         */
        stw   ra,  0(sp)
   20024:	dfc00015 	stw	ra,0(sp)
        stw   r1,   8(sp)
   20028:	d8400215 	stw	at,8(sp)
        stw   r2,  12(sp)
   2002c:	d8800315 	stw	r2,12(sp)
        stw   r3,  16(sp)
   20030:	d8c00415 	stw	r3,16(sp)
        stw   r4,  20(sp)
   20034:	d9000515 	stw	r4,20(sp)
        stw   r5,  24(sp)
   20038:	d9400615 	stw	r5,24(sp)
        stw   r6,  28(sp)
   2003c:	d9800715 	stw	r6,28(sp)
        stw   r7,  32(sp)
   20040:	d9c00815 	stw	r7,32(sp)
        rdctl r5, estatus   /* Read early to avoid usage stall */
   20044:	000b307a 	rdctl	r5,estatus
        stw   r8,  36(sp)
   20048:	da000915 	stw	r8,36(sp)
        stw   r9,  40(sp)
   2004c:	da400a15 	stw	r9,40(sp)
        stw   r10, 44(sp)
   20050:	da800b15 	stw	r10,44(sp)
        stw   r11, 48(sp)
   20054:	dac00c15 	stw	r11,48(sp)
        stw   r12, 52(sp)
   20058:	db000d15 	stw	r12,52(sp)
        stw   r13, 56(sp)
   2005c:	db400e15 	stw	r13,56(sp)
        stw   r14, 60(sp)
   20060:	db800f15 	stw	r14,60(sp)
        stw   r15, 64(sp)
   20064:	dbc01015 	stw	r15,64(sp)
        /*
         * ea-4 contains the address of the instruction being executed
         * when the exception occured. For interrupt exceptions, we will
         * will be re-issue the isntruction. Store it in 72(sp)
         */
        stw   r5,  68(sp)  /* estatus */
   20068:	d9401115 	stw	r5,68(sp)
        addi  r15, ea, -4  /* instruction that caused exception */
   2006c:	ebffff04 	addi	r15,ea,-4
        stw   r15,  72(sp)
   20070:	dbc01215 	stw	r15,72(sp)
#else
        /*
         * Test to see if the exception was a software exception or caused 
         * by an external interrupt, and vector accordingly.
         */
        rdctl r4, ipending
   20074:	0009313a 	rdctl	r4,ipending
        andi  r2, r5, 1
   20078:	2880004c 	andi	r2,r5,1
        beq   r2, zero, .Lnot_irq
   2007c:	10000326 	beq	r2,zero,2008c <alt_exception+0x6c>
        beq   r4, zero, .Lnot_irq
   20080:	20000226 	beq	r4,zero,2008c <alt_exception+0x6c>
        /*
         * Now that all necessary registers have been preserved, call 
         * alt_irq_handler() to process the interrupts.
         */

        call alt_irq_handler
   20084:	00200fc0 	call	200fc <alt_irq_handler>

        .section .exceptions.irqreturn, "xa"

        br    .Lexception_exit
   20088:	00000706 	br	200a8 <alt_exception+0x88>
         * upon completion, so we write ea (address of instruction *after*
         * the one where the exception occured) into 72(sp). The actual
         * instruction that caused the exception is written in r2, which these
         * handlers will utilize.
         */
        stw ea, 72(sp) /* EA is PC+4 so will skip over instruction causing exception */
   2008c:	df401215 	stw	ea,72(sp)
.Lunknown_16bit:
        addi.n r4, r4, 2 /* Need PC+2 to skip over instruction causing exception */
        stw r4, 72(sp)

#else /* CDX is not Enabled and all instructions are 32bits */
        ldw r2, -4(ea) /* Instruction value that caused exception */
   20090:	e8bfff17 	ldw	r2,-4(ea)
         * debugger is present) or go into an infinite loop since the
         * handling behavior is undefined; in that case we will not return here.
         */

        /* Load exception-causing address as first argument (r4) */
        addi   r4, ea, -4
   20094:	e93fff04 	addi	r4,ea,-4

        /* Call the instruction-exception entry */
        call   alt_instruction_exception_entry
   20098:	00201d40 	call	201d4 <alt_instruction_exception_entry>
         * instruction
         *
         * Return code was 0: Skip. The instruction after the exception is
         * already stored in 72(sp).
         */
        bne   r2, r0, .Lexception_exit
   2009c:	1000021e 	bne	r2,zero,200a8 <alt_exception+0x88>

        /*
         * Otherwise, modify 72(sp) to re-issue the instruction that caused the
         * exception.
         */
        addi  r15, ea, -4  /* instruction that caused exception */
   200a0:	ebffff04 	addi	r15,ea,-4
        stw   r15,  72(sp)
   200a4:	dbc01215 	stw	r15,72(sp)
        /* 
         * Restore the saved registers, so that all general purpose registers 
         * have been restored to their state at the time the interrupt occured.
         */

        ldw   r5,  68(sp)
   200a8:	d9401117 	ldw	r5,68(sp)
        ldw   ea,  72(sp)  /* This becomes the PC once eret is executed */
   200ac:	df401217 	ldw	ea,72(sp)
        ldw   ra,   0(sp)
   200b0:	dfc00017 	ldw	ra,0(sp)

        wrctl estatus, r5
   200b4:	2801707a 	wrctl	estatus,r5

        ldw   r1,   8(sp)
   200b8:	d8400217 	ldw	at,8(sp)
        ldw   r2,  12(sp)
   200bc:	d8800317 	ldw	r2,12(sp)
        ldw   r3,  16(sp)
   200c0:	d8c00417 	ldw	r3,16(sp)
        ldw   r4,  20(sp)
   200c4:	d9000517 	ldw	r4,20(sp)
        ldw   r5,  24(sp)
   200c8:	d9400617 	ldw	r5,24(sp)
        ldw   r6,  28(sp)
   200cc:	d9800717 	ldw	r6,28(sp)
        ldw   r7,  32(sp)
   200d0:	d9c00817 	ldw	r7,32(sp)

#if defined(ALT_EXCEPTION_STACK) && defined(ALT_STACK_CHECK)
        ldw   et, %gprel(alt_exception_old_stack_limit)(gp)
#endif

        ldw   r8,  36(sp)
   200d4:	da000917 	ldw	r8,36(sp)
        ldw   r9,  40(sp)
   200d8:	da400a17 	ldw	r9,40(sp)
        ldw   r10, 44(sp)
   200dc:	da800b17 	ldw	r10,44(sp)
        ldw   r11, 48(sp)
   200e0:	dac00c17 	ldw	r11,48(sp)
        ldw   r12, 52(sp)
   200e4:	db000d17 	ldw	r12,52(sp)
        ldw   r13, 56(sp)
   200e8:	db400e17 	ldw	r13,56(sp)
        ldw   r14, 60(sp)
   200ec:	db800f17 	ldw	r14,60(sp)
        ldw   r15, 64(sp)
   200f0:	dbc01017 	ldw	r15,64(sp)
        stw   et, %gprel(alt_stack_limit_value)(gp)
        stw   zero, %gprel(alt_exception_old_stack_limit)(gp)
#endif /* ALT_STACK_CHECK */
        ldw   sp,  76(sp)
#else /* ALT_EXCEPTION_STACK disabled */
        addi  sp, sp, 76
   200f4:	dec01304 	addi	sp,sp,76

        /*
         * Return to the interrupted instruction.
         */

        eret
   200f8:	ef80083a 	eret

000200fc <alt_irq_handler>:
 * instruction is present if the macro ALT_CI_INTERRUPT_VECTOR defined.
 */

void alt_irq_handler (void) __attribute__ ((section (".exceptions")));
void alt_irq_handler (void)
{
   200fc:	defff904 	addi	sp,sp,-28
   20100:	dfc00615 	stw	ra,24(sp)
   20104:	df000515 	stw	fp,20(sp)
   20108:	df000504 	addi	fp,sp,20
  
  /*
   * Notify the operating system that we are at interrupt level.
   */ 
  
  ALT_OS_INT_ENTER();
   2010c:	0001883a 	nop
#ifndef NIOS2_EIC_PRESENT
static ALT_INLINE alt_u32 ALT_ALWAYS_INLINE alt_irq_pending (void)
{
  alt_u32 active;

  NIOS2_READ_IPENDING (active);
   20110:	0005313a 	rdctl	r2,ipending
   20114:	e0bffe15 	stw	r2,-8(fp)

  return active;
   20118:	e0bffe17 	ldw	r2,-8(fp)
   * Consider the case where the high priority interupt is asserted during
   * the interrupt entry sequence for a lower priority interrupt to see why
   * this is the case.
   */

  active = alt_irq_pending ();
   2011c:	e0bffb15 	stw	r2,-20(fp)

  do
  {
    i = 0;
   20120:	e03ffd15 	stw	zero,-12(fp)
    mask = 1;
   20124:	00800044 	movi	r2,1
   20128:	e0bffc15 	stw	r2,-16(fp)
     * called to clear the interrupt condition.
     */

    do
    {
      if (active & mask)
   2012c:	e0fffb17 	ldw	r3,-20(fp)
   20130:	e0bffc17 	ldw	r2,-16(fp)
   20134:	1884703a 	and	r2,r3,r2
   20138:	10001526 	beq	r2,zero,20190 <alt_irq_handler+0x94>
      { 
#ifdef ALT_ENHANCED_INTERRUPT_API_PRESENT
        alt_irq[i].handler(alt_irq[i].context); 
#else
        alt_irq[i].handler(alt_irq[i].context, i); 
   2013c:	00800134 	movhi	r2,4
   20140:	10a78804 	addi	r2,r2,-25056
   20144:	e0fffd17 	ldw	r3,-12(fp)
   20148:	180690fa 	slli	r3,r3,3
   2014c:	10c5883a 	add	r2,r2,r3
   20150:	10c00017 	ldw	r3,0(r2)
   20154:	00800134 	movhi	r2,4
   20158:	10a78804 	addi	r2,r2,-25056
   2015c:	e13ffd17 	ldw	r4,-12(fp)
   20160:	200890fa 	slli	r4,r4,3
   20164:	1105883a 	add	r2,r2,r4
   20168:	10800104 	addi	r2,r2,4
   2016c:	10800017 	ldw	r2,0(r2)
   20170:	e17ffd17 	ldw	r5,-12(fp)
   20174:	1009883a 	mov	r4,r2
   20178:	183ee83a 	callr	r3
#endif
        break;
   2017c:	0001883a 	nop
#ifndef NIOS2_EIC_PRESENT
static ALT_INLINE alt_u32 ALT_ALWAYS_INLINE alt_irq_pending (void)
{
  alt_u32 active;

  NIOS2_READ_IPENDING (active);
   20180:	0005313a 	rdctl	r2,ipending
   20184:	e0bfff15 	stw	r2,-4(fp)

  return active;
   20188:	e0bfff17 	ldw	r2,-4(fp)
   2018c:	00000706 	br	201ac <alt_irq_handler+0xb0>
      }
      mask <<= 1;
   20190:	e0bffc17 	ldw	r2,-16(fp)
   20194:	1085883a 	add	r2,r2,r2
   20198:	e0bffc15 	stw	r2,-16(fp)
      i++;
   2019c:	e0bffd17 	ldw	r2,-12(fp)
   201a0:	10800044 	addi	r2,r2,1
   201a4:	e0bffd15 	stw	r2,-12(fp)

    } while (1);
   201a8:	003fe006 	br	2012c <__alt_mem_SDRAM_controller+0xfc02012c>

    active = alt_irq_pending ();
   201ac:	e0bffb15 	stw	r2,-20(fp)
    
  } while (active);
   201b0:	e0bffb17 	ldw	r2,-20(fp)
   201b4:	103fda1e 	bne	r2,zero,20120 <__alt_mem_SDRAM_controller+0xfc020120>

  /*
   * Notify the operating system that interrupt processing is complete.
   */ 

  ALT_OS_INT_EXIT();
   201b8:	0001883a 	nop
}
   201bc:	0001883a 	nop
   201c0:	e037883a 	mov	sp,fp
   201c4:	dfc00117 	ldw	ra,4(sp)
   201c8:	df000017 	ldw	fp,0(sp)
   201cc:	dec00204 	addi	sp,sp,8
   201d0:	f800283a 	ret

000201d4 <alt_instruction_exception_entry>:
 * that handler if it has been registered. Absent a handler, it will
 * break break or hang as discussed below.
 */
int 
alt_instruction_exception_entry (alt_u32 exception_pc)
{
   201d4:	defffb04 	addi	sp,sp,-20
   201d8:	dfc00415 	stw	ra,16(sp)
   201dc:	df000315 	stw	fp,12(sp)
   201e0:	df000304 	addi	fp,sp,12
   201e4:	e13fff15 	stw	r4,-4(fp)
 * NIOS2_EXCEPTION_CAUSE_NOT_PRESENT. Your handling routine should
 * check the validity of the cause argument before proceeding.
 */
#ifdef NIOS2_HAS_EXTRA_EXCEPTION_INFO
  /* Get exception cause & "badaddr" */
  NIOS2_READ_EXCEPTION(cause);
   201e8:	000531fa 	rdctl	r2,exception
   201ec:	e0bffd15 	stw	r2,-12(fp)
  cause = ( (cause & NIOS2_EXCEPTION_REG_CAUSE_MASK) >>
   201f0:	e0bffd17 	ldw	r2,-12(fp)
   201f4:	10801f0c 	andi	r2,r2,124
   201f8:	1004d0ba 	srli	r2,r2,2
   201fc:	e0bffd15 	stw	r2,-12(fp)
              NIOS2_EXCEPTION_REG_CAUSE_OFST );

  NIOS2_READ_BADADDR(badaddr);
   20200:	0005333a 	rdctl	r2,badaddr
   20204:	e0bffe15 	stw	r2,-8(fp)
#else
  cause = NIOS2_EXCEPTION_CAUSE_NOT_PRESENT;
  badaddr = 0;
#endif /* NIOS2_HAS_EXTRA_EXCEPTION_INFO */

  if(alt_instruction_exception_handler) {
   20208:	d0a72617 	ldw	r2,-25448(gp)
   2020c:	10000726 	beq	r2,zero,2022c <alt_instruction_exception_entry+0x58>
     * Call handler. Its return value indicates whether the exception-causing
     * instruction should be re-issued. The code that called us,
     * alt_eceptions_entry.S, will look at this value and adjust the ea
     * register as necessary
     */
    return alt_instruction_exception_handler(cause, exception_pc, badaddr);
   20210:	d0a72617 	ldw	r2,-25448(gp)
   20214:	e0fffd17 	ldw	r3,-12(fp)
   20218:	e1bffe17 	ldw	r6,-8(fp)
   2021c:	e17fff17 	ldw	r5,-4(fp)
   20220:	1809883a 	mov	r4,r3
   20224:	103ee83a 	callr	r2
   20228:	00000206 	br	20234 <alt_instruction_exception_entry+0x60>
   *    (a peripheral which negates its interrupt output before its
   *    interrupt handler has been executed will cause spurious interrupts)
   */
  else {
#ifdef NIOS2_HAS_DEBUG_STUB
    NIOS2_BREAK();
   2022c:	003da03a 	break	0
      ;
#endif /* NIOS2_HAS_DEBUG_STUB */
  }

  /* We should not get here. Remove compiler warning. */
  return NIOS2_EXCEPTION_RETURN_REISSUE_INST;
   20230:	0005883a 	mov	r2,zero
}
   20234:	e037883a 	mov	sp,fp
   20238:	dfc00117 	ldw	ra,4(sp)
   2023c:	df000017 	ldw	fp,0(sp)
   20240:	dec00204 	addi	sp,sp,8
   20244:	f800283a 	ret

Disassembly of section .text:

00020248 <_start>:

    /* Assume the data cache size is always a power of two. */
#if NIOS2_DCACHE_SIZE > 0x8000
    movhi r2, %hi(NIOS2_DCACHE_SIZE)
#else
    movui r2, NIOS2_DCACHE_SIZE
   20248:	00820014 	movui	r2,2048
#endif

0:
    initd 0(r2)
   2024c:	10000033 	initd	0(r2)
#ifdef NIOS2_ECC_PRESENT
    addi r2, r2, -4
#else
    addi r2, r2, -NIOS2_DCACHE_LINE_SIZE
   20250:	10bff804 	addi	r2,r2,-32
#endif
    bgt r2, zero, 0b
   20254:	00bffd16 	blt	zero,r2,2024c <__alt_mem_SDRAM_controller+0xfc02024c>

    /*
     * Now that the caches are initialized, set up the stack pointer and global pointer.
     * The values provided by the linker are assumed to be correctly aligned.
     */
    movhi sp, %hi(__alt_stack_pointer)
   20258:	06c00134 	movhi	sp,4
    ori sp, sp, %lo(__alt_stack_pointer)
   2025c:	dec00014 	ori	sp,sp,0
    movhi gp, %hi(_gp)
   20260:	06800134 	movhi	gp,4
    ori gp, gp, %lo(_gp)
   20264:	d6804b14 	ori	gp,gp,300
 */
#ifndef ALT_SIM_OPTIMIZE
    /* Log that the BSS is about to be cleared. */
    ALT_LOG_PUTS(alt_log_msg_bss)

    movhi r2, %hi(__bss_start)
   20268:	008000f4 	movhi	r2,3
    ori r2, r2, %lo(__bss_start)
   2026c:	10a76414 	ori	r2,r2,40336

    movhi r3, %hi(__bss_end)
   20270:	00c000f4 	movhi	r3,3
    ori r3, r3, %lo(__bss_end)
   20274:	18e7c814 	ori	r3,r3,40736

    beq r2, r3, 1f
   20278:	10c00326 	beq	r2,r3,20288 <_start+0x40>

0:
    stw zero, (r2)
   2027c:	10000015 	stw	zero,0(r2)
    addi r2, r2, 4
   20280:	10800104 	addi	r2,r2,4
    bltu r2, r3, 0b
   20284:	10fffd36 	bltu	r2,r3,2027c <__alt_mem_SDRAM_controller+0xfc02027c>
     * section aren't defined until alt_load() has been called).
     */
    mov   et, zero
#endif

    call alt_load
   20288:	0031bcc0 	call	31bcc <alt_load>

    /* Log that alt_main is about to be called. */
    ALT_LOG_PUTS(alt_log_msg_alt_main)

    /* Call the C entry point. It should never return. */
    call alt_main
   2028c:	0031d600 	call	31d60 <alt_main>

00020290 <alt_after_alt_main>:

    /* Wait in infinite loop in case alt_main does return. */
alt_after_alt_main:
    br alt_after_alt_main
   20290:	003fff06 	br	20290 <__alt_mem_SDRAM_controller+0xfc020290>

00020294 <main>:

AudioFile recording[RECORDING_MAX_NUMBER];
int recording_index = -1;

int main()
{
   20294:	deff6804 	addi	sp,sp,-608
   20298:	dfc09715 	stw	ra,604(sp)
   2029c:	df009615 	stw	fp,600(sp)
   202a0:	dc009515 	stw	r16,596(sp)
   202a4:	df009604 	addi	fp,sp,600
	alt_up_audio_dev *audio_device;
	alt_up_av_config_dev *audio_config;
	float sound_loudness = 0;
   202a8:	e03f6e15 	stw	zero,-584(fp)
	altera_avalon_mailbox_dev *sender_mailbox, *receiver_mailbox;	// handle to the Mailboxes
	alt_u32 message[2];



	printf("Hello from Sound Acquisition Processor!\n");
   202ac:	010000f4 	movhi	r4,3
   202b0:	21170104 	addi	r4,r4,23556
   202b4:	00278540 	call	27854 <puts>

	// Open mailboxes
	sender_mailbox = altera_avalon_mailbox_open("/dev/mailbox_to_FFT", sender_mailbox_callback, NULL);
   202b8:	000d883a 	mov	r6,zero
   202bc:	014000b4 	movhi	r5,2
   202c0:	2943f304 	addi	r5,r5,4044
   202c4:	010000f4 	movhi	r4,3
   202c8:	21170b04 	addi	r4,r4,23596
   202cc:	003315c0 	call	3315c <altera_avalon_mailbox_open>
   202d0:	e0bf6f15 	stw	r2,-580(fp)
	if (!sender_mailbox){
   202d4:	e0bf6f17 	ldw	r2,-580(fp)
   202d8:	1000051e 	bne	r2,zero,202f0 <main+0x5c>
		printf ("FAIL: Unable to open mailbox to other processor\n");
   202dc:	010000f4 	movhi	r4,3
   202e0:	21171004 	addi	r4,r4,23616
   202e4:	00278540 	call	27854 <puts>
		return 1;
   202e8:	00800044 	movi	r2,1
   202ec:	00013606 	br	207c8 <main+0x534>
	}
	receiver_mailbox = altera_avalon_mailbox_open("/dev/mailbox_to_Sound_Acquisition", NULL, receiver_mailbox_callback);
   202f0:	018000b4 	movhi	r6,2
   202f4:	31840804 	addi	r6,r6,4128
   202f8:	000b883a 	mov	r5,zero
   202fc:	010000f4 	movhi	r4,3
   20300:	21171c04 	addi	r4,r4,23664
   20304:	003315c0 	call	3315c <altera_avalon_mailbox_open>
   20308:	e0bf7015 	stw	r2,-576(fp)
	if (!receiver_mailbox){
   2030c:	e0bf7017 	ldw	r2,-576(fp)
   20310:	1000051e 	bne	r2,zero,20328 <main+0x94>
		printf ("FAIL: Unable to open mailbox from other processor\n");
   20314:	010000f4 	movhi	r4,3
   20318:	21172504 	addi	r4,r4,23700
   2031c:	00278540 	call	27854 <puts>
		return 1;
   20320:	00800044 	movi	r2,1
   20324:	00012806 	br	207c8 <main+0x534>
	}

	// gets handles to audio devices
	audio_device = alt_up_audio_open_dev(AUDIO_0_NAME);	// handle to the circuit that interfaces with the audio CODEC
   20328:	010000f4 	movhi	r4,3
   2032c:	21173204 	addi	r4,r4,23752
   20330:	0033ae80 	call	33ae8 <alt_up_audio_open_dev>
   20334:	e0bf7115 	stw	r2,-572(fp)
	audio_config = alt_up_av_config_open_dev(AUDIO_AND_VIDEO_CONFIG_0_NAME); // handle to the circuit that initializes the audio CODEC
   20338:	010000f4 	movhi	r4,3
   2033c:	21173604 	addi	r4,r4,23768
   20340:	00342900 	call	34290 <alt_up_av_config_open_dev>
   20344:	e0bf7215 	stw	r2,-568(fp)

	// waits for the audio CODEC to be ready
	while (!alt_up_av_config_read_ready(audio_config)) {
   20348:	00000306 	br	20358 <main+0xc4>
		printf("Audio CODEC not ready\n");
   2034c:	010000f4 	movhi	r4,3
   20350:	21173e04 	addi	r4,r4,23800
   20354:	00278540 	call	27854 <puts>
	// gets handles to audio devices
	audio_device = alt_up_audio_open_dev(AUDIO_0_NAME);	// handle to the circuit that interfaces with the audio CODEC
	audio_config = alt_up_av_config_open_dev(AUDIO_AND_VIDEO_CONFIG_0_NAME); // handle to the circuit that initializes the audio CODEC

	// waits for the audio CODEC to be ready
	while (!alt_up_av_config_read_ready(audio_config)) {
   20358:	e13f7217 	ldw	r4,-568(fp)
   2035c:	00344d00 	call	344d0 <alt_up_av_config_read_ready>
   20360:	103ffa26 	beq	r2,zero,2034c <__alt_mem_SDRAM_controller+0xfc02034c>
		printf("Audio CODEC not ready\n");
	}

	// resets the audio CODEC just in case
	if (alt_up_av_config_reset(audio_config))
   20364:	e13f7217 	ldw	r4,-568(fp)
   20368:	00343d40 	call	343d4 <alt_up_av_config_reset>
   2036c:	10000326 	beq	r2,zero,2037c <main+0xe8>
		printf("Error resetting the audio CODEC\n");
   20370:	010000f4 	movhi	r4,3
   20374:	21174404 	addi	r4,r4,23824
   20378:	00278540 	call	27854 <puts>

	// initialize parallel ports
	IOWR_ALTERA_AVALON_PIO_DIRECTION(PIO_LEDS_BASE, 0xFFFFFFFF);	// sets all pins as output
   2037c:	00ffffc4 	movi	r3,-1
   20380:	00800134 	movhi	r2,4
   20384:	10840504 	addi	r2,r2,4116
   20388:	10c00035 	stwio	r3,0(r2)
	IOWR_ALTERA_AVALON_PIO_DIRECTION(PIO_BUTTONS_BASE, 0x0);	// sets all pins as input
   2038c:	0007883a 	mov	r3,zero
   20390:	00800134 	movhi	r2,4
   20394:	10840904 	addi	r2,r2,4132
   20398:	10c00035 	stwio	r3,0(r2)
	IOWR_ALTERA_AVALON_PIO_DIRECTION(PIO_7_SEGMENTS_BASE, 0xFFFFFFFF);	// sets all pins as output
   2039c:	00ffffc4 	movi	r3,-1
   203a0:	00800134 	movhi	r2,4
   203a4:	10840104 	addi	r2,r2,4100
   203a8:	10c00035 	stwio	r3,0(r2)

	beep_sound = new_audio_file(BEEP_SAMPLES);
   203ac:	e0bff504 	addi	r2,fp,-44
   203b0:	016ee014 	movui	r5,48000
   203b4:	1009883a 	mov	r4,r2
   203b8:	00209640 	call	20964 <new_audio_file>
	printf("\n\nGenerating sinusoid for beep sound. Please wait...\n");
   203bc:	010000f4 	movhi	r4,3
   203c0:	21174c04 	addi	r4,r4,23856
   203c4:	00278540 	call	27854 <puts>
	generate_sinusoid(SAMPLING_FREQ, BEEP_FREQUENCY, BEEP_AMPLITUDE, beep_sound);
   203c8:	e0bff617 	ldw	r2,-40(fp)
   203cc:	d8800015 	stw	r2,0(sp)
   203d0:	e0bff717 	ldw	r2,-36(fp)
   203d4:	d8800115 	stw	r2,4(sp)
   203d8:	e0bff817 	ldw	r2,-32(fp)
   203dc:	d8800215 	stw	r2,8(sp)
   203e0:	e1fff517 	ldw	r7,-44(fp)
   203e4:	01800044 	movi	r6,1
   203e8:	0150feb4 	movhi	r5,17402
   203ec:	012ee014 	movui	r4,48000
   203f0:	0020a1c0 	call	20a1c <generate_sinusoid>
	printf("Sinusoid created\n");
   203f4:	010000f4 	movhi	r4,3
   203f8:	21175a04 	addi	r4,r4,23912
   203fc:	00278540 	call	27854 <puts>

	printf("\n\nAllocating memory for recordings...  %d possible recordings of %d seconds each\n", RECORDING_MAX_NUMBER, RECORDING_TIME);
   20400:	01800104 	movi	r6,4
   20404:	014000c4 	movi	r5,3
   20408:	010000f4 	movhi	r4,3
   2040c:	21175f04 	addi	r4,r4,23932
   20410:	00277580 	call	27758 <printf>
	for (i=0; i<RECORDING_MAX_NUMBER; i++)
   20414:	e03f6d15 	stw	zero,-588(fp)
   20418:	00001506 	br	20470 <main+0x1dc>
		recording[i] = new_audio_file(RECORDING_TIME * SAMPLING_FREQ);
   2041c:	00800134 	movhi	r2,4
   20420:	10a77c04 	addi	r2,r2,-25104
   20424:	e0ff6d17 	ldw	r3,-588(fp)
   20428:	1806913a 	slli	r3,r3,4
   2042c:	10e1883a 	add	r16,r2,r3
   20430:	e0bffb04 	addi	r2,fp,-20
   20434:	014000f4 	movhi	r5,3
   20438:	297b8004 	addi	r5,r5,-4608
   2043c:	1009883a 	mov	r4,r2
   20440:	00209640 	call	20964 <new_audio_file>
   20444:	e0bffb17 	ldw	r2,-20(fp)
   20448:	80800015 	stw	r2,0(r16)
   2044c:	e0bffc17 	ldw	r2,-16(fp)
   20450:	80800115 	stw	r2,4(r16)
   20454:	e0bffd17 	ldw	r2,-12(fp)
   20458:	80800215 	stw	r2,8(r16)
   2045c:	e0bffe17 	ldw	r2,-8(fp)
   20460:	80800315 	stw	r2,12(r16)
	printf("\n\nGenerating sinusoid for beep sound. Please wait...\n");
	generate_sinusoid(SAMPLING_FREQ, BEEP_FREQUENCY, BEEP_AMPLITUDE, beep_sound);
	printf("Sinusoid created\n");

	printf("\n\nAllocating memory for recordings...  %d possible recordings of %d seconds each\n", RECORDING_MAX_NUMBER, RECORDING_TIME);
	for (i=0; i<RECORDING_MAX_NUMBER; i++)
   20464:	e0bf6d17 	ldw	r2,-588(fp)
   20468:	10800044 	addi	r2,r2,1
   2046c:	e0bf6d15 	stw	r2,-588(fp)
   20470:	e0bf6d17 	ldw	r2,-588(fp)
   20474:	108000f0 	cmpltui	r2,r2,3
   20478:	103fe81e 	bne	r2,zero,2041c <__alt_mem_SDRAM_controller+0xfc02041c>
		recording[i] = new_audio_file(RECORDING_TIME * SAMPLING_FREQ);
	printf("Memory allocated with success\n", RECORDING_MAX_NUMBER, RECORDING_TIME);
   2047c:	01800104 	movi	r6,4
   20480:	014000c4 	movi	r5,3
   20484:	010000f4 	movhi	r4,3
   20488:	21177404 	addi	r4,r4,24016
   2048c:	00277580 	call	27758 <printf>



	printf("\n\nMake a loud noise to start recording. Try snapping your fingers.\n");
   20490:	010000f4 	movhi	r4,3
   20494:	21177c04 	addi	r4,r4,24048
   20498:	00278540 	call	27854 <puts>
	while(1)
	{
		// reads the incoming FIFO from the audio CODEC (audio from the microphone)
		n_samples_in_FIFO = alt_up_audio_read_fifo_avail(audio_device, 0);				// checks how many elements are in the FIFO
   2049c:	000b883a 	mov	r5,zero
   204a0:	e13f7117 	ldw	r4,-572(fp)
   204a4:	0033d900 	call	33d90 <alt_up_audio_read_fifo_avail>
   204a8:	e0bf7315 	stw	r2,-564(fp)
		alt_up_audio_read_fifo(audio_device, recording_buffer, n_samples_in_FIFO, 0);	// reads the content of the FIFO
   204ac:	e0ff7317 	ldw	r3,-564(fp)
   204b0:	e0bf7504 	addi	r2,fp,-556
   204b4:	000f883a 	mov	r7,zero
   204b8:	180d883a 	mov	r6,r3
   204bc:	100b883a 	mov	r5,r2
   204c0:	e13f7117 	ldw	r4,-572(fp)
   204c4:	0033ff00 	call	33ff0 <alt_up_audio_read_fifo>

		sound_loudness = average_amplitude(recording_buffer, n_samples_in_FIFO);		// computes the sound loudness
   204c8:	e0ff7317 	ldw	r3,-564(fp)
   204cc:	e0bf7504 	addi	r2,fp,-556
   204d0:	180b883a 	mov	r5,r3
   204d4:	1009883a 	mov	r4,r2
   204d8:	0020e840 	call	20e84 <average_amplitude>
   204dc:	e0bf6e15 	stw	r2,-584(fp)
		show_amplitude_on_LEDS(sound_loudness);											// shows the amplitude on the LEDs
   204e0:	e13f6e17 	ldw	r4,-584(fp)
   204e4:	0020de80 	call	20de8 <show_amplitude_on_LEDS>
		show_state_on_7_segments();
   204e8:	002111c0 	call	2111c <show_state_on_7_segments>

		if (sound_loudness > LOUDNESS_THRESHOLD) {
   204ec:	014fc034 	movhi	r5,16128
   204f0:	e13f6e17 	ldw	r4,-584(fp)
   204f4:	00242a80 	call	242a8 <__gesf2>
   204f8:	00806b0e 	bge	zero,r2,206a8 <main+0x414>
			if(recording_index < RECORDING_MAX_NUMBER-1)
   204fc:	d0a00017 	ldw	r2,-32768(gp)
   20500:	10800088 	cmpgei	r2,r2,2
   20504:	1000041e 	bne	r2,zero,20518 <main+0x284>
				recording_index++;
   20508:	d0a00017 	ldw	r2,-32768(gp)
   2050c:	10800044 	addi	r2,r2,1
   20510:	d0a00015 	stw	r2,-32768(gp)
   20514:	00000106 	br	2051c <main+0x288>
			else
				recording_index = 0;
   20518:	d0200015 	stw	zero,-32768(gp)
			recording[recording_index].processed = false;
   2051c:	d0e00017 	ldw	r3,-32768(gp)
   20520:	00800134 	movhi	r2,4
   20524:	10a77c04 	addi	r2,r2,-25104
   20528:	1806913a 	slli	r3,r3,4
   2052c:	10c5883a 	add	r2,r2,r3
   20530:	10800304 	addi	r2,r2,12
   20534:	10000005 	stb	zero,0(r2)
			show_state_on_7_segments();
   20538:	002111c0 	call	2111c <show_state_on_7_segments>

			printf("Loud noise detected! Recording starting in:\n3...\n");
   2053c:	010000f4 	movhi	r4,3
   20540:	21178d04 	addi	r4,r4,24116
   20544:	00278540 	call	27854 <puts>
			play_file(beep_sound, audio_device);
   20548:	e0bf7117 	ldw	r2,-572(fp)
   2054c:	d8800015 	stw	r2,0(sp)
   20550:	e13ff517 	ldw	r4,-44(fp)
   20554:	e17ff617 	ldw	r5,-40(fp)
   20558:	e1bff717 	ldw	r6,-36(fp)
   2055c:	e1fff817 	ldw	r7,-32(fp)
   20560:	0020cc00 	call	20cc0 <play_file>
			usleep(250000);
   20564:	01000134 	movhi	r4,4
   20568:	21342404 	addi	r4,r4,-12144
   2056c:	00320700 	call	32070 <usleep>
			printf("2...\n");
   20570:	010000f4 	movhi	r4,3
   20574:	21179a04 	addi	r4,r4,24168
   20578:	00278540 	call	27854 <puts>
			play_file(beep_sound, audio_device);
   2057c:	e0bf7117 	ldw	r2,-572(fp)
   20580:	d8800015 	stw	r2,0(sp)
   20584:	e13ff517 	ldw	r4,-44(fp)
   20588:	e17ff617 	ldw	r5,-40(fp)
   2058c:	e1bff717 	ldw	r6,-36(fp)
   20590:	e1fff817 	ldw	r7,-32(fp)
   20594:	0020cc00 	call	20cc0 <play_file>
			usleep(250000);
   20598:	01000134 	movhi	r4,4
   2059c:	21342404 	addi	r4,r4,-12144
   205a0:	00320700 	call	32070 <usleep>
			printf("1...\n");
   205a4:	010000f4 	movhi	r4,3
   205a8:	21179c04 	addi	r4,r4,24176
   205ac:	00278540 	call	27854 <puts>
			play_file(beep_sound, audio_device);
   205b0:	e0bf7117 	ldw	r2,-572(fp)
   205b4:	d8800015 	stw	r2,0(sp)
   205b8:	e13ff517 	ldw	r4,-44(fp)
   205bc:	e17ff617 	ldw	r5,-40(fp)
   205c0:	e1bff717 	ldw	r6,-36(fp)
   205c4:	e1fff817 	ldw	r7,-32(fp)
   205c8:	0020cc00 	call	20cc0 <play_file>
			usleep(250000);
   205cc:	01000134 	movhi	r4,4
   205d0:	21342404 	addi	r4,r4,-12144
   205d4:	00320700 	call	32070 <usleep>


			printf("Recording audio %d...\n", recording_index + 1);
   205d8:	d0a00017 	ldw	r2,-32768(gp)
   205dc:	10800044 	addi	r2,r2,1
   205e0:	100b883a 	mov	r5,r2
   205e4:	010000f4 	movhi	r4,3
   205e8:	21179e04 	addi	r4,r4,24184
   205ec:	00277580 	call	27758 <printf>
			start_recording(recording[recording_index], audio_device);
   205f0:	d0e00017 	ldw	r3,-32768(gp)
   205f4:	00800134 	movhi	r2,4
   205f8:	10a77c04 	addi	r2,r2,-25104
   205fc:	1806913a 	slli	r3,r3,4
   20600:	10c5883a 	add	r2,r2,r3
   20604:	e0ff7117 	ldw	r3,-572(fp)
   20608:	d8c00015 	stw	r3,0(sp)
   2060c:	11000017 	ldw	r4,0(r2)
   20610:	11400117 	ldw	r5,4(r2)
   20614:	11800217 	ldw	r6,8(r2)
   20618:	11c00317 	ldw	r7,12(r2)
   2061c:	00207e00 	call	207e0 <start_recording>
			printf("Finished recording audio %d...\n", recording_index + 1);
   20620:	d0a00017 	ldw	r2,-32768(gp)
   20624:	10800044 	addi	r2,r2,1
   20628:	100b883a 	mov	r5,r2
   2062c:	010000f4 	movhi	r4,3
   20630:	2117a404 	addi	r4,r4,24208
   20634:	00277580 	call	27758 <printf>


			message[0] = (int)recording[recording_index].start_address;			// puts the address of the file containing the recording
   20638:	d0e00017 	ldw	r3,-32768(gp)
   2063c:	00800134 	movhi	r2,4
   20640:	10a77c04 	addi	r2,r2,-25104
   20644:	1806913a 	slli	r3,r3,4
   20648:	10c5883a 	add	r2,r2,r3
   2064c:	10800017 	ldw	r2,0(r2)
   20650:	e0bff915 	stw	r2,-28(fp)
			message[1] = (int)recording[recording_index].end_address;	// puts the length of the file
   20654:	d0e00017 	ldw	r3,-32768(gp)
   20658:	00800134 	movhi	r2,4
   2065c:	10a77c04 	addi	r2,r2,-25104
   20660:	1806913a 	slli	r3,r3,4
   20664:	10c5883a 	add	r2,r2,r3
   20668:	10800204 	addi	r2,r2,8
   2066c:	10800017 	ldw	r2,0(r2)
   20670:	e0bffa15 	stw	r2,-24(fp)
			printf("Sending file information:\tSTART ADDRESS: 0x%lx\tEND: 0x%lx \n", message[0], message[1]);
   20674:	e0bff917 	ldw	r2,-28(fp)
   20678:	e0fffa17 	ldw	r3,-24(fp)
   2067c:	180d883a 	mov	r6,r3
   20680:	100b883a 	mov	r5,r2
   20684:	010000f4 	movhi	r4,3
   20688:	2117ac04 	addi	r4,r4,24240
   2068c:	00277580 	call	27758 <printf>
			altera_avalon_mailbox_send (sender_mailbox, message, 0, ISR);	// sends the info through the mailbox
   20690:	e0bff904 	addi	r2,fp,-28
   20694:	000f883a 	mov	r7,zero
   20698:	000d883a 	mov	r6,zero
   2069c:	100b883a 	mov	r5,r2
   206a0:	e13f6f17 	ldw	r4,-580(fp)
   206a4:	00334a00 	call	334a0 <altera_avalon_mailbox_send>
		}

		buttons_state = IORD_ALTERA_AVALON_PIO_DATA(PIO_BUTTONS_BASE);
   206a8:	00800134 	movhi	r2,4
   206ac:	10840804 	addi	r2,r2,4128
   206b0:	10800037 	ldwio	r2,0(r2)
   206b4:	e0bf7405 	stb	r2,-560(fp)
		switch (buttons_state)
   206b8:	e0bf7407 	ldb	r2,-560(fp)
   206bc:	10c002e0 	cmpeqi	r3,r2,11
   206c0:	1800171e 	bne	r3,zero,20720 <main+0x48c>
   206c4:	10c00360 	cmpeqi	r3,r2,13
   206c8:	1800271e 	bne	r3,zero,20768 <main+0x4d4>
   206cc:	108001e0 	cmpeqi	r2,r2,7
   206d0:	1000011e 	bne	r2,zero,206d8 <main+0x444>
					printf("Playing recording 3...\n");
					play_file(recording[2], audio_device);
				}
				break;
			default:
				break;
   206d4:	00003b06 	br	207c4 <main+0x530>

		buttons_state = IORD_ALTERA_AVALON_PIO_DATA(PIO_BUTTONS_BASE);
		switch (buttons_state)
		{
			case 0b0111:
				if (recording[0].processed == true)
   206d8:	00800134 	movhi	r2,4
   206dc:	10a77c04 	addi	r2,r2,-25104
   206e0:	10800303 	ldbu	r2,12(r2)
   206e4:	10803fcc 	andi	r2,r2,255
   206e8:	10003126 	beq	r2,zero,207b0 <main+0x51c>
				{
					printf("Playing recording 1...\n");
   206ec:	010000f4 	movhi	r4,3
   206f0:	2117bb04 	addi	r4,r4,24300
   206f4:	00278540 	call	27854 <puts>
					play_file(recording[0], audio_device);
   206f8:	00800134 	movhi	r2,4
   206fc:	10a77c04 	addi	r2,r2,-25104
   20700:	e0ff7117 	ldw	r3,-572(fp)
   20704:	d8c00015 	stw	r3,0(sp)
   20708:	11000017 	ldw	r4,0(r2)
   2070c:	11400117 	ldw	r5,4(r2)
   20710:	11800217 	ldw	r6,8(r2)
   20714:	11c00317 	ldw	r7,12(r2)
   20718:	0020cc00 	call	20cc0 <play_file>
				}
				break;
   2071c:	00002406 	br	207b0 <main+0x51c>
			case 0b1011:
				if (recording[1].processed == true)
   20720:	00800134 	movhi	r2,4
   20724:	10a77c04 	addi	r2,r2,-25104
   20728:	10800703 	ldbu	r2,28(r2)
   2072c:	10803fcc 	andi	r2,r2,255
   20730:	10002126 	beq	r2,zero,207b8 <main+0x524>
				{
					printf("Playing recording 2...\n");
   20734:	010000f4 	movhi	r4,3
   20738:	2117c104 	addi	r4,r4,24324
   2073c:	00278540 	call	27854 <puts>
					play_file(recording[1], audio_device);
   20740:	00800134 	movhi	r2,4
   20744:	10a77c04 	addi	r2,r2,-25104
   20748:	e0ff7117 	ldw	r3,-572(fp)
   2074c:	d8c00015 	stw	r3,0(sp)
   20750:	11000417 	ldw	r4,16(r2)
   20754:	11400517 	ldw	r5,20(r2)
   20758:	11800617 	ldw	r6,24(r2)
   2075c:	11c00717 	ldw	r7,28(r2)
   20760:	0020cc00 	call	20cc0 <play_file>
				}
				break;
   20764:	00001406 	br	207b8 <main+0x524>
			case 0b1101:
				if (recording[2].processed == true)
   20768:	00800134 	movhi	r2,4
   2076c:	10a77c04 	addi	r2,r2,-25104
   20770:	10800b03 	ldbu	r2,44(r2)
   20774:	10803fcc 	andi	r2,r2,255
   20778:	10001126 	beq	r2,zero,207c0 <main+0x52c>
				{
					printf("Playing recording 3...\n");
   2077c:	010000f4 	movhi	r4,3
   20780:	2117c704 	addi	r4,r4,24348
   20784:	00278540 	call	27854 <puts>
					play_file(recording[2], audio_device);
   20788:	00800134 	movhi	r2,4
   2078c:	10a77c04 	addi	r2,r2,-25104
   20790:	e0ff7117 	ldw	r3,-572(fp)
   20794:	d8c00015 	stw	r3,0(sp)
   20798:	11000817 	ldw	r4,32(r2)
   2079c:	11400917 	ldw	r5,36(r2)
   207a0:	11800a17 	ldw	r6,40(r2)
   207a4:	11c00b17 	ldw	r7,44(r2)
   207a8:	0020cc00 	call	20cc0 <play_file>
				}
				break;
   207ac:	00000406 	br	207c0 <main+0x52c>
				if (recording[0].processed == true)
				{
					printf("Playing recording 1...\n");
					play_file(recording[0], audio_device);
				}
				break;
   207b0:	0001883a 	nop
   207b4:	003f3906 	br	2049c <__alt_mem_SDRAM_controller+0xfc02049c>
				if (recording[1].processed == true)
				{
					printf("Playing recording 2...\n");
					play_file(recording[1], audio_device);
				}
				break;
   207b8:	0001883a 	nop
   207bc:	003f3706 	br	2049c <__alt_mem_SDRAM_controller+0xfc02049c>
				if (recording[2].processed == true)
				{
					printf("Playing recording 3...\n");
					play_file(recording[2], audio_device);
				}
				break;
   207c0:	0001883a 	nop
			default:
				break;
		}
	}
   207c4:	003f3506 	br	2049c <__alt_mem_SDRAM_controller+0xfc02049c>
	return 0;
}
   207c8:	e6ffff04 	addi	sp,fp,-4
   207cc:	dfc00217 	ldw	ra,8(sp)
   207d0:	df000117 	ldw	fp,4(sp)
   207d4:	dc000017 	ldw	r16,0(sp)
   207d8:	dec00304 	addi	sp,sp,12
   207dc:	f800283a 	ret

000207e0 <start_recording>:



// records a sound from the microphone and stores it at location pointed by *file (it should be in the SDRAM)
void start_recording(AudioFile file, alt_up_audio_dev *audio_device)
{
   207e0:	deff7604 	addi	sp,sp,-552
   207e4:	dfc08915 	stw	ra,548(sp)
   207e8:	df008815 	stw	fp,544(sp)
   207ec:	dc008715 	stw	r16,540(sp)
   207f0:	df008804 	addi	fp,sp,544
   207f4:	e13ffb15 	stw	r4,-20(fp)
   207f8:	e17ffc15 	stw	r5,-16(fp)
   207fc:	e1bffd15 	stw	r6,-12(fp)
   20800:	e1fffe15 	stw	r7,-8(fp)
	unsigned int n_samples_in_FIFO = 0, buffer[RECORDING_BUFFER_SIZE], i;
   20804:	e03f7915 	stw	zero,-540(fp)
	float percentage;

	file.processed = false;
   20808:	e03ffe05 	stb	zero,-8(fp)
	file.file_pointer = file.start_address;
   2080c:	e0bffb17 	ldw	r2,-20(fp)
   20810:	e0bffc15 	stw	r2,-16(fp)

	while (file.file_pointer < file.end_address) {
   20814:	00004906 	br	2093c <start_recording+0x15c>
		n_samples_in_FIFO = alt_up_audio_read_fifo_avail(audio_device, 0);
   20818:	000b883a 	mov	r5,zero
   2081c:	e1000217 	ldw	r4,8(fp)
   20820:	0033d900 	call	33d90 <alt_up_audio_read_fifo_avail>
   20824:	e0bf7915 	stw	r2,-540(fp)
		alt_up_audio_read_fifo(audio_device, buffer, n_samples_in_FIFO, 0);		// reads data from the incoming FIFO (sound from the microphone)
   20828:	e0ff7917 	ldw	r3,-540(fp)
   2082c:	e0bf7b04 	addi	r2,fp,-532
   20830:	000f883a 	mov	r7,zero
   20834:	180d883a 	mov	r6,r3
   20838:	100b883a 	mov	r5,r2
   2083c:	e1000217 	ldw	r4,8(fp)
   20840:	0033ff00 	call	33ff0 <alt_up_audio_read_fifo>

		percentage = (float)(file.file_pointer - file.start_address)/(file.end_address - file.start_address);
   20844:	e0bffc17 	ldw	r2,-16(fp)
   20848:	1007883a 	mov	r3,r2
   2084c:	e0bffb17 	ldw	r2,-20(fp)
   20850:	1885c83a 	sub	r2,r3,r2
   20854:	1005d0ba 	srai	r2,r2,2
   20858:	1009883a 	mov	r4,r2
   2085c:	0024d7c0 	call	24d7c <__floatsisf>
   20860:	1021883a 	mov	r16,r2
   20864:	e0bffd17 	ldw	r2,-12(fp)
   20868:	1007883a 	mov	r3,r2
   2086c:	e0bffb17 	ldw	r2,-20(fp)
   20870:	1885c83a 	sub	r2,r3,r2
   20874:	1005d0ba 	srai	r2,r2,2
   20878:	1009883a 	mov	r4,r2
   2087c:	0024d7c0 	call	24d7c <__floatsisf>
   20880:	1007883a 	mov	r3,r2
   20884:	180b883a 	mov	r5,r3
   20888:	8009883a 	mov	r4,r16
   2088c:	0023e680 	call	23e68 <__divsf3>
   20890:	1007883a 	mov	r3,r2
   20894:	e0ff7a15 	stw	r3,-536(fp)
		IOWR_ALTERA_AVALON_PIO_DATA(PIO_LEDS_BASE, (0x01 << (int)(10 * percentage))-1);
   20898:	01504834 	movhi	r5,16672
   2089c:	e13f7a17 	ldw	r4,-536(fp)
   208a0:	002442c0 	call	2442c <__mulsf3>
   208a4:	1007883a 	mov	r3,r2
   208a8:	1805883a 	mov	r2,r3
   208ac:	1009883a 	mov	r4,r2
   208b0:	0024d0c0 	call	24d0c <__fixsfsi>
   208b4:	1007883a 	mov	r3,r2
   208b8:	00800044 	movi	r2,1
   208bc:	10c4983a 	sll	r2,r2,r3
   208c0:	10ffffc4 	addi	r3,r2,-1
   208c4:	00800134 	movhi	r2,4
   208c8:	10840404 	addi	r2,r2,4112
   208cc:	10c00035 	stwio	r3,0(r2)
		for(i=0; i<n_samples_in_FIFO; i++)
   208d0:	e03f7815 	stw	zero,-544(fp)
   208d4:	00001006 	br	20918 <start_recording+0x138>
		{
			IOWR_32DIRECT(file.file_pointer, i*4, buffer[i]);
   208d8:	e0fffc17 	ldw	r3,-16(fp)
   208dc:	e0bf7817 	ldw	r2,-544(fp)
   208e0:	1085883a 	add	r2,r2,r2
   208e4:	1085883a 	add	r2,r2,r2
   208e8:	1887883a 	add	r3,r3,r2
   208ec:	e0bf7817 	ldw	r2,-544(fp)
   208f0:	1085883a 	add	r2,r2,r2
   208f4:	1085883a 	add	r2,r2,r2
   208f8:	e13f7804 	addi	r4,fp,-544
   208fc:	2085883a 	add	r2,r4,r2
   20900:	10800304 	addi	r2,r2,12
   20904:	10800017 	ldw	r2,0(r2)
   20908:	18800035 	stwio	r2,0(r3)
		n_samples_in_FIFO = alt_up_audio_read_fifo_avail(audio_device, 0);
		alt_up_audio_read_fifo(audio_device, buffer, n_samples_in_FIFO, 0);		// reads data from the incoming FIFO (sound from the microphone)

		percentage = (float)(file.file_pointer - file.start_address)/(file.end_address - file.start_address);
		IOWR_ALTERA_AVALON_PIO_DATA(PIO_LEDS_BASE, (0x01 << (int)(10 * percentage))-1);
		for(i=0; i<n_samples_in_FIFO; i++)
   2090c:	e0bf7817 	ldw	r2,-544(fp)
   20910:	10800044 	addi	r2,r2,1
   20914:	e0bf7815 	stw	r2,-544(fp)
   20918:	e0ff7817 	ldw	r3,-544(fp)
   2091c:	e0bf7917 	ldw	r2,-540(fp)
   20920:	18bfed36 	bltu	r3,r2,208d8 <__alt_mem_SDRAM_controller+0xfc0208d8>
		{
			IOWR_32DIRECT(file.file_pointer, i*4, buffer[i]);
		}
		file.file_pointer += n_samples_in_FIFO;
   20924:	e0fffc17 	ldw	r3,-16(fp)
   20928:	e0bf7917 	ldw	r2,-540(fp)
   2092c:	1085883a 	add	r2,r2,r2
   20930:	1085883a 	add	r2,r2,r2
   20934:	1885883a 	add	r2,r3,r2
   20938:	e0bffc15 	stw	r2,-16(fp)
	float percentage;

	file.processed = false;
	file.file_pointer = file.start_address;

	while (file.file_pointer < file.end_address) {
   2093c:	e0fffc17 	ldw	r3,-16(fp)
   20940:	e0bffd17 	ldw	r2,-12(fp)
   20944:	18bfb436 	bltu	r3,r2,20818 <__alt_mem_SDRAM_controller+0xfc020818>
		{
			IOWR_32DIRECT(file.file_pointer, i*4, buffer[i]);
		}
		file.file_pointer += n_samples_in_FIFO;
	}
}
   20948:	0001883a 	nop
   2094c:	e6ffff04 	addi	sp,fp,-4
   20950:	dfc00217 	ldw	ra,8(sp)
   20954:	df000117 	ldw	fp,4(sp)
   20958:	dc000017 	ldw	r16,0(sp)
   2095c:	dec00304 	addi	sp,sp,12
   20960:	f800283a 	ret

00020964 <new_audio_file>:




AudioFile new_audio_file(unsigned int length)
{
   20964:	defff804 	addi	sp,sp,-32
   20968:	dfc00715 	stw	ra,28(sp)
   2096c:	df000615 	stw	fp,24(sp)
   20970:	df000604 	addi	fp,sp,24
   20974:	e13ffe15 	stw	r4,-8(fp)
   20978:	e17fff15 	stw	r5,-4(fp)
	static unsigned int *first_available_address = BASE_ADDRESS;
	AudioFile file;

	file.start_address = first_available_address;
   2097c:	d0a00117 	ldw	r2,-32764(gp)
   20980:	e0bffa15 	stw	r2,-24(fp)
	file.file_pointer = first_available_address;
   20984:	d0a00117 	ldw	r2,-32764(gp)
   20988:	e0bffb15 	stw	r2,-20(fp)
	file.end_address = first_available_address + length;
   2098c:	d0e00117 	ldw	r3,-32764(gp)
   20990:	e0bfff17 	ldw	r2,-4(fp)
   20994:	1085883a 	add	r2,r2,r2
   20998:	1085883a 	add	r2,r2,r2
   2099c:	1885883a 	add	r2,r3,r2
   209a0:	e0bffc15 	stw	r2,-16(fp)
	file.processed = false;
   209a4:	e03ffd05 	stb	zero,-12(fp)

	if ((int)file.end_address  < SDRAM_CONTROLLER_BASE + SDRAM_CONTROLLER_SPAN)
   209a8:	e0bffc17 	ldw	r2,-16(fp)
   209ac:	1007883a 	mov	r3,r2
   209b0:	00820034 	movhi	r2,2048
   209b4:	1880040e 	bge	r3,r2,209c8 <new_audio_file+0x64>
	{
		first_available_address = file.end_address + 1;
   209b8:	e0bffc17 	ldw	r2,-16(fp)
   209bc:	10800104 	addi	r2,r2,4
   209c0:	d0a00115 	stw	r2,-32764(gp)
   209c4:	00000606 	br	209e0 <new_audio_file+0x7c>
	}
	else
	{
		printf("ERROR: not enough memory to allocate audio file!\n");
   209c8:	010000f4 	movhi	r4,3
   209cc:	2117cd04 	addi	r4,r4,24372
   209d0:	00278540 	call	27854 <puts>
		file.start_address = NULL;
   209d4:	e03ffa15 	stw	zero,-24(fp)
		file.file_pointer = NULL;
   209d8:	e03ffb15 	stw	zero,-20(fp)
		file.end_address = NULL;
   209dc:	e03ffc15 	stw	zero,-16(fp)
	}
	return file;
   209e0:	e0bffe17 	ldw	r2,-8(fp)
   209e4:	e0fffa17 	ldw	r3,-24(fp)
   209e8:	10c00015 	stw	r3,0(r2)
   209ec:	e0fffb17 	ldw	r3,-20(fp)
   209f0:	10c00115 	stw	r3,4(r2)
   209f4:	e0fffc17 	ldw	r3,-16(fp)
   209f8:	10c00215 	stw	r3,8(r2)
   209fc:	e0fffd17 	ldw	r3,-12(fp)
   20a00:	10c00315 	stw	r3,12(r2)
}
   20a04:	e0bffe17 	ldw	r2,-8(fp)
   20a08:	e037883a 	mov	sp,fp
   20a0c:	dfc00117 	ldw	ra,4(sp)
   20a10:	df000017 	ldw	fp,0(sp)
   20a14:	dec00204 	addi	sp,sp,8
   20a18:	f800283a 	ret

00020a1c <generate_sinusoid>:


// creates a sinusoidal waveform in the memory (at the location pointed by "unsigned int *file"), n_samples specifies the length
// of the file to create.
void generate_sinusoid(int sampling_freq, float freq, char amplitude, AudioFile file)
{
   20a1c:	defff104 	addi	sp,sp,-60
   20a20:	dfc00d15 	stw	ra,52(sp)
   20a24:	df000c15 	stw	fp,48(sp)
   20a28:	dc800b15 	stw	r18,44(sp)
   20a2c:	dc400a15 	stw	r17,40(sp)
   20a30:	dc000915 	stw	r16,36(sp)
   20a34:	df000c04 	addi	fp,sp,48
   20a38:	e13ffa15 	stw	r4,-24(fp)
   20a3c:	e17ffb15 	stw	r5,-20(fp)
   20a40:	3005883a 	mov	r2,r6
   20a44:	e1c00215 	stw	r7,8(fp)
   20a48:	e0bffc05 	stb	r2,-16(fp)
	int i, amplitude_factor, samples_in_period, n_samples;
	float phase_factor;
	unsigned int sample;

	n_samples = file.end_address - file.start_address;
   20a4c:	e0800417 	ldw	r2,16(fp)
   20a50:	1007883a 	mov	r3,r2
   20a54:	e0800217 	ldw	r2,8(fp)
   20a58:	1885c83a 	sub	r2,r3,r2
   20a5c:	1005d0ba 	srai	r2,r2,2
   20a60:	e0bff515 	stw	r2,-44(fp)

	phase_factor = 2 * M_PI * freq / sampling_freq;	// I break down the computation because it is too slow
   20a64:	e13ffb17 	ldw	r4,-20(fp)
   20a68:	00273fc0 	call	273fc <__extendsfdf2>
   20a6c:	1011883a 	mov	r8,r2
   20a70:	1813883a 	mov	r9,r3
   20a74:	01951134 	movhi	r6,21572
   20a78:	318b4604 	addi	r6,r6,11544
   20a7c:	01d00674 	movhi	r7,16409
   20a80:	39c87ec4 	addi	r7,r7,8699
   20a84:	4009883a 	mov	r4,r8
   20a88:	480b883a 	mov	r5,r9
   20a8c:	002628c0 	call	2628c <__muldf3>
   20a90:	1009883a 	mov	r4,r2
   20a94:	180b883a 	mov	r5,r3
   20a98:	2021883a 	mov	r16,r4
   20a9c:	2823883a 	mov	r17,r5
   20aa0:	e13ffa17 	ldw	r4,-24(fp)
   20aa4:	00273200 	call	27320 <__floatsidf>
   20aa8:	1009883a 	mov	r4,r2
   20aac:	180b883a 	mov	r5,r3
   20ab0:	200d883a 	mov	r6,r4
   20ab4:	280f883a 	mov	r7,r5
   20ab8:	8009883a 	mov	r4,r16
   20abc:	880b883a 	mov	r5,r17
   20ac0:	002574c0 	call	2574c <__divdf3>
   20ac4:	1009883a 	mov	r4,r2
   20ac8:	180b883a 	mov	r5,r3
   20acc:	2005883a 	mov	r2,r4
   20ad0:	2807883a 	mov	r3,r5
   20ad4:	1009883a 	mov	r4,r2
   20ad8:	180b883a 	mov	r5,r3
   20adc:	002750c0 	call	2750c <__truncdfsf2>
   20ae0:	1007883a 	mov	r3,r2
   20ae4:	e0fff615 	stw	r3,-40(fp)
	amplitude_factor = UINT_MAX*(float)amplitude/100.0;
   20ae8:	e0bffc07 	ldb	r2,-16(fp)
   20aec:	1009883a 	mov	r4,r2
   20af0:	0024d7c0 	call	24d7c <__floatsisf>
   20af4:	1007883a 	mov	r3,r2
   20af8:	0153e034 	movhi	r5,20352
   20afc:	1809883a 	mov	r4,r3
   20b00:	002442c0 	call	2442c <__mulsf3>
   20b04:	1007883a 	mov	r3,r2
   20b08:	1805883a 	mov	r2,r3
   20b0c:	1009883a 	mov	r4,r2
   20b10:	00273fc0 	call	273fc <__extendsfdf2>
   20b14:	1011883a 	mov	r8,r2
   20b18:	1813883a 	mov	r9,r3
   20b1c:	000d883a 	mov	r6,zero
   20b20:	01d01674 	movhi	r7,16473
   20b24:	4009883a 	mov	r4,r8
   20b28:	480b883a 	mov	r5,r9
   20b2c:	002574c0 	call	2574c <__divdf3>
   20b30:	1009883a 	mov	r4,r2
   20b34:	180b883a 	mov	r5,r3
   20b38:	2005883a 	mov	r2,r4
   20b3c:	2807883a 	mov	r3,r5
   20b40:	1009883a 	mov	r4,r2
   20b44:	180b883a 	mov	r5,r3
   20b48:	00272a00 	call	272a0 <__fixdfsi>
   20b4c:	e0bff715 	stw	r2,-36(fp)

	// generates first period of the wave and then copies it (to improve speed since sin() is very slow)
	samples_in_period = sampling_freq/freq;
   20b50:	e13ffa17 	ldw	r4,-24(fp)
   20b54:	0024d7c0 	call	24d7c <__floatsisf>
   20b58:	1007883a 	mov	r3,r2
   20b5c:	e17ffb17 	ldw	r5,-20(fp)
   20b60:	1809883a 	mov	r4,r3
   20b64:	0023e680 	call	23e68 <__divsf3>
   20b68:	1007883a 	mov	r3,r2
   20b6c:	1805883a 	mov	r2,r3
   20b70:	1009883a 	mov	r4,r2
   20b74:	0024d0c0 	call	24d0c <__fixsfsi>
   20b78:	e0bff815 	stw	r2,-32(fp)
	for (i=0; i<samples_in_period; i++)
   20b7c:	e03ff415 	stw	zero,-48(fp)
   20b80:	00002a06 	br	20c2c <generate_sinusoid+0x210>
	{
		file.start_address[i] = amplitude_factor *  sin( phase_factor * i );
   20b84:	e0c00217 	ldw	r3,8(fp)
   20b88:	e0bff417 	ldw	r2,-48(fp)
   20b8c:	1085883a 	add	r2,r2,r2
   20b90:	1085883a 	add	r2,r2,r2
   20b94:	18a5883a 	add	r18,r3,r2
   20b98:	e13ff717 	ldw	r4,-36(fp)
   20b9c:	00273200 	call	27320 <__floatsidf>
   20ba0:	1021883a 	mov	r16,r2
   20ba4:	1823883a 	mov	r17,r3
   20ba8:	e13ff417 	ldw	r4,-48(fp)
   20bac:	0024d7c0 	call	24d7c <__floatsisf>
   20bb0:	1007883a 	mov	r3,r2
   20bb4:	e17ff617 	ldw	r5,-40(fp)
   20bb8:	1809883a 	mov	r4,r3
   20bbc:	002442c0 	call	2442c <__mulsf3>
   20bc0:	1007883a 	mov	r3,r2
   20bc4:	1805883a 	mov	r2,r3
   20bc8:	1009883a 	mov	r4,r2
   20bcc:	00273fc0 	call	273fc <__extendsfdf2>
   20bd0:	100b883a 	mov	r5,r2
   20bd4:	180d883a 	mov	r6,r3
   20bd8:	2809883a 	mov	r4,r5
   20bdc:	300b883a 	mov	r5,r6
   20be0:	00212300 	call	21230 <sin>
   20be4:	1009883a 	mov	r4,r2
   20be8:	180b883a 	mov	r5,r3
   20bec:	200d883a 	mov	r6,r4
   20bf0:	280f883a 	mov	r7,r5
   20bf4:	8009883a 	mov	r4,r16
   20bf8:	880b883a 	mov	r5,r17
   20bfc:	002628c0 	call	2628c <__muldf3>
   20c00:	1009883a 	mov	r4,r2
   20c04:	180b883a 	mov	r5,r3
   20c08:	2005883a 	mov	r2,r4
   20c0c:	2807883a 	mov	r3,r5
   20c10:	1009883a 	mov	r4,r2
   20c14:	180b883a 	mov	r5,r3
   20c18:	00237780 	call	23778 <__fixunsdfsi>
   20c1c:	90800015 	stw	r2,0(r18)
	phase_factor = 2 * M_PI * freq / sampling_freq;	// I break down the computation because it is too slow
	amplitude_factor = UINT_MAX*(float)amplitude/100.0;

	// generates first period of the wave and then copies it (to improve speed since sin() is very slow)
	samples_in_period = sampling_freq/freq;
	for (i=0; i<samples_in_period; i++)
   20c20:	e0bff417 	ldw	r2,-48(fp)
   20c24:	10800044 	addi	r2,r2,1
   20c28:	e0bff415 	stw	r2,-48(fp)
   20c2c:	e0fff417 	ldw	r3,-48(fp)
   20c30:	e0bff817 	ldw	r2,-32(fp)
   20c34:	18bfd316 	blt	r3,r2,20b84 <__alt_mem_SDRAM_controller+0xfc020b84>
	{
		file.start_address[i] = amplitude_factor *  sin( phase_factor * i );
	}

	for(i=samples_in_period; i<n_samples; i++)	// copies it all over
   20c38:	e0bff817 	ldw	r2,-32(fp)
   20c3c:	e0bff415 	stw	r2,-48(fp)
   20c40:	00001306 	br	20c90 <generate_sinusoid+0x274>
	{
		sample = IORD_32DIRECT(file.start_address, (i - samples_in_period)*4);
   20c44:	e0c00217 	ldw	r3,8(fp)
   20c48:	e13ff417 	ldw	r4,-48(fp)
   20c4c:	e0bff817 	ldw	r2,-32(fp)
   20c50:	2085c83a 	sub	r2,r4,r2
   20c54:	1085883a 	add	r2,r2,r2
   20c58:	1085883a 	add	r2,r2,r2
   20c5c:	1885883a 	add	r2,r3,r2
   20c60:	10800037 	ldwio	r2,0(r2)
   20c64:	e0bff915 	stw	r2,-28(fp)
		IOWR_32DIRECT(file.start_address, i*4, sample);
   20c68:	e0c00217 	ldw	r3,8(fp)
   20c6c:	e0bff417 	ldw	r2,-48(fp)
   20c70:	1085883a 	add	r2,r2,r2
   20c74:	1085883a 	add	r2,r2,r2
   20c78:	1885883a 	add	r2,r3,r2
   20c7c:	e0fff917 	ldw	r3,-28(fp)
   20c80:	10c00035 	stwio	r3,0(r2)
	for (i=0; i<samples_in_period; i++)
	{
		file.start_address[i] = amplitude_factor *  sin( phase_factor * i );
	}

	for(i=samples_in_period; i<n_samples; i++)	// copies it all over
   20c84:	e0bff417 	ldw	r2,-48(fp)
   20c88:	10800044 	addi	r2,r2,1
   20c8c:	e0bff415 	stw	r2,-48(fp)
   20c90:	e0fff417 	ldw	r3,-48(fp)
   20c94:	e0bff517 	ldw	r2,-44(fp)
   20c98:	18bfea16 	blt	r3,r2,20c44 <__alt_mem_SDRAM_controller+0xfc020c44>
	{
		sample = IORD_32DIRECT(file.start_address, (i - samples_in_period)*4);
		IOWR_32DIRECT(file.start_address, i*4, sample);
	}
}
   20c9c:	0001883a 	nop
   20ca0:	e6fffd04 	addi	sp,fp,-12
   20ca4:	dfc00417 	ldw	ra,16(sp)
   20ca8:	df000317 	ldw	fp,12(sp)
   20cac:	dc800217 	ldw	r18,8(sp)
   20cb0:	dc400117 	ldw	r17,4(sp)
   20cb4:	dc000017 	ldw	r16,0(sp)
   20cb8:	dec00604 	addi	sp,sp,24
   20cbc:	f800283a 	ret

00020cc0 <play_file>:



// this function plays an audio file trough the output jack (green). To do so it needs to send bursts of data to the outgoing FIFO.
void play_file(AudioFile file, alt_up_audio_dev *audio_device)
{
   20cc0:	defff604 	addi	sp,sp,-40
   20cc4:	dfc00915 	stw	ra,36(sp)
   20cc8:	df000815 	stw	fp,32(sp)
   20ccc:	df000804 	addi	fp,sp,32
   20cd0:	e13ffc15 	stw	r4,-16(fp)
   20cd4:	e17ffd15 	stw	r5,-12(fp)
   20cd8:	e1bffe15 	stw	r6,-8(fp)
   20cdc:	e1ffff15 	stw	r7,-4(fp)
	unsigned int *file_pointer, i, file_size;
	const unsigned int BURST_LENGTH = 100;	// the outgoing FIFO is of 128 elements, if we write burst of 100 at the time there is no distortion (this is an empirical value)
   20ce0:	00801904 	movi	r2,100
   20ce4:	e0bff915 	stw	r2,-28(fp)

	file_size = file.end_address - file.start_address;
   20ce8:	e0bffe17 	ldw	r2,-8(fp)
   20cec:	1007883a 	mov	r3,r2
   20cf0:	e0bffc17 	ldw	r2,-16(fp)
   20cf4:	1885c83a 	sub	r2,r3,r2
   20cf8:	1005d0ba 	srai	r2,r2,2
   20cfc:	e0bffa15 	stw	r2,-24(fp)
	// sends the data, one burst at a time until the end of the file is reached
	for (i=0; i<file_size; i+=BURST_LENGTH)
   20d00:	e03ff815 	stw	zero,-32(fp)
   20d04:	00002f06 	br	20dc4 <play_file+0x104>
	{
		file_pointer = file.start_address + i;
   20d08:	e0fffc17 	ldw	r3,-16(fp)
   20d0c:	e0bff817 	ldw	r2,-32(fp)
   20d10:	1085883a 	add	r2,r2,r2
   20d14:	1085883a 	add	r2,r2,r2
   20d18:	1885883a 	add	r2,r3,r2
   20d1c:	e0bffb15 	stw	r2,-20(fp)
		if (file_size - i > BURST_LENGTH) {
   20d20:	e0fffa17 	ldw	r3,-24(fp)
   20d24:	e0bff817 	ldw	r2,-32(fp)
   20d28:	1885c83a 	sub	r2,r3,r2
   20d2c:	e0fff917 	ldw	r3,-28(fp)
   20d30:	18800b2e 	bgeu	r3,r2,20d60 <play_file+0xa0>
			alt_up_audio_play_r(audio_device, file_pointer, BURST_LENGTH);
   20d34:	e0bff917 	ldw	r2,-28(fp)
   20d38:	100d883a 	mov	r6,r2
   20d3c:	e17ffb17 	ldw	r5,-20(fp)
   20d40:	e1000217 	ldw	r4,8(fp)
   20d44:	0033f200 	call	33f20 <alt_up_audio_play_r>
			alt_up_audio_play_l(audio_device, file_pointer, BURST_LENGTH);
   20d48:	e0bff917 	ldw	r2,-28(fp)
   20d4c:	100d883a 	mov	r6,r2
   20d50:	e17ffb17 	ldw	r5,-20(fp)
   20d54:	e1000217 	ldw	r4,8(fp)
   20d58:	0033f880 	call	33f88 <alt_up_audio_play_l>
   20d5c:	00000e06 	br	20d98 <play_file+0xd8>
		} else {
			alt_up_audio_play_r(audio_device, file_pointer, file_size - i);
   20d60:	e0fffa17 	ldw	r3,-24(fp)
   20d64:	e0bff817 	ldw	r2,-32(fp)
   20d68:	1885c83a 	sub	r2,r3,r2
   20d6c:	100d883a 	mov	r6,r2
   20d70:	e17ffb17 	ldw	r5,-20(fp)
   20d74:	e1000217 	ldw	r4,8(fp)
   20d78:	0033f200 	call	33f20 <alt_up_audio_play_r>
			alt_up_audio_play_l(audio_device, file_pointer, file_size - i);
   20d7c:	e0fffa17 	ldw	r3,-24(fp)
   20d80:	e0bff817 	ldw	r2,-32(fp)
   20d84:	1885c83a 	sub	r2,r3,r2
   20d88:	100d883a 	mov	r6,r2
   20d8c:	e17ffb17 	ldw	r5,-20(fp)
   20d90:	e1000217 	ldw	r4,8(fp)
   20d94:	0033f880 	call	33f88 <alt_up_audio_play_l>
		}
		while(alt_up_audio_write_fifo_space(audio_device, 0)<BURST_LENGTH);	// waits for the FIFO to get empty
   20d98:	0001883a 	nop
   20d9c:	000b883a 	mov	r5,zero
   20da0:	e1000217 	ldw	r4,8(fp)
   20da4:	0033ec00 	call	33ec0 <alt_up_audio_write_fifo_space>
   20da8:	1007883a 	mov	r3,r2
   20dac:	e0bff917 	ldw	r2,-28(fp)
   20db0:	18bffa36 	bltu	r3,r2,20d9c <__alt_mem_SDRAM_controller+0xfc020d9c>
	unsigned int *file_pointer, i, file_size;
	const unsigned int BURST_LENGTH = 100;	// the outgoing FIFO is of 128 elements, if we write burst of 100 at the time there is no distortion (this is an empirical value)

	file_size = file.end_address - file.start_address;
	// sends the data, one burst at a time until the end of the file is reached
	for (i=0; i<file_size; i+=BURST_LENGTH)
   20db4:	e0fff817 	ldw	r3,-32(fp)
   20db8:	e0bff917 	ldw	r2,-28(fp)
   20dbc:	1885883a 	add	r2,r3,r2
   20dc0:	e0bff815 	stw	r2,-32(fp)
   20dc4:	e0fff817 	ldw	r3,-32(fp)
   20dc8:	e0bffa17 	ldw	r2,-24(fp)
   20dcc:	18bfce36 	bltu	r3,r2,20d08 <__alt_mem_SDRAM_controller+0xfc020d08>
			alt_up_audio_play_r(audio_device, file_pointer, file_size - i);
			alt_up_audio_play_l(audio_device, file_pointer, file_size - i);
		}
		while(alt_up_audio_write_fifo_space(audio_device, 0)<BURST_LENGTH);	// waits for the FIFO to get empty
	}
}
   20dd0:	0001883a 	nop
   20dd4:	e037883a 	mov	sp,fp
   20dd8:	dfc00117 	ldw	ra,4(sp)
   20ddc:	df000017 	ldw	fp,0(sp)
   20de0:	dec00204 	addi	sp,sp,8
   20de4:	f800283a 	ret

00020de8 <show_amplitude_on_LEDS>:


// outputs the amplitude on the LEDs
void show_amplitude_on_LEDS(float amplitude)
{
   20de8:	defffd04 	addi	sp,sp,-12
   20dec:	dfc00215 	stw	ra,8(sp)
   20df0:	df000115 	stw	fp,4(sp)
   20df4:	df000104 	addi	fp,sp,4
   20df8:	e13fff15 	stw	r4,-4(fp)
	amplitude = sqrt(amplitude);	// the way we perceive sound is not linear, this is why I take the square root of the amplitude
   20dfc:	e13fff17 	ldw	r4,-4(fp)
   20e00:	00273fc0 	call	273fc <__extendsfdf2>
   20e04:	100b883a 	mov	r5,r2
   20e08:	180d883a 	mov	r6,r3
   20e0c:	2809883a 	mov	r4,r5
   20e10:	300b883a 	mov	r5,r6
   20e14:	00213200 	call	21320 <sqrt>
   20e18:	100b883a 	mov	r5,r2
   20e1c:	180d883a 	mov	r6,r3
   20e20:	2809883a 	mov	r4,r5
   20e24:	300b883a 	mov	r5,r6
   20e28:	002750c0 	call	2750c <__truncdfsf2>
   20e2c:	1007883a 	mov	r3,r2
   20e30:	e0ffff15 	stw	r3,-4(fp)
	IOWR_ALTERA_AVALON_PIO_DATA(PIO_LEDS_BASE, (0x01<<((int)(amplitude*PIO_LEDS_NUMBER)))-1);
   20e34:	01504834 	movhi	r5,16672
   20e38:	e13fff17 	ldw	r4,-4(fp)
   20e3c:	002442c0 	call	2442c <__mulsf3>
   20e40:	1007883a 	mov	r3,r2
   20e44:	1805883a 	mov	r2,r3
   20e48:	1009883a 	mov	r4,r2
   20e4c:	0024d0c0 	call	24d0c <__fixsfsi>
   20e50:	1007883a 	mov	r3,r2
   20e54:	00800044 	movi	r2,1
   20e58:	10c4983a 	sll	r2,r2,r3
   20e5c:	10ffffc4 	addi	r3,r2,-1
   20e60:	00800134 	movhi	r2,4
   20e64:	10840404 	addi	r2,r2,4112
   20e68:	10c00035 	stwio	r3,0(r2)
}
   20e6c:	0001883a 	nop
   20e70:	e037883a 	mov	sp,fp
   20e74:	dfc00117 	ldw	ra,4(sp)
   20e78:	df000017 	ldw	fp,0(sp)
   20e7c:	dec00204 	addi	sp,sp,8
   20e80:	f800283a 	ret

00020e84 <average_amplitude>:


// computes the average amplitude of an array of sound samples
float average_amplitude(int *data, int length)
{
   20e84:	defffa04 	addi	sp,sp,-24
   20e88:	dfc00515 	stw	ra,20(sp)
   20e8c:	df000415 	stw	fp,16(sp)
   20e90:	df000404 	addi	fp,sp,16
   20e94:	e13ffe15 	stw	r4,-8(fp)
   20e98:	e17fff15 	stw	r5,-4(fp)
	int i;
	float average_amplitude = 0;
   20e9c:	e03ffd15 	stw	zero,-12(fp)

	// computes the average
	for (i=0; i<length; i++)
   20ea0:	e03ffc15 	stw	zero,-16(fp)
   20ea4:	00002a06 	br	20f50 <average_amplitude+0xcc>
	{
		if (data[i] < 0)
   20ea8:	e0bffc17 	ldw	r2,-16(fp)
   20eac:	1085883a 	add	r2,r2,r2
   20eb0:	1085883a 	add	r2,r2,r2
   20eb4:	1007883a 	mov	r3,r2
   20eb8:	e0bffe17 	ldw	r2,-8(fp)
   20ebc:	10c5883a 	add	r2,r2,r3
   20ec0:	10800017 	ldw	r2,0(r2)
   20ec4:	1000100e 	bge	r2,zero,20f08 <average_amplitude+0x84>
			average_amplitude -= data[i];
   20ec8:	e0bffc17 	ldw	r2,-16(fp)
   20ecc:	1085883a 	add	r2,r2,r2
   20ed0:	1085883a 	add	r2,r2,r2
   20ed4:	1007883a 	mov	r3,r2
   20ed8:	e0bffe17 	ldw	r2,-8(fp)
   20edc:	10c5883a 	add	r2,r2,r3
   20ee0:	10800017 	ldw	r2,0(r2)
   20ee4:	1009883a 	mov	r4,r2
   20ee8:	0024d7c0 	call	24d7c <__floatsisf>
   20eec:	1007883a 	mov	r3,r2
   20ef0:	180b883a 	mov	r5,r3
   20ef4:	e13ffd17 	ldw	r4,-12(fp)
   20ef8:	00248280 	call	24828 <__subsf3>
   20efc:	1007883a 	mov	r3,r2
   20f00:	e0fffd15 	stw	r3,-12(fp)
   20f04:	00000f06 	br	20f44 <average_amplitude+0xc0>
		else
			average_amplitude += data[i];
   20f08:	e0bffc17 	ldw	r2,-16(fp)
   20f0c:	1085883a 	add	r2,r2,r2
   20f10:	1085883a 	add	r2,r2,r2
   20f14:	1007883a 	mov	r3,r2
   20f18:	e0bffe17 	ldw	r2,-8(fp)
   20f1c:	10c5883a 	add	r2,r2,r3
   20f20:	10800017 	ldw	r2,0(r2)
   20f24:	1009883a 	mov	r4,r2
   20f28:	0024d7c0 	call	24d7c <__floatsisf>
   20f2c:	1007883a 	mov	r3,r2
   20f30:	180b883a 	mov	r5,r3
   20f34:	e13ffd17 	ldw	r4,-12(fp)
   20f38:	00239a00 	call	239a0 <__addsf3>
   20f3c:	1007883a 	mov	r3,r2
   20f40:	e0fffd15 	stw	r3,-12(fp)
{
	int i;
	float average_amplitude = 0;

	// computes the average
	for (i=0; i<length; i++)
   20f44:	e0bffc17 	ldw	r2,-16(fp)
   20f48:	10800044 	addi	r2,r2,1
   20f4c:	e0bffc15 	stw	r2,-16(fp)
   20f50:	e0fffc17 	ldw	r3,-16(fp)
   20f54:	e0bfff17 	ldw	r2,-4(fp)
   20f58:	18bfd316 	blt	r3,r2,20ea8 <__alt_mem_SDRAM_controller+0xfc020ea8>
		else
			average_amplitude += data[i];
	}

	// normalizes to a range from 0 to 1
	average_amplitude /= INT_MAX;
   20f5c:	0153c034 	movhi	r5,20224
   20f60:	e13ffd17 	ldw	r4,-12(fp)
   20f64:	0023e680 	call	23e68 <__divsf3>
   20f68:	1007883a 	mov	r3,r2
   20f6c:	e0fffd15 	stw	r3,-12(fp)
	average_amplitude /= length;
   20f70:	e13fff17 	ldw	r4,-4(fp)
   20f74:	0024d7c0 	call	24d7c <__floatsisf>
   20f78:	1007883a 	mov	r3,r2
   20f7c:	180b883a 	mov	r5,r3
   20f80:	e13ffd17 	ldw	r4,-12(fp)
   20f84:	0023e680 	call	23e68 <__divsf3>
   20f88:	1007883a 	mov	r3,r2
   20f8c:	e0fffd15 	stw	r3,-12(fp)
	if (average_amplitude < 0)
   20f90:	000b883a 	mov	r5,zero
   20f94:	e13ffd17 	ldw	r4,-12(fp)
   20f98:	00243640 	call	24364 <__lesf2>
   20f9c:	1000030e 	bge	r2,zero,20fac <average_amplitude+0x128>
		average_amplitude *= -1;
   20fa0:	e0bffd17 	ldw	r2,-12(fp)
   20fa4:	10a0003c 	xorhi	r2,r2,32768
   20fa8:	e0bffd15 	stw	r2,-12(fp)

	return average_amplitude;
   20fac:	e0bffd17 	ldw	r2,-12(fp)
   20fb0:	1007883a 	mov	r3,r2
}
   20fb4:	1805883a 	mov	r2,r3
   20fb8:	e037883a 	mov	sp,fp
   20fbc:	dfc00117 	ldw	ra,4(sp)
   20fc0:	df000017 	ldw	fp,0(sp)
   20fc4:	dec00204 	addi	sp,sp,8
   20fc8:	f800283a 	ret

00020fcc <sender_mailbox_callback>:



void sender_mailbox_callback(void* report, int status) {
   20fcc:	defffc04 	addi	sp,sp,-16
   20fd0:	dfc00315 	stw	ra,12(sp)
   20fd4:	df000215 	stw	fp,8(sp)
   20fd8:	df000204 	addi	fp,sp,8
   20fdc:	e13ffe15 	stw	r4,-8(fp)
   20fe0:	e17fff15 	stw	r5,-4(fp)
	if (status) {
   20fe4:	e0bfff17 	ldw	r2,-4(fp)
   20fe8:	10000426 	beq	r2,zero,20ffc <sender_mailbox_callback+0x30>
		printf("Transfer done\n");
   20fec:	010000f4 	movhi	r4,3
   20ff0:	2117da04 	addi	r4,r4,24424
   20ff4:	00278540 	call	27854 <puts>
	} else {
		printf("error in transfer\n");
	}
}
   20ff8:	00000306 	br	21008 <sender_mailbox_callback+0x3c>

void sender_mailbox_callback(void* report, int status) {
	if (status) {
		printf("Transfer done\n");
	} else {
		printf("error in transfer\n");
   20ffc:	010000f4 	movhi	r4,3
   21000:	2117de04 	addi	r4,r4,24440
   21004:	00278540 	call	27854 <puts>
	}
}
   21008:	0001883a 	nop
   2100c:	e037883a 	mov	sp,fp
   21010:	dfc00117 	ldw	ra,4(sp)
   21014:	df000017 	ldw	fp,0(sp)
   21018:	dec00204 	addi	sp,sp,8
   2101c:	f800283a 	ret

00021020 <receiver_mailbox_callback>:



void receiver_mailbox_callback(void* message){
   21020:	defffb04 	addi	sp,sp,-20
   21024:	dfc00415 	stw	ra,16(sp)
   21028:	df000315 	stw	fp,12(sp)
   2102c:	df000304 	addi	fp,sp,12
   21030:	e13fff15 	stw	r4,-4(fp)
	int i;
	alt_u32* data = (alt_u32*)message;	// cast from void* to alt_u32*
   21034:	e0bfff17 	ldw	r2,-4(fp)
   21038:	e0bffe15 	stw	r2,-8(fp)

	//IORD_ALTERA_AVALON_MAILBOX_CMD(MAILBOX_TO_SOUND_ACQUISITION_BASE);
	if (message != NULL) {
   2103c:	e0bfff17 	ldw	r2,-4(fp)
   21040:	10002d26 	beq	r2,zero,210f8 <receiver_mailbox_callback+0xd8>
		for (i=0; i<RECORDING_MAX_NUMBER; i++)
   21044:	e03ffd15 	stw	zero,-12(fp)
   21048:	00000c06 	br	2107c <receiver_mailbox_callback+0x5c>
			if (recording[i].start_address ==  (unsigned int*)data[0])
   2104c:	00800134 	movhi	r2,4
   21050:	10a77c04 	addi	r2,r2,-25104
   21054:	e0fffd17 	ldw	r3,-12(fp)
   21058:	1806913a 	slli	r3,r3,4
   2105c:	10c5883a 	add	r2,r2,r3
   21060:	10800017 	ldw	r2,0(r2)
   21064:	e0fffe17 	ldw	r3,-8(fp)
   21068:	18c00017 	ldw	r3,0(r3)
   2106c:	10c00726 	beq	r2,r3,2108c <receiver_mailbox_callback+0x6c>
	int i;
	alt_u32* data = (alt_u32*)message;	// cast from void* to alt_u32*

	//IORD_ALTERA_AVALON_MAILBOX_CMD(MAILBOX_TO_SOUND_ACQUISITION_BASE);
	if (message != NULL) {
		for (i=0; i<RECORDING_MAX_NUMBER; i++)
   21070:	e0bffd17 	ldw	r2,-12(fp)
   21074:	10800044 	addi	r2,r2,1
   21078:	e0bffd15 	stw	r2,-12(fp)
   2107c:	e0bffd17 	ldw	r2,-12(fp)
   21080:	108000d0 	cmplti	r2,r2,3
   21084:	103ff11e 	bne	r2,zero,2104c <__alt_mem_SDRAM_controller+0xfc02104c>
   21088:	00000106 	br	21090 <receiver_mailbox_callback+0x70>
			if (recording[i].start_address ==  (unsigned int*)data[0])
				break;
   2108c:	0001883a 	nop
		if (i >= RECORDING_MAX_NUMBER)
   21090:	e0bffd17 	ldw	r2,-12(fp)
   21094:	108000d0 	cmplti	r2,r2,3
   21098:	1000041e 	bne	r2,zero,210ac <receiver_mailbox_callback+0x8c>
			printf("Error receiving file information from other processor\n");
   2109c:	010000f4 	movhi	r4,3
   210a0:	2117e304 	addi	r4,r4,24460
   210a4:	00278540 	call	27854 <puts>
   210a8:	00000806 	br	210cc <receiver_mailbox_callback+0xac>
		else
			recording[i].processed = true;
   210ac:	00800134 	movhi	r2,4
   210b0:	10a77c04 	addi	r2,r2,-25104
   210b4:	e0fffd17 	ldw	r3,-12(fp)
   210b8:	1806913a 	slli	r3,r3,4
   210bc:	10c5883a 	add	r2,r2,r3
   210c0:	10800304 	addi	r2,r2,12
   210c4:	00c00044 	movi	r3,1
   210c8:	10c00005 	stb	r3,0(r2)

		printf("Received processed file information: START ADDRESS 0x%lx \t END: 0x%lx \n\n", data[0], data[1]);
   210cc:	e0bffe17 	ldw	r2,-8(fp)
   210d0:	10c00017 	ldw	r3,0(r2)
   210d4:	e0bffe17 	ldw	r2,-8(fp)
   210d8:	10800104 	addi	r2,r2,4
   210dc:	10800017 	ldw	r2,0(r2)
   210e0:	100d883a 	mov	r6,r2
   210e4:	180b883a 	mov	r5,r3
   210e8:	010000f4 	movhi	r4,3
   210ec:	2117f104 	addi	r4,r4,24516
   210f0:	00277580 	call	27758 <printf>
	} else {
		printf("Incomplete receive\n");
	}
}
   210f4:	00000306 	br	21104 <receiver_mailbox_callback+0xe4>
		else
			recording[i].processed = true;

		printf("Received processed file information: START ADDRESS 0x%lx \t END: 0x%lx \n\n", data[0], data[1]);
	} else {
		printf("Incomplete receive\n");
   210f8:	010000f4 	movhi	r4,3
   210fc:	21180404 	addi	r4,r4,24592
   21100:	00278540 	call	27854 <puts>
	}
}
   21104:	0001883a 	nop
   21108:	e037883a 	mov	sp,fp
   2110c:	dfc00117 	ldw	ra,4(sp)
   21110:	df000017 	ldw	fp,0(sp)
   21114:	dec00204 	addi	sp,sp,8
   21118:	f800283a 	ret

0002111c <show_state_on_7_segments>:


void show_state_on_7_segments()
{
   2111c:	defffe04 	addi	sp,sp,-8
   21120:	df000115 	stw	fp,4(sp)
   21124:	df000104 	addi	fp,sp,4
	unsigned int output = 0xFFFFFFFF;
   21128:	00bfffc4 	movi	r2,-1
   2112c:	e0bfff15 	stw	r2,-4(fp)

	if (recording_index == 0)
   21130:	d0a00017 	ldw	r2,-32768(gp)
   21134:	1000061e 	bne	r2,zero,21150 <show_state_on_7_segments+0x34>
		output = output & 0b1111111111111111111111111001;
   21138:	e0ffff17 	ldw	r3,-4(fp)
   2113c:	00840034 	movhi	r2,4096
   21140:	10bffe44 	addi	r2,r2,-7
   21144:	1884703a 	and	r2,r3,r2
   21148:	e0bfff15 	stw	r2,-4(fp)
   2114c:	00001106 	br	21194 <show_state_on_7_segments+0x78>
	else if (recording_index == 1)
   21150:	d0a00017 	ldw	r2,-32768(gp)
   21154:	10800058 	cmpnei	r2,r2,1
   21158:	1000061e 	bne	r2,zero,21174 <show_state_on_7_segments+0x58>
		output = output & 0b1111111111111111111110100100;
   2115c:	e0ffff17 	ldw	r3,-4(fp)
   21160:	00840034 	movhi	r2,4096
   21164:	10bfe904 	addi	r2,r2,-92
   21168:	1884703a 	and	r2,r3,r2
   2116c:	e0bfff15 	stw	r2,-4(fp)
   21170:	00000806 	br	21194 <show_state_on_7_segments+0x78>
	else if (recording_index == 2)
   21174:	d0a00017 	ldw	r2,-32768(gp)
   21178:	10800098 	cmpnei	r2,r2,2
   2117c:	1000051e 	bne	r2,zero,21194 <show_state_on_7_segments+0x78>
		output = output & 0b1111111111111111111110110000;
   21180:	e0ffff17 	ldw	r3,-4(fp)
   21184:	00840034 	movhi	r2,4096
   21188:	10bfec04 	addi	r2,r2,-80
   2118c:	1884703a 	and	r2,r3,r2
   21190:	e0bfff15 	stw	r2,-4(fp)

	if (recording[0].processed)
   21194:	00800134 	movhi	r2,4
   21198:	10a77c04 	addi	r2,r2,-25104
   2119c:	10800303 	ldbu	r2,12(r2)
   211a0:	10803fcc 	andi	r2,r2,255
   211a4:	10000526 	beq	r2,zero,211bc <show_state_on_7_segments+0xa0>
		output = output & 0b1000000111111111111111111111;
   211a8:	e0ffff17 	ldw	r3,-4(fp)
   211ac:	00820834 	movhi	r2,2080
   211b0:	10bfffc4 	addi	r2,r2,-1
   211b4:	1884703a 	and	r2,r3,r2
   211b8:	e0bfff15 	stw	r2,-4(fp)
	if (recording[1].processed)
   211bc:	00800134 	movhi	r2,4
   211c0:	10a77c04 	addi	r2,r2,-25104
   211c4:	10800703 	ldbu	r2,28(r2)
   211c8:	10803fcc 	andi	r2,r2,255
   211cc:	10000526 	beq	r2,zero,211e4 <show_state_on_7_segments+0xc8>
		output = output & 0b1111111100000011111111111111;
   211d0:	e0ffff17 	ldw	r3,-4(fp)
   211d4:	0083fc34 	movhi	r2,4080
   211d8:	108fffc4 	addi	r2,r2,16383
   211dc:	1884703a 	and	r2,r3,r2
   211e0:	e0bfff15 	stw	r2,-4(fp)
	if (recording[2].processed)
   211e4:	00800134 	movhi	r2,4
   211e8:	10a77c04 	addi	r2,r2,-25104
   211ec:	10800b03 	ldbu	r2,44(r2)
   211f0:	10803fcc 	andi	r2,r2,255
   211f4:	10000526 	beq	r2,zero,2120c <show_state_on_7_segments+0xf0>
		output = output & 0b1111111111111110000001111111;
   211f8:	e0ffff17 	ldw	r3,-4(fp)
   211fc:	00840034 	movhi	r2,4096
   21200:	10b81fc4 	addi	r2,r2,-8065
   21204:	1884703a 	and	r2,r3,r2
   21208:	e0bfff15 	stw	r2,-4(fp)

	IOWR_ALTERA_AVALON_PIO_DATA(PIO_7_SEGMENTS_BASE, output);
   2120c:	e0ffff17 	ldw	r3,-4(fp)
   21210:	00800134 	movhi	r2,4
   21214:	10840004 	addi	r2,r2,4096
   21218:	10c00035 	stwio	r3,0(r2)
}
   2121c:	0001883a 	nop
   21220:	e037883a 	mov	sp,fp
   21224:	df000017 	ldw	fp,0(sp)
   21228:	dec00104 	addi	sp,sp,4
   2122c:	f800283a 	ret

00021230 <sin>:
   21230:	00a00034 	movhi	r2,32768
   21234:	defffa04 	addi	sp,sp,-24
   21238:	10bfffc4 	addi	r2,r2,-1
   2123c:	00cffa74 	movhi	r3,16361
   21240:	dfc00515 	stw	ra,20(sp)
   21244:	2884703a 	and	r2,r5,r2
   21248:	18c87ec4 	addi	r3,r3,8699
   2124c:	1880180e 	bge	r3,r2,212b0 <sin+0x80>
   21250:	00dffc34 	movhi	r3,32752
   21254:	18ffffc4 	addi	r3,r3,-1
   21258:	1880060e 	bge	r3,r2,21274 <sin+0x44>
   2125c:	280f883a 	mov	r7,r5
   21260:	200d883a 	mov	r6,r4
   21264:	00269a40 	call	269a4 <__subdf3>
   21268:	dfc00517 	ldw	ra,20(sp)
   2126c:	dec00604 	addi	sp,sp,24
   21270:	f800283a 	ret
   21274:	d9800104 	addi	r6,sp,4
   21278:	00214500 	call	21450 <__ieee754_rem_pio2>
   2127c:	108000cc 	andi	r2,r2,3
   21280:	00c00044 	movi	r3,1
   21284:	10c01926 	beq	r2,r3,212ec <sin+0xbc>
   21288:	01000084 	movi	r4,2
   2128c:	11000f26 	beq	r2,r4,212cc <sin+0x9c>
   21290:	10001c26 	beq	r2,zero,21304 <sin+0xd4>
   21294:	d9800317 	ldw	r6,12(sp)
   21298:	d9c00417 	ldw	r7,16(sp)
   2129c:	d9000117 	ldw	r4,4(sp)
   212a0:	d9400217 	ldw	r5,8(sp)
   212a4:	0021e440 	call	21e44 <__kernel_cos>
   212a8:	18e0003c 	xorhi	r3,r3,32768
   212ac:	003fee06 	br	21268 <__alt_mem_SDRAM_controller+0xfc021268>
   212b0:	d8000015 	stw	zero,0(sp)
   212b4:	000d883a 	mov	r6,zero
   212b8:	000f883a 	mov	r7,zero
   212bc:	00230780 	call	23078 <__kernel_sin>
   212c0:	dfc00517 	ldw	ra,20(sp)
   212c4:	dec00604 	addi	sp,sp,24
   212c8:	f800283a 	ret
   212cc:	d9800317 	ldw	r6,12(sp)
   212d0:	d9c00417 	ldw	r7,16(sp)
   212d4:	d9000117 	ldw	r4,4(sp)
   212d8:	d9400217 	ldw	r5,8(sp)
   212dc:	d8c00015 	stw	r3,0(sp)
   212e0:	00230780 	call	23078 <__kernel_sin>
   212e4:	18e0003c 	xorhi	r3,r3,32768
   212e8:	003fdf06 	br	21268 <__alt_mem_SDRAM_controller+0xfc021268>
   212ec:	d9800317 	ldw	r6,12(sp)
   212f0:	d9c00417 	ldw	r7,16(sp)
   212f4:	d9000117 	ldw	r4,4(sp)
   212f8:	d9400217 	ldw	r5,8(sp)
   212fc:	0021e440 	call	21e44 <__kernel_cos>
   21300:	003fd906 	br	21268 <__alt_mem_SDRAM_controller+0xfc021268>
   21304:	d9800317 	ldw	r6,12(sp)
   21308:	d9c00417 	ldw	r7,16(sp)
   2130c:	d9000117 	ldw	r4,4(sp)
   21310:	d9400217 	ldw	r5,8(sp)
   21314:	d8c00015 	stw	r3,0(sp)
   21318:	00230780 	call	23078 <__kernel_sin>
   2131c:	003fd206 	br	21268 <__alt_mem_SDRAM_controller+0xfc021268>

00021320 <sqrt>:
   21320:	defff104 	addi	sp,sp,-60
   21324:	dd000d15 	stw	r20,52(sp)
   21328:	05000134 	movhi	r20,4
   2132c:	dcc00c15 	stw	r19,48(sp)
   21330:	dc800b15 	stw	r18,44(sp)
   21334:	dc400a15 	stw	r17,40(sp)
   21338:	dc000915 	stw	r16,36(sp)
   2133c:	dfc00e15 	stw	ra,56(sp)
   21340:	a5204d04 	addi	r20,r20,-32460
   21344:	2027883a 	mov	r19,r4
   21348:	2825883a 	mov	r18,r5
   2134c:	0021bbc0 	call	21bbc <__ieee754_sqrt>
   21350:	1821883a 	mov	r16,r3
   21354:	a0c00017 	ldw	r3,0(r20)
   21358:	1023883a 	mov	r17,r2
   2135c:	00bfffc4 	movi	r2,-1
   21360:	18800a26 	beq	r3,r2,2138c <sqrt+0x6c>
   21364:	9809883a 	mov	r4,r19
   21368:	900b883a 	mov	r5,r18
   2136c:	00235440 	call	23544 <__fpclassifyd>
   21370:	10000626 	beq	r2,zero,2138c <sqrt+0x6c>
   21374:	000d883a 	mov	r6,zero
   21378:	000f883a 	mov	r7,zero
   2137c:	9809883a 	mov	r4,r19
   21380:	900b883a 	mov	r5,r18
   21384:	00261980 	call	26198 <__ledf2>
   21388:	10000a16 	blt	r2,zero,213b4 <sqrt+0x94>
   2138c:	8805883a 	mov	r2,r17
   21390:	8007883a 	mov	r3,r16
   21394:	dfc00e17 	ldw	ra,56(sp)
   21398:	dd000d17 	ldw	r20,52(sp)
   2139c:	dcc00c17 	ldw	r19,48(sp)
   213a0:	dc800b17 	ldw	r18,44(sp)
   213a4:	dc400a17 	ldw	r17,40(sp)
   213a8:	dc000917 	ldw	r16,36(sp)
   213ac:	dec00f04 	addi	sp,sp,60
   213b0:	f800283a 	ret
   213b4:	00800044 	movi	r2,1
   213b8:	d8800015 	stw	r2,0(sp)
   213bc:	a4000017 	ldw	r16,0(r20)
   213c0:	008000f4 	movhi	r2,3
   213c4:	10980904 	addi	r2,r2,24612
   213c8:	d8800115 	stw	r2,4(sp)
   213cc:	d8000815 	stw	zero,32(sp)
   213d0:	dcc00415 	stw	r19,16(sp)
   213d4:	dc800515 	stw	r18,20(sp)
   213d8:	dcc00215 	stw	r19,8(sp)
   213dc:	dc800315 	stw	r18,12(sp)
   213e0:	80000a1e 	bne	r16,zero,2140c <sqrt+0xec>
   213e4:	d8000615 	stw	zero,24(sp)
   213e8:	d8000715 	stw	zero,28(sp)
   213ec:	d809883a 	mov	r4,sp
   213f0:	00235b80 	call	235b8 <matherr>
   213f4:	10000e26 	beq	r2,zero,21430 <sqrt+0x110>
   213f8:	d8800817 	ldw	r2,32(sp)
   213fc:	1000101e 	bne	r2,zero,21440 <sqrt+0x120>
   21400:	d8800617 	ldw	r2,24(sp)
   21404:	d8c00717 	ldw	r3,28(sp)
   21408:	003fe206 	br	21394 <__alt_mem_SDRAM_controller+0xfc021394>
   2140c:	000d883a 	mov	r6,zero
   21410:	000f883a 	mov	r7,zero
   21414:	0009883a 	mov	r4,zero
   21418:	000b883a 	mov	r5,zero
   2141c:	002574c0 	call	2574c <__divdf3>
   21420:	d8800615 	stw	r2,24(sp)
   21424:	d8c00715 	stw	r3,28(sp)
   21428:	00800084 	movi	r2,2
   2142c:	80bfef1e 	bne	r16,r2,213ec <__alt_mem_SDRAM_controller+0xfc0213ec>
   21430:	00277180 	call	27718 <__errno>
   21434:	00c00844 	movi	r3,33
   21438:	10c00015 	stw	r3,0(r2)
   2143c:	003fee06 	br	213f8 <__alt_mem_SDRAM_controller+0xfc0213f8>
   21440:	00277180 	call	27718 <__errno>
   21444:	d8c00817 	ldw	r3,32(sp)
   21448:	10c00015 	stw	r3,0(r2)
   2144c:	003fec06 	br	21400 <__alt_mem_SDRAM_controller+0xfc021400>

00021450 <__ieee754_rem_pio2>:
   21450:	02200034 	movhi	r8,32768
   21454:	deffea04 	addi	sp,sp,-88
   21458:	423fffc4 	addi	r8,r8,-1
   2145c:	00cffa74 	movhi	r3,16361
   21460:	ddc01315 	stw	r23,76(sp)
   21464:	dc400d15 	stw	r17,52(sp)
   21468:	dfc01515 	stw	ra,84(sp)
   2146c:	df001415 	stw	fp,80(sp)
   21470:	dd801215 	stw	r22,72(sp)
   21474:	dd401115 	stw	r21,68(sp)
   21478:	dd001015 	stw	r20,64(sp)
   2147c:	dcc00f15 	stw	r19,60(sp)
   21480:	dc800e15 	stw	r18,56(sp)
   21484:	dc000c15 	stw	r16,48(sp)
   21488:	2a2e703a 	and	r23,r5,r8
   2148c:	18c87ec4 	addi	r3,r3,8699
   21490:	2823883a 	mov	r17,r5
   21494:	1dc0790e 	bge	r3,r23,2167c <__ieee754_rem_pio2+0x22c>
   21498:	009000f4 	movhi	r2,16387
   2149c:	10b65ec4 	addi	r2,r2,-9861
   214a0:	3021883a 	mov	r16,r6
   214a4:	2027883a 	mov	r19,r4
   214a8:	15c02316 	blt	r2,r23,21538 <__ieee754_rem_pio2+0xe8>
   214ac:	01cffe74 	movhi	r7,16377
   214b0:	39c87ec4 	addi	r7,r7,8699
   214b4:	01951034 	movhi	r6,21568
   214b8:	01417a0e 	bge	zero,r5,21aa4 <__ieee754_rem_pio2+0x654>
   214bc:	00269a40 	call	269a4 <__subdf3>
   214c0:	1025883a 	mov	r18,r2
   214c4:	008ffe74 	movhi	r2,16377
   214c8:	10887ec4 	addi	r2,r2,8699
   214cc:	1823883a 	mov	r17,r3
   214d0:	b8808426 	beq	r23,r2,216e4 <__ieee754_rem_pio2+0x294>
   214d4:	018698b4 	movhi	r6,6754
   214d8:	01cf7474 	movhi	r7,15825
   214dc:	3198cc44 	addi	r6,r6,25393
   214e0:	39ed1844 	addi	r7,r7,-19359
   214e4:	9009883a 	mov	r4,r18
   214e8:	180b883a 	mov	r5,r3
   214ec:	00269a40 	call	269a4 <__subdf3>
   214f0:	100d883a 	mov	r6,r2
   214f4:	180f883a 	mov	r7,r3
   214f8:	9009883a 	mov	r4,r18
   214fc:	880b883a 	mov	r5,r17
   21500:	80800015 	stw	r2,0(r16)
   21504:	80c00115 	stw	r3,4(r16)
   21508:	00269a40 	call	269a4 <__subdf3>
   2150c:	018698b4 	movhi	r6,6754
   21510:	01cf7474 	movhi	r7,15825
   21514:	3198cc44 	addi	r6,r6,25393
   21518:	39ed1844 	addi	r7,r7,-19359
   2151c:	1009883a 	mov	r4,r2
   21520:	180b883a 	mov	r5,r3
   21524:	00269a40 	call	269a4 <__subdf3>
   21528:	80800215 	stw	r2,8(r16)
   2152c:	80c00315 	stw	r3,12(r16)
   21530:	00800044 	movi	r2,1
   21534:	00005606 	br	21690 <__ieee754_rem_pio2+0x240>
   21538:	00904e74 	movhi	r2,16697
   2153c:	10887ec4 	addi	r2,r2,8699
   21540:	15c0830e 	bge	r2,r23,21750 <__ieee754_rem_pio2+0x300>
   21544:	009ffc34 	movhi	r2,32752
   21548:	10bfffc4 	addi	r2,r2,-1
   2154c:	15c05c16 	blt	r2,r23,216c0 <__ieee754_rem_pio2+0x270>
   21550:	b829d53a 	srai	r20,r23,20
   21554:	a53efa84 	addi	r20,r20,-1046
   21558:	a024953a 	slli	r18,r20,20
   2155c:	bca5c83a 	sub	r18,r23,r18
   21560:	900b883a 	mov	r5,r18
   21564:	00272a00 	call	272a0 <__fixdfsi>
   21568:	1009883a 	mov	r4,r2
   2156c:	00273200 	call	27320 <__floatsidf>
   21570:	9809883a 	mov	r4,r19
   21574:	900b883a 	mov	r5,r18
   21578:	100d883a 	mov	r6,r2
   2157c:	180f883a 	mov	r7,r3
   21580:	d8800215 	stw	r2,8(sp)
   21584:	d8c00315 	stw	r3,12(sp)
   21588:	00269a40 	call	269a4 <__subdf3>
   2158c:	000d883a 	mov	r6,zero
   21590:	01d05c34 	movhi	r7,16752
   21594:	1009883a 	mov	r4,r2
   21598:	180b883a 	mov	r5,r3
   2159c:	002628c0 	call	2628c <__muldf3>
   215a0:	180b883a 	mov	r5,r3
   215a4:	1009883a 	mov	r4,r2
   215a8:	182b883a 	mov	r21,r3
   215ac:	102d883a 	mov	r22,r2
   215b0:	00272a00 	call	272a0 <__fixdfsi>
   215b4:	1009883a 	mov	r4,r2
   215b8:	00273200 	call	27320 <__floatsidf>
   215bc:	100d883a 	mov	r6,r2
   215c0:	180f883a 	mov	r7,r3
   215c4:	b009883a 	mov	r4,r22
   215c8:	a80b883a 	mov	r5,r21
   215cc:	1027883a 	mov	r19,r2
   215d0:	1825883a 	mov	r18,r3
   215d4:	d8800415 	stw	r2,16(sp)
   215d8:	d8c00515 	stw	r3,20(sp)
   215dc:	00269a40 	call	269a4 <__subdf3>
   215e0:	000d883a 	mov	r6,zero
   215e4:	01d05c34 	movhi	r7,16752
   215e8:	1009883a 	mov	r4,r2
   215ec:	180b883a 	mov	r5,r3
   215f0:	002628c0 	call	2628c <__muldf3>
   215f4:	000d883a 	mov	r6,zero
   215f8:	000f883a 	mov	r7,zero
   215fc:	1009883a 	mov	r4,r2
   21600:	180b883a 	mov	r5,r3
   21604:	d8800615 	stw	r2,24(sp)
   21608:	d8c00715 	stw	r3,28(sp)
   2160c:	00260340 	call	26034 <__eqdf2>
   21610:	1001431e 	bne	r2,zero,21b20 <__ieee754_rem_pio2+0x6d0>
   21614:	000f883a 	mov	r7,zero
   21618:	000d883a 	mov	r6,zero
   2161c:	9809883a 	mov	r4,r19
   21620:	900b883a 	mov	r5,r18
   21624:	00260340 	call	26034 <__eqdf2>
   21628:	100f003a 	cmpeq	r7,r2,zero
   2162c:	00800084 	movi	r2,2
   21630:	11cfc83a 	sub	r7,r2,r7
   21634:	00800084 	movi	r2,2
   21638:	d8800015 	stw	r2,0(sp)
   2163c:	008000f4 	movhi	r2,3
   21640:	10982b04 	addi	r2,r2,24748
   21644:	d8800115 	stw	r2,4(sp)
   21648:	a00d883a 	mov	r6,r20
   2164c:	800b883a 	mov	r5,r16
   21650:	d9000204 	addi	r4,sp,8
   21654:	00222e80 	call	222e8 <__kernel_rem_pio2>
   21658:	88000d0e 	bge	r17,zero,21690 <__ieee754_rem_pio2+0x240>
   2165c:	81000117 	ldw	r4,4(r16)
   21660:	80c00317 	ldw	r3,12(r16)
   21664:	0085c83a 	sub	r2,zero,r2
   21668:	2120003c 	xorhi	r4,r4,32768
   2166c:	18e0003c 	xorhi	r3,r3,32768
   21670:	81000115 	stw	r4,4(r16)
   21674:	80c00315 	stw	r3,12(r16)
   21678:	00000506 	br	21690 <__ieee754_rem_pio2+0x240>
   2167c:	31000015 	stw	r4,0(r6)
   21680:	31400115 	stw	r5,4(r6)
   21684:	30000215 	stw	zero,8(r6)
   21688:	30000315 	stw	zero,12(r6)
   2168c:	0005883a 	mov	r2,zero
   21690:	dfc01517 	ldw	ra,84(sp)
   21694:	df001417 	ldw	fp,80(sp)
   21698:	ddc01317 	ldw	r23,76(sp)
   2169c:	dd801217 	ldw	r22,72(sp)
   216a0:	dd401117 	ldw	r21,68(sp)
   216a4:	dd001017 	ldw	r20,64(sp)
   216a8:	dcc00f17 	ldw	r19,60(sp)
   216ac:	dc800e17 	ldw	r18,56(sp)
   216b0:	dc400d17 	ldw	r17,52(sp)
   216b4:	dc000c17 	ldw	r16,48(sp)
   216b8:	dec01604 	addi	sp,sp,88
   216bc:	f800283a 	ret
   216c0:	200d883a 	mov	r6,r4
   216c4:	280f883a 	mov	r7,r5
   216c8:	00269a40 	call	269a4 <__subdf3>
   216cc:	80800215 	stw	r2,8(r16)
   216d0:	80800015 	stw	r2,0(r16)
   216d4:	80c00315 	stw	r3,12(r16)
   216d8:	80c00115 	stw	r3,4(r16)
   216dc:	0005883a 	mov	r2,zero
   216e0:	003feb06 	br	21690 <__alt_mem_SDRAM_controller+0xfc021690>
   216e4:	01cf7474 	movhi	r7,15825
   216e8:	9009883a 	mov	r4,r18
   216ec:	39ed1844 	addi	r7,r7,-19359
   216f0:	01869834 	movhi	r6,6752
   216f4:	180b883a 	mov	r5,r3
   216f8:	00269a40 	call	269a4 <__subdf3>
   216fc:	018b80f4 	movhi	r6,11779
   21700:	01cee8f4 	movhi	r7,15267
   21704:	319c1cc4 	addi	r6,r6,28787
   21708:	39c66284 	addi	r7,r7,6538
   2170c:	1009883a 	mov	r4,r2
   21710:	180b883a 	mov	r5,r3
   21714:	1025883a 	mov	r18,r2
   21718:	1823883a 	mov	r17,r3
   2171c:	00269a40 	call	269a4 <__subdf3>
   21720:	100d883a 	mov	r6,r2
   21724:	180f883a 	mov	r7,r3
   21728:	9009883a 	mov	r4,r18
   2172c:	880b883a 	mov	r5,r17
   21730:	80800015 	stw	r2,0(r16)
   21734:	80c00115 	stw	r3,4(r16)
   21738:	00269a40 	call	269a4 <__subdf3>
   2173c:	018b80f4 	movhi	r6,11779
   21740:	01cee8f4 	movhi	r7,15267
   21744:	319c1cc4 	addi	r6,r6,28787
   21748:	39c66284 	addi	r7,r7,6538
   2174c:	003f7306 	br	2151c <__alt_mem_SDRAM_controller+0xfc02151c>
   21750:	00233440 	call	23344 <fabs>
   21754:	019b72b4 	movhi	r6,28106
   21758:	01cff934 	movhi	r7,16356
   2175c:	31b220c4 	addi	r6,r6,-14205
   21760:	39d7cc04 	addi	r7,r7,24368
   21764:	1009883a 	mov	r4,r2
   21768:	180b883a 	mov	r5,r3
   2176c:	102d883a 	mov	r22,r2
   21770:	182b883a 	mov	r21,r3
   21774:	002628c0 	call	2628c <__muldf3>
   21778:	000d883a 	mov	r6,zero
   2177c:	01cff834 	movhi	r7,16352
   21780:	1009883a 	mov	r4,r2
   21784:	180b883a 	mov	r5,r3
   21788:	0024ea00 	call	24ea0 <__adddf3>
   2178c:	180b883a 	mov	r5,r3
   21790:	1009883a 	mov	r4,r2
   21794:	00272a00 	call	272a0 <__fixdfsi>
   21798:	1009883a 	mov	r4,r2
   2179c:	1025883a 	mov	r18,r2
   217a0:	00273200 	call	27320 <__floatsidf>
   217a4:	01cffe74 	movhi	r7,16377
   217a8:	39c87ec4 	addi	r7,r7,8699
   217ac:	01951034 	movhi	r6,21568
   217b0:	1009883a 	mov	r4,r2
   217b4:	180b883a 	mov	r5,r3
   217b8:	1029883a 	mov	r20,r2
   217bc:	1827883a 	mov	r19,r3
   217c0:	002628c0 	call	2628c <__muldf3>
   217c4:	b009883a 	mov	r4,r22
   217c8:	a80b883a 	mov	r5,r21
   217cc:	100d883a 	mov	r6,r2
   217d0:	180f883a 	mov	r7,r3
   217d4:	00269a40 	call	269a4 <__subdf3>
   217d8:	018698b4 	movhi	r6,6754
   217dc:	01cf7474 	movhi	r7,15825
   217e0:	a009883a 	mov	r4,r20
   217e4:	3198cc44 	addi	r6,r6,25393
   217e8:	39ed1844 	addi	r7,r7,-19359
   217ec:	980b883a 	mov	r5,r19
   217f0:	1039883a 	mov	fp,r2
   217f4:	d8c00815 	stw	r3,32(sp)
   217f8:	002628c0 	call	2628c <__muldf3>
   217fc:	010007c4 	movi	r4,31
   21800:	e017883a 	mov	r11,fp
   21804:	da800817 	ldw	r10,32(sp)
   21808:	102d883a 	mov	r22,r2
   2180c:	182b883a 	mov	r21,r3
   21810:	24802816 	blt	r4,r18,218b4 <__ieee754_rem_pio2+0x464>
   21814:	913fffc4 	addi	r4,r18,-1
   21818:	2109883a 	add	r4,r4,r4
   2181c:	014000f4 	movhi	r5,3
   21820:	2109883a 	add	r4,r4,r4
   21824:	29580b04 	addi	r5,r5,24620
   21828:	2909883a 	add	r4,r5,r4
   2182c:	21000017 	ldw	r4,0(r4)
   21830:	b9002026 	beq	r23,r4,218b4 <__ieee754_rem_pio2+0x464>
   21834:	100d883a 	mov	r6,r2
   21838:	180f883a 	mov	r7,r3
   2183c:	e009883a 	mov	r4,fp
   21840:	500b883a 	mov	r5,r10
   21844:	da800b15 	stw	r10,44(sp)
   21848:	df000a15 	stw	fp,40(sp)
   2184c:	00269a40 	call	269a4 <__subdf3>
   21850:	da800b17 	ldw	r10,44(sp)
   21854:	dac00a17 	ldw	r11,40(sp)
   21858:	1019883a 	mov	r12,r2
   2185c:	1813883a 	mov	r9,r3
   21860:	80800015 	stw	r2,0(r16)
   21864:	80c00115 	stw	r3,4(r16)
   21868:	600d883a 	mov	r6,r12
   2186c:	480f883a 	mov	r7,r9
   21870:	5809883a 	mov	r4,r11
   21874:	500b883a 	mov	r5,r10
   21878:	da400b15 	stw	r9,44(sp)
   2187c:	db000a15 	stw	r12,40(sp)
   21880:	00269a40 	call	269a4 <__subdf3>
   21884:	b00d883a 	mov	r6,r22
   21888:	a80f883a 	mov	r7,r21
   2188c:	1009883a 	mov	r4,r2
   21890:	180b883a 	mov	r5,r3
   21894:	00269a40 	call	269a4 <__subdf3>
   21898:	80800215 	stw	r2,8(r16)
   2189c:	80c00315 	stw	r3,12(r16)
   218a0:	da400b17 	ldw	r9,44(sp)
   218a4:	db000a17 	ldw	r12,40(sp)
   218a8:	88009f16 	blt	r17,zero,21b28 <__ieee754_rem_pio2+0x6d8>
   218ac:	9005883a 	mov	r2,r18
   218b0:	003f7706 	br	21690 <__alt_mem_SDRAM_controller+0xfc021690>
   218b4:	d9400817 	ldw	r5,32(sp)
   218b8:	100d883a 	mov	r6,r2
   218bc:	180f883a 	mov	r7,r3
   218c0:	e009883a 	mov	r4,fp
   218c4:	da800b15 	stw	r10,44(sp)
   218c8:	dac00a15 	stw	r11,40(sp)
   218cc:	00269a40 	call	269a4 <__subdf3>
   218d0:	1019883a 	mov	r12,r2
   218d4:	1804d53a 	srli	r2,r3,20
   218d8:	b811d53a 	srai	r8,r23,20
   218dc:	1813883a 	mov	r9,r3
   218e0:	1081ffcc 	andi	r2,r2,2047
   218e4:	80c00115 	stw	r3,4(r16)
   218e8:	83000015 	stw	r12,0(r16)
   218ec:	4085c83a 	sub	r2,r8,r2
   218f0:	00c00404 	movi	r3,16
   218f4:	da800b17 	ldw	r10,44(sp)
   218f8:	dac00a17 	ldw	r11,40(sp)
   218fc:	18bfda0e 	bge	r3,r2,21868 <__alt_mem_SDRAM_controller+0xfc021868>
   21900:	01cf7474 	movhi	r7,15825
   21904:	39ed1844 	addi	r7,r7,-19359
   21908:	01869834 	movhi	r6,6752
   2190c:	a009883a 	mov	r4,r20
   21910:	980b883a 	mov	r5,r19
   21914:	da000a15 	stw	r8,40(sp)
   21918:	002628c0 	call	2628c <__muldf3>
   2191c:	d9400817 	ldw	r5,32(sp)
   21920:	100d883a 	mov	r6,r2
   21924:	180f883a 	mov	r7,r3
   21928:	e009883a 	mov	r4,fp
   2192c:	102d883a 	mov	r22,r2
   21930:	182b883a 	mov	r21,r3
   21934:	00269a40 	call	269a4 <__subdf3>
   21938:	d9400817 	ldw	r5,32(sp)
   2193c:	100d883a 	mov	r6,r2
   21940:	180f883a 	mov	r7,r3
   21944:	e009883a 	mov	r4,fp
   21948:	182f883a 	mov	r23,r3
   2194c:	d8800915 	stw	r2,36(sp)
   21950:	00269a40 	call	269a4 <__subdf3>
   21954:	b00d883a 	mov	r6,r22
   21958:	a80f883a 	mov	r7,r21
   2195c:	1009883a 	mov	r4,r2
   21960:	180b883a 	mov	r5,r3
   21964:	00269a40 	call	269a4 <__subdf3>
   21968:	018b80f4 	movhi	r6,11779
   2196c:	01cee8f4 	movhi	r7,15267
   21970:	319c1cc4 	addi	r6,r6,28787
   21974:	39c66284 	addi	r7,r7,6538
   21978:	a009883a 	mov	r4,r20
   2197c:	980b883a 	mov	r5,r19
   21980:	102d883a 	mov	r22,r2
   21984:	182b883a 	mov	r21,r3
   21988:	002628c0 	call	2628c <__muldf3>
   2198c:	b00d883a 	mov	r6,r22
   21990:	a80f883a 	mov	r7,r21
   21994:	1009883a 	mov	r4,r2
   21998:	180b883a 	mov	r5,r3
   2199c:	00269a40 	call	269a4 <__subdf3>
   219a0:	d9000917 	ldw	r4,36(sp)
   219a4:	100d883a 	mov	r6,r2
   219a8:	180f883a 	mov	r7,r3
   219ac:	b80b883a 	mov	r5,r23
   219b0:	102d883a 	mov	r22,r2
   219b4:	182b883a 	mov	r21,r3
   219b8:	00269a40 	call	269a4 <__subdf3>
   219bc:	1019883a 	mov	r12,r2
   219c0:	1804d53a 	srli	r2,r3,20
   219c4:	da000a17 	ldw	r8,40(sp)
   219c8:	83000015 	stw	r12,0(r16)
   219cc:	1081ffcc 	andi	r2,r2,2047
   219d0:	4091c83a 	sub	r8,r8,r2
   219d4:	80c00115 	stw	r3,4(r16)
   219d8:	00800c44 	movi	r2,49
   219dc:	1813883a 	mov	r9,r3
   219e0:	1200730e 	bge	r2,r8,21bb0 <__ieee754_rem_pio2+0x760>
   219e4:	01cee8f4 	movhi	r7,15267
   219e8:	39c66284 	addi	r7,r7,6538
   219ec:	018b8034 	movhi	r6,11776
   219f0:	a009883a 	mov	r4,r20
   219f4:	980b883a 	mov	r5,r19
   219f8:	002628c0 	call	2628c <__muldf3>
   219fc:	d9000917 	ldw	r4,36(sp)
   21a00:	100d883a 	mov	r6,r2
   21a04:	180f883a 	mov	r7,r3
   21a08:	b80b883a 	mov	r5,r23
   21a0c:	102d883a 	mov	r22,r2
   21a10:	182b883a 	mov	r21,r3
   21a14:	00269a40 	call	269a4 <__subdf3>
   21a18:	d9000917 	ldw	r4,36(sp)
   21a1c:	100d883a 	mov	r6,r2
   21a20:	180f883a 	mov	r7,r3
   21a24:	b80b883a 	mov	r5,r23
   21a28:	d8c00b15 	stw	r3,44(sp)
   21a2c:	d8800a15 	stw	r2,40(sp)
   21a30:	00269a40 	call	269a4 <__subdf3>
   21a34:	b00d883a 	mov	r6,r22
   21a38:	a80f883a 	mov	r7,r21
   21a3c:	1009883a 	mov	r4,r2
   21a40:	180b883a 	mov	r5,r3
   21a44:	00269a40 	call	269a4 <__subdf3>
   21a48:	01894834 	movhi	r6,9504
   21a4c:	01ce5f34 	movhi	r7,14716
   21a50:	31927044 	addi	r6,r6,18881
   21a54:	39e0e684 	addi	r7,r7,-31846
   21a58:	a009883a 	mov	r4,r20
   21a5c:	980b883a 	mov	r5,r19
   21a60:	102d883a 	mov	r22,r2
   21a64:	182b883a 	mov	r21,r3
   21a68:	002628c0 	call	2628c <__muldf3>
   21a6c:	b00d883a 	mov	r6,r22
   21a70:	a80f883a 	mov	r7,r21
   21a74:	1009883a 	mov	r4,r2
   21a78:	180b883a 	mov	r5,r3
   21a7c:	00269a40 	call	269a4 <__subdf3>
   21a80:	dac00a17 	ldw	r11,40(sp)
   21a84:	da800b17 	ldw	r10,44(sp)
   21a88:	102d883a 	mov	r22,r2
   21a8c:	182b883a 	mov	r21,r3
   21a90:	100d883a 	mov	r6,r2
   21a94:	180f883a 	mov	r7,r3
   21a98:	5809883a 	mov	r4,r11
   21a9c:	500b883a 	mov	r5,r10
   21aa0:	003f6a06 	br	2184c <__alt_mem_SDRAM_controller+0xfc02184c>
   21aa4:	0024ea00 	call	24ea0 <__adddf3>
   21aa8:	1025883a 	mov	r18,r2
   21aac:	008ffe74 	movhi	r2,16377
   21ab0:	10887ec4 	addi	r2,r2,8699
   21ab4:	1823883a 	mov	r17,r3
   21ab8:	b8802226 	beq	r23,r2,21b44 <__ieee754_rem_pio2+0x6f4>
   21abc:	018698b4 	movhi	r6,6754
   21ac0:	01cf7474 	movhi	r7,15825
   21ac4:	3198cc44 	addi	r6,r6,25393
   21ac8:	39ed1844 	addi	r7,r7,-19359
   21acc:	9009883a 	mov	r4,r18
   21ad0:	180b883a 	mov	r5,r3
   21ad4:	0024ea00 	call	24ea0 <__adddf3>
   21ad8:	100d883a 	mov	r6,r2
   21adc:	180f883a 	mov	r7,r3
   21ae0:	9009883a 	mov	r4,r18
   21ae4:	880b883a 	mov	r5,r17
   21ae8:	80800015 	stw	r2,0(r16)
   21aec:	80c00115 	stw	r3,4(r16)
   21af0:	00269a40 	call	269a4 <__subdf3>
   21af4:	018698b4 	movhi	r6,6754
   21af8:	01cf7474 	movhi	r7,15825
   21afc:	3198cc44 	addi	r6,r6,25393
   21b00:	39ed1844 	addi	r7,r7,-19359
   21b04:	1009883a 	mov	r4,r2
   21b08:	180b883a 	mov	r5,r3
   21b0c:	0024ea00 	call	24ea0 <__adddf3>
   21b10:	80800215 	stw	r2,8(r16)
   21b14:	80c00315 	stw	r3,12(r16)
   21b18:	00bfffc4 	movi	r2,-1
   21b1c:	003edc06 	br	21690 <__alt_mem_SDRAM_controller+0xfc021690>
   21b20:	01c000c4 	movi	r7,3
   21b24:	003ec306 	br	21634 <__alt_mem_SDRAM_controller+0xfc021634>
   21b28:	4a60003c 	xorhi	r9,r9,32768
   21b2c:	18e0003c 	xorhi	r3,r3,32768
   21b30:	83000015 	stw	r12,0(r16)
   21b34:	82400115 	stw	r9,4(r16)
   21b38:	80c00315 	stw	r3,12(r16)
   21b3c:	0485c83a 	sub	r2,zero,r18
   21b40:	003ed306 	br	21690 <__alt_mem_SDRAM_controller+0xfc021690>
   21b44:	01cf7474 	movhi	r7,15825
   21b48:	9009883a 	mov	r4,r18
   21b4c:	39ed1844 	addi	r7,r7,-19359
   21b50:	01869834 	movhi	r6,6752
   21b54:	180b883a 	mov	r5,r3
   21b58:	0024ea00 	call	24ea0 <__adddf3>
   21b5c:	018b80f4 	movhi	r6,11779
   21b60:	01cee8f4 	movhi	r7,15267
   21b64:	319c1cc4 	addi	r6,r6,28787
   21b68:	39c66284 	addi	r7,r7,6538
   21b6c:	1009883a 	mov	r4,r2
   21b70:	180b883a 	mov	r5,r3
   21b74:	1025883a 	mov	r18,r2
   21b78:	1823883a 	mov	r17,r3
   21b7c:	0024ea00 	call	24ea0 <__adddf3>
   21b80:	100d883a 	mov	r6,r2
   21b84:	180f883a 	mov	r7,r3
   21b88:	9009883a 	mov	r4,r18
   21b8c:	880b883a 	mov	r5,r17
   21b90:	80800015 	stw	r2,0(r16)
   21b94:	80c00115 	stw	r3,4(r16)
   21b98:	00269a40 	call	269a4 <__subdf3>
   21b9c:	018b80f4 	movhi	r6,11779
   21ba0:	01cee8f4 	movhi	r7,15267
   21ba4:	319c1cc4 	addi	r6,r6,28787
   21ba8:	39c66284 	addi	r7,r7,6538
   21bac:	003fd506 	br	21b04 <__alt_mem_SDRAM_controller+0xfc021b04>
   21bb0:	dac00917 	ldw	r11,36(sp)
   21bb4:	b815883a 	mov	r10,r23
   21bb8:	003f2b06 	br	21868 <__alt_mem_SDRAM_controller+0xfc021868>

00021bbc <__ieee754_sqrt>:
   21bbc:	defffd04 	addi	sp,sp,-12
   21bc0:	dc400115 	stw	r17,4(sp)
   21bc4:	dc000015 	stw	r16,0(sp)
   21bc8:	dfc00215 	stw	ra,8(sp)
   21bcc:	28dffc2c 	andhi	r3,r5,32752
   21bd0:	009ffc34 	movhi	r2,32752
   21bd4:	2821883a 	mov	r16,r5
   21bd8:	2023883a 	mov	r17,r4
   21bdc:	200d883a 	mov	r6,r4
   21be0:	18807b26 	beq	r3,r2,21dd0 <__ieee754_sqrt+0x214>
   21be4:	01405f0e 	bge	zero,r5,21d64 <__ieee754_sqrt+0x1a8>
   21be8:	2815d53a 	srai	r10,r5,20
   21bec:	50006a26 	beq	r10,zero,21d98 <__ieee754_sqrt+0x1dc>
   21bf0:	00c00434 	movhi	r3,16
   21bf4:	52bf0044 	addi	r10,r10,-1023
   21bf8:	18ffffc4 	addi	r3,r3,-1
   21bfc:	80c6703a 	and	r3,r16,r3
   21c00:	5080004c 	andi	r2,r10,1
   21c04:	18c00434 	orhi	r3,r3,16
   21c08:	1000511e 	bne	r2,zero,21d50 <__ieee754_sqrt+0x194>
   21c0c:	3004d7fa 	srli	r2,r6,31
   21c10:	5015d07a 	srai	r10,r10,1
   21c14:	18c7883a 	add	r3,r3,r3
   21c18:	10c5883a 	add	r2,r2,r3
   21c1c:	01400584 	movi	r5,22
   21c20:	3187883a 	add	r3,r6,r6
   21c24:	0013883a 	mov	r9,zero
   21c28:	000f883a 	mov	r7,zero
   21c2c:	01000834 	movhi	r4,32
   21c30:	390d883a 	add	r6,r7,r4
   21c34:	1810d7fa 	srli	r8,r3,31
   21c38:	297fffc4 	addi	r5,r5,-1
   21c3c:	11800316 	blt	r2,r6,21c4c <__ieee754_sqrt+0x90>
   21c40:	1185c83a 	sub	r2,r2,r6
   21c44:	310f883a 	add	r7,r6,r4
   21c48:	4913883a 	add	r9,r9,r4
   21c4c:	1085883a 	add	r2,r2,r2
   21c50:	4085883a 	add	r2,r8,r2
   21c54:	18c7883a 	add	r3,r3,r3
   21c58:	2008d07a 	srli	r4,r4,1
   21c5c:	283ff41e 	bne	r5,zero,21c30 <__alt_mem_SDRAM_controller+0xfc021c30>
   21c60:	01200034 	movhi	r4,32768
   21c64:	01800804 	movi	r6,32
   21c68:	0011883a 	mov	r8,zero
   21c6c:	0019883a 	mov	r12,zero
   21c70:	201b883a 	mov	r13,r4
   21c74:	00000806 	br	21c98 <__ieee754_sqrt+0xdc>
   21c78:	38801726 	beq	r7,r2,21cd8 <__ieee754_sqrt+0x11c>
   21c7c:	180ad7fa 	srli	r5,r3,31
   21c80:	1085883a 	add	r2,r2,r2
   21c84:	31bfffc4 	addi	r6,r6,-1
   21c88:	2885883a 	add	r2,r5,r2
   21c8c:	18c7883a 	add	r3,r3,r3
   21c90:	2008d07a 	srli	r4,r4,1
   21c94:	30001726 	beq	r6,zero,21cf4 <__ieee754_sqrt+0x138>
   21c98:	230b883a 	add	r5,r4,r12
   21c9c:	38bff60e 	bge	r7,r2,21c78 <__alt_mem_SDRAM_controller+0xfc021c78>
   21ca0:	2ae0002c 	andhi	r11,r5,32768
   21ca4:	2919883a 	add	r12,r5,r4
   21ca8:	5b400826 	beq	r11,r13,21ccc <__ieee754_sqrt+0x110>
   21cac:	3817883a 	mov	r11,r7
   21cb0:	11c5c83a 	sub	r2,r2,r7
   21cb4:	1940012e 	bgeu	r3,r5,21cbc <__ieee754_sqrt+0x100>
   21cb8:	10bfffc4 	addi	r2,r2,-1
   21cbc:	1947c83a 	sub	r3,r3,r5
   21cc0:	4111883a 	add	r8,r8,r4
   21cc4:	580f883a 	mov	r7,r11
   21cc8:	003fec06 	br	21c7c <__alt_mem_SDRAM_controller+0xfc021c7c>
   21ccc:	603ff716 	blt	r12,zero,21cac <__alt_mem_SDRAM_controller+0xfc021cac>
   21cd0:	3ac00044 	addi	r11,r7,1
   21cd4:	003ff606 	br	21cb0 <__alt_mem_SDRAM_controller+0xfc021cb0>
   21cd8:	19401936 	bltu	r3,r5,21d40 <__ieee754_sqrt+0x184>
   21cdc:	2ae0002c 	andhi	r11,r5,32768
   21ce0:	2919883a 	add	r12,r5,r4
   21ce4:	5b404526 	beq	r11,r13,21dfc <__ieee754_sqrt+0x240>
   21ce8:	1017883a 	mov	r11,r2
   21cec:	0005883a 	mov	r2,zero
   21cf0:	003ff206 	br	21cbc <__alt_mem_SDRAM_controller+0xfc021cbc>
   21cf4:	10c4b03a 	or	r2,r2,r3
   21cf8:	10000426 	beq	r2,zero,21d0c <__ieee754_sqrt+0x150>
   21cfc:	00bfffc4 	movi	r2,-1
   21d00:	40804026 	beq	r8,r2,21e04 <__ieee754_sqrt+0x248>
   21d04:	4080004c 	andi	r2,r8,1
   21d08:	4091883a 	add	r8,r8,r2
   21d0c:	4004d07a 	srli	r2,r8,1
   21d10:	4807d07a 	srai	r3,r9,1
   21d14:	010ff834 	movhi	r4,16352
   21d18:	4a40004c 	andi	r9,r9,1
   21d1c:	1909883a 	add	r4,r3,r4
   21d20:	4800091e 	bne	r9,zero,21d48 <__ieee754_sqrt+0x18c>
   21d24:	5006953a 	slli	r3,r10,20
   21d28:	1907883a 	add	r3,r3,r4
   21d2c:	dfc00217 	ldw	ra,8(sp)
   21d30:	dc400117 	ldw	r17,4(sp)
   21d34:	dc000017 	ldw	r16,0(sp)
   21d38:	dec00304 	addi	sp,sp,12
   21d3c:	f800283a 	ret
   21d40:	3805883a 	mov	r2,r7
   21d44:	003fcd06 	br	21c7c <__alt_mem_SDRAM_controller+0xfc021c7c>
   21d48:	10a00034 	orhi	r2,r2,32768
   21d4c:	003ff506 	br	21d24 <__alt_mem_SDRAM_controller+0xfc021d24>
   21d50:	3004d7fa 	srli	r2,r6,31
   21d54:	18c7883a 	add	r3,r3,r3
   21d58:	318d883a 	add	r6,r6,r6
   21d5c:	10c7883a 	add	r3,r2,r3
   21d60:	003faa06 	br	21c0c <__alt_mem_SDRAM_controller+0xfc021c0c>
   21d64:	00a00034 	movhi	r2,32768
   21d68:	10bfffc4 	addi	r2,r2,-1
   21d6c:	2884703a 	and	r2,r5,r2
   21d70:	1104b03a 	or	r2,r2,r4
   21d74:	10001e26 	beq	r2,zero,21df0 <__ieee754_sqrt+0x234>
   21d78:	2800291e 	bne	r5,zero,21e20 <__ieee754_sqrt+0x264>
   21d7c:	0015883a 	mov	r10,zero
   21d80:	3020d2fa 	srli	r16,r6,11
   21d84:	52bffac4 	addi	r10,r10,-21
   21d88:	300c957a 	slli	r6,r6,21
   21d8c:	803ffc26 	beq	r16,zero,21d80 <__alt_mem_SDRAM_controller+0xfc021d80>
   21d90:	8080042c 	andhi	r2,r16,16
   21d94:	10001e1e 	bne	r2,zero,21e10 <__ieee754_sqrt+0x254>
   21d98:	0005883a 	mov	r2,zero
   21d9c:	00000106 	br	21da4 <__ieee754_sqrt+0x1e8>
   21da0:	1805883a 	mov	r2,r3
   21da4:	8421883a 	add	r16,r16,r16
   21da8:	8100042c 	andhi	r4,r16,16
   21dac:	10c00044 	addi	r3,r2,1
   21db0:	203ffb26 	beq	r4,zero,21da0 <__alt_mem_SDRAM_controller+0xfc021da0>
   21db4:	01000804 	movi	r4,32
   21db8:	20c9c83a 	sub	r4,r4,r3
   21dbc:	3108d83a 	srl	r4,r6,r4
   21dc0:	5095c83a 	sub	r10,r10,r2
   21dc4:	30cc983a 	sll	r6,r6,r3
   21dc8:	2420b03a 	or	r16,r4,r16
   21dcc:	003f8806 	br	21bf0 <__alt_mem_SDRAM_controller+0xfc021bf0>
   21dd0:	280f883a 	mov	r7,r5
   21dd4:	002628c0 	call	2628c <__muldf3>
   21dd8:	880d883a 	mov	r6,r17
   21ddc:	800f883a 	mov	r7,r16
   21de0:	1009883a 	mov	r4,r2
   21de4:	180b883a 	mov	r5,r3
   21de8:	0024ea00 	call	24ea0 <__adddf3>
   21dec:	003fcf06 	br	21d2c <__alt_mem_SDRAM_controller+0xfc021d2c>
   21df0:	2005883a 	mov	r2,r4
   21df4:	2807883a 	mov	r3,r5
   21df8:	003fcc06 	br	21d2c <__alt_mem_SDRAM_controller+0xfc021d2c>
   21dfc:	603fba16 	blt	r12,zero,21ce8 <__alt_mem_SDRAM_controller+0xfc021ce8>
   21e00:	003fb306 	br	21cd0 <__alt_mem_SDRAM_controller+0xfc021cd0>
   21e04:	4a400044 	addi	r9,r9,1
   21e08:	0005883a 	mov	r2,zero
   21e0c:	003fc006 	br	21d10 <__alt_mem_SDRAM_controller+0xfc021d10>
   21e10:	01000804 	movi	r4,32
   21e14:	00bfffc4 	movi	r2,-1
   21e18:	0007883a 	mov	r3,zero
   21e1c:	003fe706 	br	21dbc <__alt_mem_SDRAM_controller+0xfc021dbc>
   21e20:	200d883a 	mov	r6,r4
   21e24:	280f883a 	mov	r7,r5
   21e28:	00269a40 	call	269a4 <__subdf3>
   21e2c:	100d883a 	mov	r6,r2
   21e30:	180f883a 	mov	r7,r3
   21e34:	1009883a 	mov	r4,r2
   21e38:	180b883a 	mov	r5,r3
   21e3c:	002574c0 	call	2574c <__divdf3>
   21e40:	003fba06 	br	21d2c <__alt_mem_SDRAM_controller+0xfc021d2c>

00021e44 <__kernel_cos>:
   21e44:	defff304 	addi	sp,sp,-52
   21e48:	dc000315 	stw	r16,12(sp)
   21e4c:	04200034 	movhi	r16,32768
   21e50:	843fffc4 	addi	r16,r16,-1
   21e54:	008f9034 	movhi	r2,15936
   21e58:	df000b15 	stw	fp,44(sp)
   21e5c:	ddc00a15 	stw	r23,40(sp)
   21e60:	dd800915 	stw	r22,36(sp)
   21e64:	dcc00615 	stw	r19,24(sp)
   21e68:	dfc00c15 	stw	ra,48(sp)
   21e6c:	dd400815 	stw	r21,32(sp)
   21e70:	dd000715 	stw	r20,28(sp)
   21e74:	dc800515 	stw	r18,20(sp)
   21e78:	dc400415 	stw	r17,16(sp)
   21e7c:	2c20703a 	and	r16,r5,r16
   21e80:	10bfffc4 	addi	r2,r2,-1
   21e84:	2827883a 	mov	r19,r5
   21e88:	202d883a 	mov	r22,r4
   21e8c:	302f883a 	mov	r23,r6
   21e90:	3839883a 	mov	fp,r7
   21e94:	14007516 	blt	r2,r16,2206c <__kernel_cos+0x228>
   21e98:	00272a00 	call	272a0 <__fixdfsi>
   21e9c:	10010f26 	beq	r2,zero,222dc <__kernel_cos+0x498>
   21ea0:	b00d883a 	mov	r6,r22
   21ea4:	980f883a 	mov	r7,r19
   21ea8:	b009883a 	mov	r4,r22
   21eac:	980b883a 	mov	r5,r19
   21eb0:	002628c0 	call	2628c <__muldf3>
   21eb4:	01afa234 	movhi	r6,48776
   21eb8:	01ef6a74 	movhi	r7,48553
   21ebc:	318e3504 	addi	r6,r6,14548
   21ec0:	39feba44 	addi	r7,r7,-1303
   21ec4:	1009883a 	mov	r4,r2
   21ec8:	180b883a 	mov	r5,r3
   21ecc:	102b883a 	mov	r21,r2
   21ed0:	1829883a 	mov	r20,r3
   21ed4:	002628c0 	call	2628c <__muldf3>
   21ed8:	01af6d74 	movhi	r6,48565
   21edc:	01cf88b4 	movhi	r7,15906
   21ee0:	31ac7104 	addi	r6,r6,-20028
   21ee4:	39fba784 	addi	r7,r7,-4450
   21ee8:	1009883a 	mov	r4,r2
   21eec:	180b883a 	mov	r5,r3
   21ef0:	0024ea00 	call	24ea0 <__adddf3>
   21ef4:	a80d883a 	mov	r6,r21
   21ef8:	a00f883a 	mov	r7,r20
   21efc:	1009883a 	mov	r4,r2
   21f00:	180b883a 	mov	r5,r3
   21f04:	002628c0 	call	2628c <__muldf3>
   21f08:	01a02734 	movhi	r6,32924
   21f0c:	01cfa4b4 	movhi	r7,16018
   21f10:	3194ab44 	addi	r6,r6,21165
   21f14:	39df93c4 	addi	r7,r7,32335
   21f18:	1009883a 	mov	r4,r2
   21f1c:	180b883a 	mov	r5,r3
   21f20:	00269a40 	call	269a4 <__subdf3>
   21f24:	a80d883a 	mov	r6,r21
   21f28:	a00f883a 	mov	r7,r20
   21f2c:	1009883a 	mov	r4,r2
   21f30:	180b883a 	mov	r5,r3
   21f34:	002628c0 	call	2628c <__muldf3>
   21f38:	018672f4 	movhi	r6,6603
   21f3c:	01cfbeb4 	movhi	r7,16122
   21f40:	31856404 	addi	r6,r6,5520
   21f44:	39c06804 	addi	r7,r7,416
   21f48:	1009883a 	mov	r4,r2
   21f4c:	180b883a 	mov	r5,r3
   21f50:	0024ea00 	call	24ea0 <__adddf3>
   21f54:	a80d883a 	mov	r6,r21
   21f58:	a00f883a 	mov	r7,r20
   21f5c:	1009883a 	mov	r4,r2
   21f60:	180b883a 	mov	r5,r3
   21f64:	002628c0 	call	2628c <__muldf3>
   21f68:	0185b074 	movhi	r6,5825
   21f6c:	01cfd5f4 	movhi	r7,16215
   21f70:	31945dc4 	addi	r6,r6,20855
   21f74:	39f05b04 	addi	r7,r7,-16020
   21f78:	1009883a 	mov	r4,r2
   21f7c:	180b883a 	mov	r5,r3
   21f80:	00269a40 	call	269a4 <__subdf3>
   21f84:	a80d883a 	mov	r6,r21
   21f88:	a00f883a 	mov	r7,r20
   21f8c:	1009883a 	mov	r4,r2
   21f90:	180b883a 	mov	r5,r3
   21f94:	002628c0 	call	2628c <__muldf3>
   21f98:	01955574 	movhi	r6,21845
   21f9c:	01cfe974 	movhi	r7,16293
   21fa0:	31955304 	addi	r6,r6,21836
   21fa4:	39d55544 	addi	r7,r7,21845
   21fa8:	1009883a 	mov	r4,r2
   21fac:	180b883a 	mov	r5,r3
   21fb0:	0024ea00 	call	24ea0 <__adddf3>
   21fb4:	a80d883a 	mov	r6,r21
   21fb8:	a00f883a 	mov	r7,r20
   21fbc:	1009883a 	mov	r4,r2
   21fc0:	180b883a 	mov	r5,r3
   21fc4:	002628c0 	call	2628c <__muldf3>
   21fc8:	1017883a 	mov	r11,r2
   21fcc:	1815883a 	mov	r10,r3
   21fd0:	a809883a 	mov	r4,r21
   21fd4:	a00b883a 	mov	r5,r20
   21fd8:	000d883a 	mov	r6,zero
   21fdc:	01cff834 	movhi	r7,16352
   21fe0:	da800215 	stw	r10,8(sp)
   21fe4:	dac00115 	stw	r11,4(sp)
   21fe8:	002628c0 	call	2628c <__muldf3>
   21fec:	dac00117 	ldw	r11,4(sp)
   21ff0:	da800217 	ldw	r10,8(sp)
   21ff4:	a809883a 	mov	r4,r21
   21ff8:	580d883a 	mov	r6,r11
   21ffc:	500f883a 	mov	r7,r10
   22000:	a00b883a 	mov	r5,r20
   22004:	1023883a 	mov	r17,r2
   22008:	1821883a 	mov	r16,r3
   2200c:	002628c0 	call	2628c <__muldf3>
   22010:	b80d883a 	mov	r6,r23
   22014:	e00f883a 	mov	r7,fp
   22018:	b009883a 	mov	r4,r22
   2201c:	980b883a 	mov	r5,r19
   22020:	1029883a 	mov	r20,r2
   22024:	1825883a 	mov	r18,r3
   22028:	002628c0 	call	2628c <__muldf3>
   2202c:	a009883a 	mov	r4,r20
   22030:	900b883a 	mov	r5,r18
   22034:	100d883a 	mov	r6,r2
   22038:	180f883a 	mov	r7,r3
   2203c:	00269a40 	call	269a4 <__subdf3>
   22040:	8809883a 	mov	r4,r17
   22044:	800b883a 	mov	r5,r16
   22048:	100d883a 	mov	r6,r2
   2204c:	180f883a 	mov	r7,r3
   22050:	00269a40 	call	269a4 <__subdf3>
   22054:	100d883a 	mov	r6,r2
   22058:	180f883a 	mov	r7,r3
   2205c:	0009883a 	mov	r4,zero
   22060:	014ffc34 	movhi	r5,16368
   22064:	00269a40 	call	269a4 <__subdf3>
   22068:	00008b06 	br	22298 <__kernel_cos+0x454>
   2206c:	200d883a 	mov	r6,r4
   22070:	280f883a 	mov	r7,r5
   22074:	002628c0 	call	2628c <__muldf3>
   22078:	01afa234 	movhi	r6,48776
   2207c:	01ef6a74 	movhi	r7,48553
   22080:	318e3504 	addi	r6,r6,14548
   22084:	39feba44 	addi	r7,r7,-1303
   22088:	1009883a 	mov	r4,r2
   2208c:	180b883a 	mov	r5,r3
   22090:	1025883a 	mov	r18,r2
   22094:	1823883a 	mov	r17,r3
   22098:	002628c0 	call	2628c <__muldf3>
   2209c:	01af6d74 	movhi	r6,48565
   220a0:	01cf88b4 	movhi	r7,15906
   220a4:	31ac7104 	addi	r6,r6,-20028
   220a8:	39fba784 	addi	r7,r7,-4450
   220ac:	1009883a 	mov	r4,r2
   220b0:	180b883a 	mov	r5,r3
   220b4:	0024ea00 	call	24ea0 <__adddf3>
   220b8:	900d883a 	mov	r6,r18
   220bc:	880f883a 	mov	r7,r17
   220c0:	1009883a 	mov	r4,r2
   220c4:	180b883a 	mov	r5,r3
   220c8:	002628c0 	call	2628c <__muldf3>
   220cc:	01a02734 	movhi	r6,32924
   220d0:	01cfa4b4 	movhi	r7,16018
   220d4:	3194ab44 	addi	r6,r6,21165
   220d8:	39df93c4 	addi	r7,r7,32335
   220dc:	1009883a 	mov	r4,r2
   220e0:	180b883a 	mov	r5,r3
   220e4:	00269a40 	call	269a4 <__subdf3>
   220e8:	900d883a 	mov	r6,r18
   220ec:	880f883a 	mov	r7,r17
   220f0:	1009883a 	mov	r4,r2
   220f4:	180b883a 	mov	r5,r3
   220f8:	002628c0 	call	2628c <__muldf3>
   220fc:	018672f4 	movhi	r6,6603
   22100:	01cfbeb4 	movhi	r7,16122
   22104:	31856404 	addi	r6,r6,5520
   22108:	39c06804 	addi	r7,r7,416
   2210c:	1009883a 	mov	r4,r2
   22110:	180b883a 	mov	r5,r3
   22114:	0024ea00 	call	24ea0 <__adddf3>
   22118:	900d883a 	mov	r6,r18
   2211c:	880f883a 	mov	r7,r17
   22120:	1009883a 	mov	r4,r2
   22124:	180b883a 	mov	r5,r3
   22128:	002628c0 	call	2628c <__muldf3>
   2212c:	0185b074 	movhi	r6,5825
   22130:	01cfd5f4 	movhi	r7,16215
   22134:	31945dc4 	addi	r6,r6,20855
   22138:	39f05b04 	addi	r7,r7,-16020
   2213c:	1009883a 	mov	r4,r2
   22140:	180b883a 	mov	r5,r3
   22144:	00269a40 	call	269a4 <__subdf3>
   22148:	900d883a 	mov	r6,r18
   2214c:	880f883a 	mov	r7,r17
   22150:	1009883a 	mov	r4,r2
   22154:	180b883a 	mov	r5,r3
   22158:	002628c0 	call	2628c <__muldf3>
   2215c:	01955574 	movhi	r6,21845
   22160:	01cfe974 	movhi	r7,16293
   22164:	31955304 	addi	r6,r6,21836
   22168:	39d55544 	addi	r7,r7,21845
   2216c:	1009883a 	mov	r4,r2
   22170:	180b883a 	mov	r5,r3
   22174:	0024ea00 	call	24ea0 <__adddf3>
   22178:	900d883a 	mov	r6,r18
   2217c:	880f883a 	mov	r7,r17
   22180:	1009883a 	mov	r4,r2
   22184:	180b883a 	mov	r5,r3
   22188:	002628c0 	call	2628c <__muldf3>
   2218c:	1013883a 	mov	r9,r2
   22190:	1017883a 	mov	r11,r2
   22194:	008ff4f4 	movhi	r2,16339
   22198:	108ccc84 	addi	r2,r2,13106
   2219c:	1811883a 	mov	r8,r3
   221a0:	902b883a 	mov	r21,r18
   221a4:	8829883a 	mov	r20,r17
   221a8:	1815883a 	mov	r10,r3
   221ac:	143f880e 	bge	r2,r16,21fd0 <__alt_mem_SDRAM_controller+0xfc021fd0>
   221b0:	008ffa74 	movhi	r2,16361
   221b4:	14004416 	blt	r2,r16,222c8 <__kernel_cos+0x484>
   221b8:	00bff834 	movhi	r2,65504
   221bc:	80a1883a 	add	r16,r16,r2
   221c0:	000d883a 	mov	r6,zero
   221c4:	800f883a 	mov	r7,r16
   221c8:	0009883a 	mov	r4,zero
   221cc:	014ffc34 	movhi	r5,16368
   221d0:	da400115 	stw	r9,4(sp)
   221d4:	d8c00215 	stw	r3,8(sp)
   221d8:	00269a40 	call	269a4 <__subdf3>
   221dc:	da000217 	ldw	r8,8(sp)
   221e0:	da400117 	ldw	r9,4(sp)
   221e4:	102b883a 	mov	r21,r2
   221e8:	d8c00015 	stw	r3,0(sp)
   221ec:	9009883a 	mov	r4,r18
   221f0:	880b883a 	mov	r5,r17
   221f4:	000d883a 	mov	r6,zero
   221f8:	01cff834 	movhi	r7,16352
   221fc:	da000215 	stw	r8,8(sp)
   22200:	da400115 	stw	r9,4(sp)
   22204:	002628c0 	call	2628c <__muldf3>
   22208:	800f883a 	mov	r7,r16
   2220c:	000d883a 	mov	r6,zero
   22210:	1009883a 	mov	r4,r2
   22214:	180b883a 	mov	r5,r3
   22218:	00269a40 	call	269a4 <__subdf3>
   2221c:	da400117 	ldw	r9,4(sp)
   22220:	da000217 	ldw	r8,8(sp)
   22224:	9009883a 	mov	r4,r18
   22228:	480d883a 	mov	r6,r9
   2222c:	400f883a 	mov	r7,r8
   22230:	880b883a 	mov	r5,r17
   22234:	1029883a 	mov	r20,r2
   22238:	1821883a 	mov	r16,r3
   2223c:	002628c0 	call	2628c <__muldf3>
   22240:	b80d883a 	mov	r6,r23
   22244:	e00f883a 	mov	r7,fp
   22248:	b009883a 	mov	r4,r22
   2224c:	980b883a 	mov	r5,r19
   22250:	1025883a 	mov	r18,r2
   22254:	1823883a 	mov	r17,r3
   22258:	002628c0 	call	2628c <__muldf3>
   2225c:	100d883a 	mov	r6,r2
   22260:	180f883a 	mov	r7,r3
   22264:	9009883a 	mov	r4,r18
   22268:	880b883a 	mov	r5,r17
   2226c:	00269a40 	call	269a4 <__subdf3>
   22270:	100d883a 	mov	r6,r2
   22274:	180f883a 	mov	r7,r3
   22278:	a009883a 	mov	r4,r20
   2227c:	800b883a 	mov	r5,r16
   22280:	00269a40 	call	269a4 <__subdf3>
   22284:	d9400017 	ldw	r5,0(sp)
   22288:	100d883a 	mov	r6,r2
   2228c:	180f883a 	mov	r7,r3
   22290:	a809883a 	mov	r4,r21
   22294:	00269a40 	call	269a4 <__subdf3>
   22298:	dfc00c17 	ldw	ra,48(sp)
   2229c:	df000b17 	ldw	fp,44(sp)
   222a0:	ddc00a17 	ldw	r23,40(sp)
   222a4:	dd800917 	ldw	r22,36(sp)
   222a8:	dd400817 	ldw	r21,32(sp)
   222ac:	dd000717 	ldw	r20,28(sp)
   222b0:	dcc00617 	ldw	r19,24(sp)
   222b4:	dc800517 	ldw	r18,20(sp)
   222b8:	dc400417 	ldw	r17,16(sp)
   222bc:	dc000317 	ldw	r16,12(sp)
   222c0:	dec00d04 	addi	sp,sp,52
   222c4:	f800283a 	ret
   222c8:	008ff9f4 	movhi	r2,16359
   222cc:	002b883a 	mov	r21,zero
   222d0:	d8800015 	stw	r2,0(sp)
   222d4:	040ff4b4 	movhi	r16,16338
   222d8:	003fc406 	br	221ec <__alt_mem_SDRAM_controller+0xfc0221ec>
   222dc:	0005883a 	mov	r2,zero
   222e0:	00cffc34 	movhi	r3,16368
   222e4:	003fec06 	br	22298 <__alt_mem_SDRAM_controller+0xfc022298>

000222e8 <__kernel_rem_pio2>:
   222e8:	deff5a04 	addi	sp,sp,-664
   222ec:	da00a617 	ldw	r8,664(sp)
   222f0:	00c000f4 	movhi	r3,3
   222f4:	18d87d04 	addi	r3,r3,25076
   222f8:	4205883a 	add	r2,r8,r8
   222fc:	1085883a 	add	r2,r2,r2
   22300:	1885883a 	add	r2,r3,r2
   22304:	d9008e15 	stw	r4,568(sp)
   22308:	d9408f15 	stw	r5,572(sp)
   2230c:	313fff44 	addi	r4,r6,-3
   22310:	01400604 	movi	r5,24
   22314:	dd80a215 	stw	r22,648(sp)
   22318:	dc009c15 	stw	r16,624(sp)
   2231c:	dfc0a515 	stw	ra,660(sp)
   22320:	df00a415 	stw	fp,656(sp)
   22324:	ddc0a315 	stw	r23,652(sp)
   22328:	dd40a115 	stw	r21,644(sp)
   2232c:	dd00a015 	stw	r20,640(sp)
   22330:	dcc09f15 	stw	r19,636(sp)
   22334:	dc809e15 	stw	r18,632(sp)
   22338:	dc409d15 	stw	r17,628(sp)
   2233c:	3021883a 	mov	r16,r6
   22340:	d9c09315 	stw	r7,588(sp)
   22344:	15800017 	ldw	r22,0(r2)
   22348:	00237ec0 	call	237ec <__divsi3>
   2234c:	da009317 	ldw	r8,588(sp)
   22350:	d8809215 	stw	r2,584(sp)
   22354:	423fffc4 	addi	r8,r8,-1
   22358:	da008d15 	stw	r8,564(sp)
   2235c:	10033b16 	blt	r2,zero,2304c <__kernel_rem_pio2+0xd64>
   22360:	da009217 	ldw	r8,584(sp)
   22364:	d9009217 	ldw	r4,584(sp)
   22368:	42000044 	addi	r8,r8,1
   2236c:	40fffa24 	muli	r3,r8,-24
   22370:	da009515 	stw	r8,596(sp)
   22374:	da008d17 	ldw	r8,564(sp)
   22378:	1c07883a 	add	r3,r3,r16
   2237c:	d8c09015 	stw	r3,576(sp)
   22380:	b205883a 	add	r2,r22,r8
   22384:	2223c83a 	sub	r17,r4,r8
   22388:	10001016 	blt	r2,zero,223cc <__kernel_rem_pio2+0xe4>
   2238c:	da00a717 	ldw	r8,668(sp)
   22390:	8c65883a 	add	r18,r17,r17
   22394:	94a5883a 	add	r18,r18,r18
   22398:	1445883a 	add	r2,r2,r17
   2239c:	dcc05004 	addi	r19,sp,320
   223a0:	44a5883a 	add	r18,r8,r18
   223a4:	14000044 	addi	r16,r2,1
   223a8:	88015316 	blt	r17,zero,228f8 <__kernel_rem_pio2+0x610>
   223ac:	91000017 	ldw	r4,0(r18)
   223b0:	00273200 	call	27320 <__floatsidf>
   223b4:	98800015 	stw	r2,0(r19)
   223b8:	98c00115 	stw	r3,4(r19)
   223bc:	8c400044 	addi	r17,r17,1
   223c0:	9cc00204 	addi	r19,r19,8
   223c4:	94800104 	addi	r18,r18,4
   223c8:	8c3ff71e 	bne	r17,r16,223a8 <__alt_mem_SDRAM_controller+0xfc0223a8>
   223cc:	b0002816 	blt	r22,zero,22470 <__kernel_rem_pio2+0x188>
   223d0:	da008d17 	ldw	r8,564(sp)
   223d4:	b4c00044 	addi	r19,r22,1
   223d8:	982690fa 	slli	r19,r19,3
   223dc:	402490fa 	slli	r18,r8,3
   223e0:	da008e17 	ldw	r8,568(sp)
   223e4:	d8805004 	addi	r2,sp,320
   223e8:	94000204 	addi	r16,r18,8
   223ec:	d823883a 	mov	r17,sp
   223f0:	14a5883a 	add	r18,r2,r18
   223f4:	dcef883a 	add	r23,sp,r19
   223f8:	4421883a 	add	r16,r8,r16
   223fc:	dd809115 	stw	r22,580(sp)
   22400:	4039883a 	mov	fp,r8
   22404:	da008d17 	ldw	r8,564(sp)
   22408:	40016016 	blt	r8,zero,2298c <__kernel_rem_pio2+0x6a4>
   2240c:	e027883a 	mov	r19,fp
   22410:	9029883a 	mov	r20,r18
   22414:	002d883a 	mov	r22,zero
   22418:	002b883a 	mov	r21,zero
   2241c:	a1800017 	ldw	r6,0(r20)
   22420:	a1c00117 	ldw	r7,4(r20)
   22424:	99000017 	ldw	r4,0(r19)
   22428:	99400117 	ldw	r5,4(r19)
   2242c:	9cc00204 	addi	r19,r19,8
   22430:	a53ffe04 	addi	r20,r20,-8
   22434:	002628c0 	call	2628c <__muldf3>
   22438:	b009883a 	mov	r4,r22
   2243c:	a80b883a 	mov	r5,r21
   22440:	100d883a 	mov	r6,r2
   22444:	180f883a 	mov	r7,r3
   22448:	0024ea00 	call	24ea0 <__adddf3>
   2244c:	102d883a 	mov	r22,r2
   22450:	182b883a 	mov	r21,r3
   22454:	9c3ff11e 	bne	r19,r16,2241c <__alt_mem_SDRAM_controller+0xfc02241c>
   22458:	8d800015 	stw	r22,0(r17)
   2245c:	8d400115 	stw	r21,4(r17)
   22460:	8c400204 	addi	r17,r17,8
   22464:	94800204 	addi	r18,r18,8
   22468:	8dffe61e 	bne	r17,r23,22404 <__alt_mem_SDRAM_controller+0xfc022404>
   2246c:	dd809117 	ldw	r22,580(sp)
   22470:	00d00034 	movhi	r3,16384
   22474:	da009317 	ldw	r8,588(sp)
   22478:	18ffff84 	addi	r3,r3,-2
   2247c:	b0c7883a 	add	r3,r22,r3
   22480:	18c7883a 	add	r3,r3,r3
   22484:	402090fa 	slli	r16,r8,3
   22488:	18c7883a 	add	r3,r3,r3
   2248c:	da007804 	addi	r8,sp,480
   22490:	40d1883a 	add	r8,r8,r3
   22494:	b0bfffc4 	addi	r2,r22,-1
   22498:	da009615 	stw	r8,600(sp)
   2249c:	da008e17 	ldw	r8,568(sp)
   224a0:	1085883a 	add	r2,r2,r2
   224a4:	1085883a 	add	r2,r2,r2
   224a8:	19000104 	addi	r4,r3,4
   224ac:	d885883a 	add	r2,sp,r2
   224b0:	4421883a 	add	r16,r8,r16
   224b4:	da007804 	addi	r8,sp,480
   224b8:	4111883a 	add	r8,r8,r4
   224bc:	10807804 	addi	r2,r2,480
   224c0:	da009715 	stw	r8,604(sp)
   224c4:	b025883a 	mov	r18,r22
   224c8:	d8809815 	stw	r2,608(sp)
   224cc:	dd809415 	stw	r22,592(sp)
   224d0:	900490fa 	slli	r2,r18,3
   224d4:	d885883a 	add	r2,sp,r2
   224d8:	17000017 	ldw	fp,0(r2)
   224dc:	15400117 	ldw	r21,4(r2)
   224e0:	04802b0e 	bge	zero,r18,22590 <__kernel_rem_pio2+0x2a8>
   224e4:	00880034 	movhi	r2,8192
   224e8:	10bfffc4 	addi	r2,r2,-1
   224ec:	90a9883a 	add	r20,r18,r2
   224f0:	a02890fa 	slli	r20,r20,3
   224f4:	dc407804 	addi	r17,sp,480
   224f8:	dcfffe04 	addi	r19,sp,-8
   224fc:	dd29883a 	add	r20,sp,r20
   22500:	000d883a 	mov	r6,zero
   22504:	01cf9c34 	movhi	r7,15984
   22508:	e009883a 	mov	r4,fp
   2250c:	a80b883a 	mov	r5,r21
   22510:	002628c0 	call	2628c <__muldf3>
   22514:	180b883a 	mov	r5,r3
   22518:	1009883a 	mov	r4,r2
   2251c:	00272a00 	call	272a0 <__fixdfsi>
   22520:	1009883a 	mov	r4,r2
   22524:	00273200 	call	27320 <__floatsidf>
   22528:	000d883a 	mov	r6,zero
   2252c:	01d05c34 	movhi	r7,16752
   22530:	1009883a 	mov	r4,r2
   22534:	180b883a 	mov	r5,r3
   22538:	102f883a 	mov	r23,r2
   2253c:	182d883a 	mov	r22,r3
   22540:	002628c0 	call	2628c <__muldf3>
   22544:	100d883a 	mov	r6,r2
   22548:	180f883a 	mov	r7,r3
   2254c:	e009883a 	mov	r4,fp
   22550:	a80b883a 	mov	r5,r21
   22554:	00269a40 	call	269a4 <__subdf3>
   22558:	180b883a 	mov	r5,r3
   2255c:	1009883a 	mov	r4,r2
   22560:	00272a00 	call	272a0 <__fixdfsi>
   22564:	a1800017 	ldw	r6,0(r20)
   22568:	a1c00117 	ldw	r7,4(r20)
   2256c:	88800015 	stw	r2,0(r17)
   22570:	b809883a 	mov	r4,r23
   22574:	b00b883a 	mov	r5,r22
   22578:	0024ea00 	call	24ea0 <__adddf3>
   2257c:	a53ffe04 	addi	r20,r20,-8
   22580:	1039883a 	mov	fp,r2
   22584:	182b883a 	mov	r21,r3
   22588:	8c400104 	addi	r17,r17,4
   2258c:	a4ffdc1e 	bne	r20,r19,22500 <__alt_mem_SDRAM_controller+0xfc022500>
   22590:	d9809017 	ldw	r6,576(sp)
   22594:	a80b883a 	mov	r5,r21
   22598:	e009883a 	mov	r4,fp
   2259c:	00235c00 	call	235c0 <scalbn>
   225a0:	000d883a 	mov	r6,zero
   225a4:	01cff034 	movhi	r7,16320
   225a8:	1009883a 	mov	r4,r2
   225ac:	180b883a 	mov	r5,r3
   225b0:	1027883a 	mov	r19,r2
   225b4:	1823883a 	mov	r17,r3
   225b8:	002628c0 	call	2628c <__muldf3>
   225bc:	1009883a 	mov	r4,r2
   225c0:	180b883a 	mov	r5,r3
   225c4:	00233580 	call	23358 <floor>
   225c8:	000d883a 	mov	r6,zero
   225cc:	01d00834 	movhi	r7,16416
   225d0:	1009883a 	mov	r4,r2
   225d4:	180b883a 	mov	r5,r3
   225d8:	002628c0 	call	2628c <__muldf3>
   225dc:	100d883a 	mov	r6,r2
   225e0:	180f883a 	mov	r7,r3
   225e4:	9809883a 	mov	r4,r19
   225e8:	880b883a 	mov	r5,r17
   225ec:	00269a40 	call	269a4 <__subdf3>
   225f0:	180b883a 	mov	r5,r3
   225f4:	1009883a 	mov	r4,r2
   225f8:	1827883a 	mov	r19,r3
   225fc:	1029883a 	mov	r20,r2
   22600:	00272a00 	call	272a0 <__fixdfsi>
   22604:	1009883a 	mov	r4,r2
   22608:	1023883a 	mov	r17,r2
   2260c:	00273200 	call	27320 <__floatsidf>
   22610:	a009883a 	mov	r4,r20
   22614:	100d883a 	mov	r6,r2
   22618:	180f883a 	mov	r7,r3
   2261c:	980b883a 	mov	r5,r19
   22620:	00269a40 	call	269a4 <__subdf3>
   22624:	d9009017 	ldw	r4,576(sp)
   22628:	1013883a 	mov	r9,r2
   2262c:	102b883a 	mov	r21,r2
   22630:	1811883a 	mov	r8,r3
   22634:	0100b30e 	bge	zero,r4,22904 <__kernel_rem_pio2+0x61c>
   22638:	90bfffc4 	addi	r2,r18,-1
   2263c:	1085883a 	add	r2,r2,r2
   22640:	1085883a 	add	r2,r2,r2
   22644:	d885883a 	add	r2,sp,r2
   22648:	10807804 	addi	r2,r2,480
   2264c:	d9809017 	ldw	r6,576(sp)
   22650:	11400017 	ldw	r5,0(r2)
   22654:	01000604 	movi	r4,24
   22658:	2189c83a 	sub	r4,r4,r6
   2265c:	290dd83a 	sra	r6,r5,r4
   22660:	d9c09017 	ldw	r7,576(sp)
   22664:	04c005c4 	movi	r19,23
   22668:	3108983a 	sll	r4,r6,r4
   2266c:	99e7c83a 	sub	r19,r19,r7
   22670:	89a3883a 	add	r17,r17,r6
   22674:	2909c83a 	sub	r4,r5,r4
   22678:	24e7d83a 	sra	r19,r4,r19
   2267c:	11000015 	stw	r4,0(r2)
   22680:	04c02a0e 	bge	zero,r19,2272c <__kernel_rem_pio2+0x444>
   22684:	8c400044 	addi	r17,r17,1
   22688:	0481570e 	bge	zero,r18,22be8 <__kernel_rem_pio2+0x900>
   2268c:	02804034 	movhi	r10,256
   22690:	52bfffc4 	addi	r10,r10,-1
   22694:	d8807804 	addi	r2,sp,480
   22698:	000b883a 	mov	r5,zero
   2269c:	0029883a 	mov	r20,zero
   226a0:	01c04034 	movhi	r7,256
   226a4:	00000706 	br	226c4 <__kernel_rem_pio2+0x3dc>
   226a8:	390dc83a 	sub	r6,r7,r4
   226ac:	20000226 	beq	r4,zero,226b8 <__kernel_rem_pio2+0x3d0>
   226b0:	11800015 	stw	r6,0(r2)
   226b4:	05000044 	movi	r20,1
   226b8:	29400044 	addi	r5,r5,1
   226bc:	10800104 	addi	r2,r2,4
   226c0:	2c80080e 	bge	r5,r18,226e4 <__kernel_rem_pio2+0x3fc>
   226c4:	11000017 	ldw	r4,0(r2)
   226c8:	a03ff726 	beq	r20,zero,226a8 <__alt_mem_SDRAM_controller+0xfc0226a8>
   226cc:	5109c83a 	sub	r4,r10,r4
   226d0:	11000015 	stw	r4,0(r2)
   226d4:	29400044 	addi	r5,r5,1
   226d8:	05000044 	movi	r20,1
   226dc:	10800104 	addi	r2,r2,4
   226e0:	2cbff816 	blt	r5,r18,226c4 <__alt_mem_SDRAM_controller+0xfc0226c4>
   226e4:	d9009017 	ldw	r4,576(sp)
   226e8:	01000e0e 	bge	zero,r4,22724 <__kernel_rem_pio2+0x43c>
   226ec:	00800044 	movi	r2,1
   226f0:	20808d26 	beq	r4,r2,22928 <__kernel_rem_pio2+0x640>
   226f4:	00800084 	movi	r2,2
   226f8:	20800a1e 	bne	r4,r2,22724 <__kernel_rem_pio2+0x43c>
   226fc:	90bfffc4 	addi	r2,r18,-1
   22700:	1085883a 	add	r2,r2,r2
   22704:	1085883a 	add	r2,r2,r2
   22708:	d885883a 	add	r2,sp,r2
   2270c:	10807804 	addi	r2,r2,480
   22710:	11400017 	ldw	r5,0(r2)
   22714:	01001034 	movhi	r4,64
   22718:	213fffc4 	addi	r4,r4,-1
   2271c:	2908703a 	and	r4,r5,r4
   22720:	11000015 	stw	r4,0(r2)
   22724:	00800084 	movi	r2,2
   22728:	98805d26 	beq	r19,r2,228a0 <__kernel_rem_pio2+0x5b8>
   2272c:	400b883a 	mov	r5,r8
   22730:	000d883a 	mov	r6,zero
   22734:	000f883a 	mov	r7,zero
   22738:	a809883a 	mov	r4,r21
   2273c:	da009b15 	stw	r8,620(sp)
   22740:	00260340 	call	26034 <__eqdf2>
   22744:	da009b17 	ldw	r8,620(sp)
   22748:	10012b1e 	bne	r2,zero,22bf8 <__kernel_rem_pio2+0x910>
   2274c:	da009417 	ldw	r8,592(sp)
   22750:	917fffc4 	addi	r5,r18,-1
   22754:	2a000e16 	blt	r5,r8,22790 <__kernel_rem_pio2+0x4a8>
   22758:	00900034 	movhi	r2,16384
   2275c:	10bfffc4 	addi	r2,r2,-1
   22760:	9085883a 	add	r2,r18,r2
   22764:	1085883a 	add	r2,r2,r2
   22768:	d9809717 	ldw	r6,604(sp)
   2276c:	1085883a 	add	r2,r2,r2
   22770:	d9007804 	addi	r4,sp,480
   22774:	0007883a 	mov	r3,zero
   22778:	2085883a 	add	r2,r4,r2
   2277c:	11000017 	ldw	r4,0(r2)
   22780:	10bfff04 	addi	r2,r2,-4
   22784:	1906b03a 	or	r3,r3,r4
   22788:	11bffc1e 	bne	r2,r6,2277c <__alt_mem_SDRAM_controller+0xfc02277c>
   2278c:	1800821e 	bne	r3,zero,22998 <__kernel_rem_pio2+0x6b0>
   22790:	da009817 	ldw	r8,608(sp)
   22794:	40800017 	ldw	r2,0(r8)
   22798:	1001151e 	bne	r2,zero,22bf0 <__kernel_rem_pio2+0x908>
   2279c:	d8809617 	ldw	r2,600(sp)
   227a0:	05000044 	movi	r20,1
   227a4:	10bfff04 	addi	r2,r2,-4
   227a8:	10c00117 	ldw	r3,4(r2)
   227ac:	a5000044 	addi	r20,r20,1
   227b0:	183ffc26 	beq	r3,zero,227a4 <__alt_mem_SDRAM_controller+0xfc0227a4>
   227b4:	9529883a 	add	r20,r18,r20
   227b8:	90800044 	addi	r2,r18,1
   227bc:	dd009115 	stw	r20,580(sp)
   227c0:	a0803216 	blt	r20,r2,2288c <__kernel_rem_pio2+0x5a4>
   227c4:	da009317 	ldw	r8,588(sp)
   227c8:	d8c09117 	ldw	r3,580(sp)
   227cc:	44a3883a 	add	r17,r8,r18
   227d0:	da009217 	ldw	r8,584(sp)
   227d4:	882290fa 	slli	r17,r17,3
   227d8:	40a5883a 	add	r18,r8,r2
   227dc:	da009517 	ldw	r8,596(sp)
   227e0:	100490fa 	slli	r2,r2,3
   227e4:	94a5883a 	add	r18,r18,r18
   227e8:	40eb883a 	add	r21,r8,r3
   227ec:	da00a717 	ldw	r8,668(sp)
   227f0:	ad6b883a 	add	r21,r21,r21
   227f4:	94a5883a 	add	r18,r18,r18
   227f8:	ad6b883a 	add	r21,r21,r21
   227fc:	d8c05004 	addi	r3,sp,320
   22800:	44a5883a 	add	r18,r8,r18
   22804:	1c63883a 	add	r17,r3,r17
   22808:	d8a7883a 	add	r19,sp,r2
   2280c:	456b883a 	add	r21,r8,r21
   22810:	91000017 	ldw	r4,0(r18)
   22814:	00273200 	call	27320 <__floatsidf>
   22818:	da008d17 	ldw	r8,564(sp)
   2281c:	88800015 	stw	r2,0(r17)
   22820:	88c00115 	stw	r3,4(r17)
   22824:	40001b16 	blt	r8,zero,22894 <__kernel_rem_pio2+0x5ac>
   22828:	dd008e17 	ldw	r20,568(sp)
   2282c:	882d883a 	mov	r22,r17
   22830:	002f883a 	mov	r23,zero
   22834:	0039883a 	mov	fp,zero
   22838:	b1800017 	ldw	r6,0(r22)
   2283c:	b1c00117 	ldw	r7,4(r22)
   22840:	a1000017 	ldw	r4,0(r20)
   22844:	a1400117 	ldw	r5,4(r20)
   22848:	a5000204 	addi	r20,r20,8
   2284c:	b5bffe04 	addi	r22,r22,-8
   22850:	002628c0 	call	2628c <__muldf3>
   22854:	b809883a 	mov	r4,r23
   22858:	e00b883a 	mov	r5,fp
   2285c:	100d883a 	mov	r6,r2
   22860:	180f883a 	mov	r7,r3
   22864:	0024ea00 	call	24ea0 <__adddf3>
   22868:	102f883a 	mov	r23,r2
   2286c:	1839883a 	mov	fp,r3
   22870:	a43ff11e 	bne	r20,r16,22838 <__alt_mem_SDRAM_controller+0xfc022838>
   22874:	9dc00015 	stw	r23,0(r19)
   22878:	9f000115 	stw	fp,4(r19)
   2287c:	94800104 	addi	r18,r18,4
   22880:	8c400204 	addi	r17,r17,8
   22884:	9cc00204 	addi	r19,r19,8
   22888:	957fe11e 	bne	r18,r21,22810 <__alt_mem_SDRAM_controller+0xfc022810>
   2288c:	dc809117 	ldw	r18,580(sp)
   22890:	003f0f06 	br	224d0 <__alt_mem_SDRAM_controller+0xfc0224d0>
   22894:	002f883a 	mov	r23,zero
   22898:	0039883a 	mov	fp,zero
   2289c:	003ff506 	br	22874 <__alt_mem_SDRAM_controller+0xfc022874>
   228a0:	480d883a 	mov	r6,r9
   228a4:	180f883a 	mov	r7,r3
   228a8:	0009883a 	mov	r4,zero
   228ac:	014ffc34 	movhi	r5,16368
   228b0:	00269a40 	call	269a4 <__subdf3>
   228b4:	102b883a 	mov	r21,r2
   228b8:	1811883a 	mov	r8,r3
   228bc:	a03f9b26 	beq	r20,zero,2272c <__alt_mem_SDRAM_controller+0xfc02272c>
   228c0:	d9809017 	ldw	r6,576(sp)
   228c4:	0009883a 	mov	r4,zero
   228c8:	014ffc34 	movhi	r5,16368
   228cc:	d8c09b15 	stw	r3,620(sp)
   228d0:	00235c00 	call	235c0 <scalbn>
   228d4:	da009b17 	ldw	r8,620(sp)
   228d8:	a809883a 	mov	r4,r21
   228dc:	100d883a 	mov	r6,r2
   228e0:	400b883a 	mov	r5,r8
   228e4:	180f883a 	mov	r7,r3
   228e8:	00269a40 	call	269a4 <__subdf3>
   228ec:	102b883a 	mov	r21,r2
   228f0:	1811883a 	mov	r8,r3
   228f4:	003f8d06 	br	2272c <__alt_mem_SDRAM_controller+0xfc02272c>
   228f8:	0005883a 	mov	r2,zero
   228fc:	0007883a 	mov	r3,zero
   22900:	003eac06 	br	223b4 <__alt_mem_SDRAM_controller+0xfc0223b4>
   22904:	d8809017 	ldw	r2,576(sp)
   22908:	1000121e 	bne	r2,zero,22954 <__kernel_rem_pio2+0x66c>
   2290c:	90bfffc4 	addi	r2,r18,-1
   22910:	1085883a 	add	r2,r2,r2
   22914:	1085883a 	add	r2,r2,r2
   22918:	d885883a 	add	r2,sp,r2
   2291c:	14c07817 	ldw	r19,480(r2)
   22920:	9827d5fa 	srai	r19,r19,23
   22924:	003f5606 	br	22680 <__alt_mem_SDRAM_controller+0xfc022680>
   22928:	90bfffc4 	addi	r2,r18,-1
   2292c:	1085883a 	add	r2,r2,r2
   22930:	1085883a 	add	r2,r2,r2
   22934:	d885883a 	add	r2,sp,r2
   22938:	10807804 	addi	r2,r2,480
   2293c:	11000017 	ldw	r4,0(r2)
   22940:	01402034 	movhi	r5,128
   22944:	297fffc4 	addi	r5,r5,-1
   22948:	2148703a 	and	r4,r4,r5
   2294c:	11000015 	stw	r4,0(r2)
   22950:	003f7406 	br	22724 <__alt_mem_SDRAM_controller+0xfc022724>
   22954:	4809883a 	mov	r4,r9
   22958:	180b883a 	mov	r5,r3
   2295c:	000d883a 	mov	r6,zero
   22960:	01cff834 	movhi	r7,16352
   22964:	d8c09a15 	stw	r3,616(sp)
   22968:	d8c09b15 	stw	r3,620(sp)
   2296c:	da409915 	stw	r9,612(sp)
   22970:	00260bc0 	call	260bc <__gedf2>
   22974:	d8c09a17 	ldw	r3,616(sp)
   22978:	da009b17 	ldw	r8,620(sp)
   2297c:	da409917 	ldw	r9,612(sp)
   22980:	1000920e 	bge	r2,zero,22bcc <__kernel_rem_pio2+0x8e4>
   22984:	0027883a 	mov	r19,zero
   22988:	003f6806 	br	2272c <__alt_mem_SDRAM_controller+0xfc02272c>
   2298c:	002d883a 	mov	r22,zero
   22990:	002b883a 	mov	r21,zero
   22994:	003eb006 	br	22458 <__alt_mem_SDRAM_controller+0xfc022458>
   22998:	2945883a 	add	r2,r5,r5
   2299c:	da009017 	ldw	r8,576(sp)
   229a0:	1085883a 	add	r2,r2,r2
   229a4:	d885883a 	add	r2,sp,r2
   229a8:	10807817 	ldw	r2,480(r2)
   229ac:	423ffa04 	addi	r8,r8,-24
   229b0:	dc409115 	stw	r17,580(sp)
   229b4:	dcc08d15 	stw	r19,564(sp)
   229b8:	da009015 	stw	r8,576(sp)
   229bc:	dd809417 	ldw	r22,592(sp)
   229c0:	2823883a 	mov	r17,r5
   229c4:	10000e1e 	bne	r2,zero,22a00 <__kernel_rem_pio2+0x718>
   229c8:	00900034 	movhi	r2,16384
   229cc:	10bfffc4 	addi	r2,r2,-1
   229d0:	2885883a 	add	r2,r5,r2
   229d4:	1085883a 	add	r2,r2,r2
   229d8:	d8c07804 	addi	r3,sp,480
   229dc:	1085883a 	add	r2,r2,r2
   229e0:	1885883a 	add	r2,r3,r2
   229e4:	4007883a 	mov	r3,r8
   229e8:	10bfff04 	addi	r2,r2,-4
   229ec:	11000117 	ldw	r4,4(r2)
   229f0:	8c7fffc4 	addi	r17,r17,-1
   229f4:	18fffa04 	addi	r3,r3,-24
   229f8:	203ffb26 	beq	r4,zero,229e8 <__alt_mem_SDRAM_controller+0xfc0229e8>
   229fc:	d8c09015 	stw	r3,576(sp)
   22a00:	d9809017 	ldw	r6,576(sp)
   22a04:	0009883a 	mov	r4,zero
   22a08:	014ffc34 	movhi	r5,16368
   22a0c:	00235c00 	call	235c0 <scalbn>
   22a10:	1029883a 	mov	r20,r2
   22a14:	182b883a 	mov	r21,r3
   22a18:	88018416 	blt	r17,zero,2302c <__kernel_rem_pio2+0xd44>
   22a1c:	881090fa 	slli	r8,r17,3
   22a20:	d8c07804 	addi	r3,sp,480
   22a24:	da008e15 	stw	r8,568(sp)
   22a28:	d8808e17 	ldw	r2,568(sp)
   22a2c:	8c51883a 	add	r8,r17,r17
   22a30:	4211883a 	add	r8,r8,r8
   22a34:	d8a1883a 	add	r16,sp,r2
   22a38:	1a25883a 	add	r18,r3,r8
   22a3c:	da3ffe04 	addi	r8,sp,-8
   22a40:	da008c15 	stw	r8,560(sp)
   22a44:	8039883a 	mov	fp,r16
   22a48:	91000017 	ldw	r4,0(r18)
   22a4c:	e73ffe04 	addi	fp,fp,-8
   22a50:	94bfff04 	addi	r18,r18,-4
   22a54:	00273200 	call	27320 <__floatsidf>
   22a58:	a00d883a 	mov	r6,r20
   22a5c:	a80f883a 	mov	r7,r21
   22a60:	1009883a 	mov	r4,r2
   22a64:	180b883a 	mov	r5,r3
   22a68:	002628c0 	call	2628c <__muldf3>
   22a6c:	a009883a 	mov	r4,r20
   22a70:	a80b883a 	mov	r5,r21
   22a74:	e0800215 	stw	r2,8(fp)
   22a78:	e0c00315 	stw	r3,12(fp)
   22a7c:	000d883a 	mov	r6,zero
   22a80:	01cf9c34 	movhi	r7,15984
   22a84:	002628c0 	call	2628c <__muldf3>
   22a88:	da008c17 	ldw	r8,560(sp)
   22a8c:	1029883a 	mov	r20,r2
   22a90:	182b883a 	mov	r21,r3
   22a94:	e23fec1e 	bne	fp,r8,22a48 <__alt_mem_SDRAM_controller+0xfc022a48>
   22a98:	0029883a 	mov	r20,zero
   22a9c:	b0004f16 	blt	r22,zero,22bdc <__kernel_rem_pio2+0x8f4>
   22aa0:	054000f4 	movhi	r21,3
   22aa4:	014ffe74 	movhi	r5,16377
   22aa8:	ad586f04 	addi	r21,r21,25020
   22aac:	8027883a 	mov	r19,r16
   22ab0:	01100034 	movhi	r4,16384
   22ab4:	29487ec4 	addi	r5,r5,8699
   22ab8:	0039883a 	mov	fp,zero
   22abc:	002f883a 	mov	r23,zero
   22ac0:	0025883a 	mov	r18,zero
   22ac4:	00000506 	br	22adc <__kernel_rem_pio2+0x7f4>
   22ac8:	9cc00204 	addi	r19,r19,8
   22acc:	a4800f16 	blt	r20,r18,22b0c <__kernel_rem_pio2+0x824>
   22ad0:	a9000017 	ldw	r4,0(r21)
   22ad4:	a9400117 	ldw	r5,4(r21)
   22ad8:	ad400204 	addi	r21,r21,8
   22adc:	99800017 	ldw	r6,0(r19)
   22ae0:	99c00117 	ldw	r7,4(r19)
   22ae4:	94800044 	addi	r18,r18,1
   22ae8:	002628c0 	call	2628c <__muldf3>
   22aec:	e009883a 	mov	r4,fp
   22af0:	b80b883a 	mov	r5,r23
   22af4:	100d883a 	mov	r6,r2
   22af8:	180f883a 	mov	r7,r3
   22afc:	0024ea00 	call	24ea0 <__adddf3>
   22b00:	1039883a 	mov	fp,r2
   22b04:	182f883a 	mov	r23,r3
   22b08:	b4bfef0e 	bge	r22,r18,22ac8 <__alt_mem_SDRAM_controller+0xfc022ac8>
   22b0c:	a00490fa 	slli	r2,r20,3
   22b10:	da008c17 	ldw	r8,560(sp)
   22b14:	843ffe04 	addi	r16,r16,-8
   22b18:	d885883a 	add	r2,sp,r2
   22b1c:	10802804 	addi	r2,r2,160
   22b20:	17000015 	stw	fp,0(r2)
   22b24:	15c00115 	stw	r23,4(r2)
   22b28:	a5000044 	addi	r20,r20,1
   22b2c:	823fdb1e 	bne	r16,r8,22a9c <__alt_mem_SDRAM_controller+0xfc022a9c>
   22b30:	da00a617 	ldw	r8,664(sp)
   22b34:	00800084 	movi	r2,2
   22b38:	12006616 	blt	r2,r8,22cd4 <__kernel_rem_pio2+0x9ec>
   22b3c:	0200de16 	blt	zero,r8,22eb8 <__kernel_rem_pio2+0xbd0>
   22b40:	4000141e 	bne	r8,zero,22b94 <__kernel_rem_pio2+0x8ac>
   22b44:	da008e17 	ldw	r8,568(sp)
   22b48:	d8802804 	addi	r2,sp,160
   22b4c:	0007883a 	mov	r3,zero
   22b50:	1225883a 	add	r18,r2,r8
   22b54:	043fffc4 	movi	r16,-1
   22b58:	0005883a 	mov	r2,zero
   22b5c:	91800017 	ldw	r6,0(r18)
   22b60:	91c00117 	ldw	r7,4(r18)
   22b64:	1009883a 	mov	r4,r2
   22b68:	180b883a 	mov	r5,r3
   22b6c:	8c7fffc4 	addi	r17,r17,-1
   22b70:	0024ea00 	call	24ea0 <__adddf3>
   22b74:	94bffe04 	addi	r18,r18,-8
   22b78:	8c3ff81e 	bne	r17,r16,22b5c <__alt_mem_SDRAM_controller+0xfc022b5c>
   22b7c:	da008d17 	ldw	r8,564(sp)
   22b80:	40000126 	beq	r8,zero,22b88 <__kernel_rem_pio2+0x8a0>
   22b84:	18e0003c 	xorhi	r3,r3,32768
   22b88:	da008f17 	ldw	r8,572(sp)
   22b8c:	40800015 	stw	r2,0(r8)
   22b90:	40c00115 	stw	r3,4(r8)
   22b94:	da009117 	ldw	r8,580(sp)
   22b98:	408001cc 	andi	r2,r8,7
   22b9c:	dfc0a517 	ldw	ra,660(sp)
   22ba0:	df00a417 	ldw	fp,656(sp)
   22ba4:	ddc0a317 	ldw	r23,652(sp)
   22ba8:	dd80a217 	ldw	r22,648(sp)
   22bac:	dd40a117 	ldw	r21,644(sp)
   22bb0:	dd00a017 	ldw	r20,640(sp)
   22bb4:	dcc09f17 	ldw	r19,636(sp)
   22bb8:	dc809e17 	ldw	r18,632(sp)
   22bbc:	dc409d17 	ldw	r17,628(sp)
   22bc0:	dc009c17 	ldw	r16,624(sp)
   22bc4:	dec0a604 	addi	sp,sp,664
   22bc8:	f800283a 	ret
   22bcc:	8c400044 	addi	r17,r17,1
   22bd0:	04810d0e 	bge	zero,r18,23008 <__kernel_rem_pio2+0xd20>
   22bd4:	04c00084 	movi	r19,2
   22bd8:	003eac06 	br	2268c <__alt_mem_SDRAM_controller+0xfc02268c>
   22bdc:	0039883a 	mov	fp,zero
   22be0:	002f883a 	mov	r23,zero
   22be4:	003fc906 	br	22b0c <__alt_mem_SDRAM_controller+0xfc022b0c>
   22be8:	0029883a 	mov	r20,zero
   22bec:	003ebd06 	br	226e4 <__alt_mem_SDRAM_controller+0xfc0226e4>
   22bf0:	05000044 	movi	r20,1
   22bf4:	003eef06 	br	227b4 <__alt_mem_SDRAM_controller+0xfc0227b4>
   22bf8:	4029883a 	mov	r20,r8
   22bfc:	da009017 	ldw	r8,576(sp)
   22c00:	a809883a 	mov	r4,r21
   22c04:	a00b883a 	mov	r5,r20
   22c08:	020dc83a 	sub	r6,zero,r8
   22c0c:	dc409115 	stw	r17,580(sp)
   22c10:	dd809417 	ldw	r22,592(sp)
   22c14:	dcc08d15 	stw	r19,564(sp)
   22c18:	00235c00 	call	235c0 <scalbn>
   22c1c:	000d883a 	mov	r6,zero
   22c20:	01d05c34 	movhi	r7,16752
   22c24:	1009883a 	mov	r4,r2
   22c28:	180b883a 	mov	r5,r3
   22c2c:	102b883a 	mov	r21,r2
   22c30:	1823883a 	mov	r17,r3
   22c34:	00260bc0 	call	260bc <__gedf2>
   22c38:	1000e916 	blt	r2,zero,22fe0 <__kernel_rem_pio2+0xcf8>
   22c3c:	000d883a 	mov	r6,zero
   22c40:	01cf9c34 	movhi	r7,15984
   22c44:	880b883a 	mov	r5,r17
   22c48:	a809883a 	mov	r4,r21
   22c4c:	002628c0 	call	2628c <__muldf3>
   22c50:	180b883a 	mov	r5,r3
   22c54:	1009883a 	mov	r4,r2
   22c58:	00272a00 	call	272a0 <__fixdfsi>
   22c5c:	1029883a 	mov	r20,r2
   22c60:	9485883a 	add	r2,r18,r18
   22c64:	1085883a 	add	r2,r2,r2
   22c68:	a009883a 	mov	r4,r20
   22c6c:	d8a1883a 	add	r16,sp,r2
   22c70:	00273200 	call	27320 <__floatsidf>
   22c74:	000d883a 	mov	r6,zero
   22c78:	01d05c34 	movhi	r7,16752
   22c7c:	1009883a 	mov	r4,r2
   22c80:	180b883a 	mov	r5,r3
   22c84:	002628c0 	call	2628c <__muldf3>
   22c88:	880b883a 	mov	r5,r17
   22c8c:	100d883a 	mov	r6,r2
   22c90:	180f883a 	mov	r7,r3
   22c94:	a809883a 	mov	r4,r21
   22c98:	00269a40 	call	269a4 <__subdf3>
   22c9c:	180b883a 	mov	r5,r3
   22ca0:	1009883a 	mov	r4,r2
   22ca4:	00272a00 	call	272a0 <__fixdfsi>
   22ca8:	da009017 	ldw	r8,576(sp)
   22cac:	94400044 	addi	r17,r18,1
   22cb0:	8c47883a 	add	r3,r17,r17
   22cb4:	84007804 	addi	r16,r16,480
   22cb8:	18c7883a 	add	r3,r3,r3
   22cbc:	80800015 	stw	r2,0(r16)
   22cc0:	d8c7883a 	add	r3,sp,r3
   22cc4:	42000604 	addi	r8,r8,24
   22cc8:	da009015 	stw	r8,576(sp)
   22ccc:	1d007815 	stw	r20,480(r3)
   22cd0:	003f4b06 	br	22a00 <__alt_mem_SDRAM_controller+0xfc022a00>
   22cd4:	da00a617 	ldw	r8,664(sp)
   22cd8:	008000c4 	movi	r2,3
   22cdc:	40bfad1e 	bne	r8,r2,22b94 <__alt_mem_SDRAM_controller+0xfc022b94>
   22ce0:	0440bc0e 	bge	zero,r17,22fd4 <__kernel_rem_pio2+0xcec>
   22ce4:	da008e17 	ldw	r8,568(sp)
   22ce8:	882090fa 	slli	r16,r17,3
   22cec:	dd402804 	addi	r21,sp,160
   22cf0:	da05883a 	add	r2,sp,r8
   22cf4:	10802804 	addi	r2,r2,160
   22cf8:	15c00017 	ldw	r23,0(r2)
   22cfc:	15800117 	ldw	r22,4(r2)
   22d00:	8029883a 	mov	r20,r16
   22d04:	843ffe04 	addi	r16,r16,-8
   22d08:	ac21883a 	add	r16,r21,r16
   22d0c:	ad29883a 	add	r20,r21,r20
   22d10:	dac02604 	addi	r11,sp,152
   22d14:	8811883a 	mov	r8,r17
   22d18:	84400017 	ldw	r17,0(r16)
   22d1c:	87000117 	ldw	fp,4(r16)
   22d20:	b80d883a 	mov	r6,r23
   22d24:	b00f883a 	mov	r7,r22
   22d28:	8809883a 	mov	r4,r17
   22d2c:	e00b883a 	mov	r5,fp
   22d30:	da009b15 	stw	r8,620(sp)
   22d34:	dac09915 	stw	r11,612(sp)
   22d38:	0024ea00 	call	24ea0 <__adddf3>
   22d3c:	100d883a 	mov	r6,r2
   22d40:	180f883a 	mov	r7,r3
   22d44:	8809883a 	mov	r4,r17
   22d48:	e00b883a 	mov	r5,fp
   22d4c:	1027883a 	mov	r19,r2
   22d50:	1825883a 	mov	r18,r3
   22d54:	00269a40 	call	269a4 <__subdf3>
   22d58:	b80d883a 	mov	r6,r23
   22d5c:	b00f883a 	mov	r7,r22
   22d60:	1009883a 	mov	r4,r2
   22d64:	180b883a 	mov	r5,r3
   22d68:	0024ea00 	call	24ea0 <__adddf3>
   22d6c:	dac09917 	ldw	r11,612(sp)
   22d70:	a0800015 	stw	r2,0(r20)
   22d74:	a0c00115 	stw	r3,4(r20)
   22d78:	84c00015 	stw	r19,0(r16)
   22d7c:	84800115 	stw	r18,4(r16)
   22d80:	843ffe04 	addi	r16,r16,-8
   22d84:	a53ffe04 	addi	r20,r20,-8
   22d88:	982f883a 	mov	r23,r19
   22d8c:	902d883a 	mov	r22,r18
   22d90:	da009b17 	ldw	r8,620(sp)
   22d94:	5c3fe01e 	bne	r11,r16,22d18 <__alt_mem_SDRAM_controller+0xfc022d18>
   22d98:	00800044 	movi	r2,1
   22d9c:	12008d0e 	bge	r2,r8,22fd4 <__kernel_rem_pio2+0xcec>
   22da0:	402090fa 	slli	r16,r8,3
   22da4:	da008e17 	ldw	r8,568(sp)
   22da8:	8023883a 	mov	r17,r16
   22dac:	da05883a 	add	r2,sp,r8
   22db0:	10802804 	addi	r2,r2,160
   22db4:	15800017 	ldw	r22,0(r2)
   22db8:	15000117 	ldw	r20,4(r2)
   22dbc:	ac63883a 	add	r17,r21,r17
   22dc0:	843ffe04 	addi	r16,r16,-8
   22dc4:	ac21883a 	add	r16,r21,r16
   22dc8:	8825883a 	mov	r18,r17
   22dcc:	8811883a 	mov	r8,r17
   22dd0:	84400017 	ldw	r17,0(r16)
   22dd4:	87000117 	ldw	fp,4(r16)
   22dd8:	b009883a 	mov	r4,r22
   22ddc:	a00b883a 	mov	r5,r20
   22de0:	880d883a 	mov	r6,r17
   22de4:	e00f883a 	mov	r7,fp
   22de8:	da009b15 	stw	r8,620(sp)
   22dec:	0024ea00 	call	24ea0 <__adddf3>
   22df0:	100d883a 	mov	r6,r2
   22df4:	180f883a 	mov	r7,r3
   22df8:	8809883a 	mov	r4,r17
   22dfc:	e00b883a 	mov	r5,fp
   22e00:	102f883a 	mov	r23,r2
   22e04:	1827883a 	mov	r19,r3
   22e08:	00269a40 	call	269a4 <__subdf3>
   22e0c:	b00d883a 	mov	r6,r22
   22e10:	a00f883a 	mov	r7,r20
   22e14:	1009883a 	mov	r4,r2
   22e18:	180b883a 	mov	r5,r3
   22e1c:	0024ea00 	call	24ea0 <__adddf3>
   22e20:	90800015 	stw	r2,0(r18)
   22e24:	90c00115 	stw	r3,4(r18)
   22e28:	85c00015 	stw	r23,0(r16)
   22e2c:	84c00115 	stw	r19,4(r16)
   22e30:	843ffe04 	addi	r16,r16,-8
   22e34:	94bffe04 	addi	r18,r18,-8
   22e38:	b82d883a 	mov	r22,r23
   22e3c:	9829883a 	mov	r20,r19
   22e40:	da009b17 	ldw	r8,620(sp)
   22e44:	ac3fe21e 	bne	r21,r16,22dd0 <__alt_mem_SDRAM_controller+0xfc022dd0>
   22e48:	4023883a 	mov	r17,r8
   22e4c:	dc002a04 	addi	r16,sp,168
   22e50:	0005883a 	mov	r2,zero
   22e54:	0007883a 	mov	r3,zero
   22e58:	89800017 	ldw	r6,0(r17)
   22e5c:	89c00117 	ldw	r7,4(r17)
   22e60:	1009883a 	mov	r4,r2
   22e64:	8c7ffe04 	addi	r17,r17,-8
   22e68:	180b883a 	mov	r5,r3
   22e6c:	0024ea00 	call	24ea0 <__adddf3>
   22e70:	847ff91e 	bne	r16,r17,22e58 <__alt_mem_SDRAM_controller+0xfc022e58>
   22e74:	da008d17 	ldw	r8,564(sp)
   22e78:	40004726 	beq	r8,zero,22f98 <__kernel_rem_pio2+0xcb0>
   22e7c:	d9002b17 	ldw	r4,172(sp)
   22e80:	d9402917 	ldw	r5,164(sp)
   22e84:	d9802a17 	ldw	r6,168(sp)
   22e88:	da008f17 	ldw	r8,572(sp)
   22e8c:	d9c02817 	ldw	r7,160(sp)
   22e90:	2960003c 	xorhi	r5,r5,32768
   22e94:	2120003c 	xorhi	r4,r4,32768
   22e98:	18e0003c 	xorhi	r3,r3,32768
   22e9c:	41c00015 	stw	r7,0(r8)
   22ea0:	41400115 	stw	r5,4(r8)
   22ea4:	41800215 	stw	r6,8(r8)
   22ea8:	41000315 	stw	r4,12(r8)
   22eac:	40800415 	stw	r2,16(r8)
   22eb0:	40c00515 	stw	r3,20(r8)
   22eb4:	003f3706 	br	22b94 <__alt_mem_SDRAM_controller+0xfc022b94>
   22eb8:	da008e17 	ldw	r8,568(sp)
   22ebc:	d8802804 	addi	r2,sp,160
   22ec0:	dc002604 	addi	r16,sp,152
   22ec4:	1225883a 	add	r18,r2,r8
   22ec8:	0007883a 	mov	r3,zero
   22ecc:	0005883a 	mov	r2,zero
   22ed0:	91800017 	ldw	r6,0(r18)
   22ed4:	91c00117 	ldw	r7,4(r18)
   22ed8:	1009883a 	mov	r4,r2
   22edc:	94bffe04 	addi	r18,r18,-8
   22ee0:	180b883a 	mov	r5,r3
   22ee4:	0024ea00 	call	24ea0 <__adddf3>
   22ee8:	943ff91e 	bne	r18,r16,22ed0 <__alt_mem_SDRAM_controller+0xfc022ed0>
   22eec:	da008d17 	ldw	r8,564(sp)
   22ef0:	d9002817 	ldw	r4,160(sp)
   22ef4:	d9402917 	ldw	r5,164(sp)
   22ef8:	40001a26 	beq	r8,zero,22f64 <__kernel_rem_pio2+0xc7c>
   22efc:	da008f17 	ldw	r8,572(sp)
   22f00:	19a0003c 	xorhi	r6,r3,32768
   22f04:	180f883a 	mov	r7,r3
   22f08:	41800115 	stw	r6,4(r8)
   22f0c:	40800015 	stw	r2,0(r8)
   22f10:	100d883a 	mov	r6,r2
   22f14:	00269a40 	call	269a4 <__subdf3>
   22f18:	04400c0e 	bge	zero,r17,22f4c <__kernel_rem_pio2+0xc64>
   22f1c:	dc002a04 	addi	r16,sp,168
   22f20:	04800044 	movi	r18,1
   22f24:	81800017 	ldw	r6,0(r16)
   22f28:	81c00117 	ldw	r7,4(r16)
   22f2c:	1009883a 	mov	r4,r2
   22f30:	180b883a 	mov	r5,r3
   22f34:	94800044 	addi	r18,r18,1
   22f38:	0024ea00 	call	24ea0 <__adddf3>
   22f3c:	84000204 	addi	r16,r16,8
   22f40:	8cbff80e 	bge	r17,r18,22f24 <__alt_mem_SDRAM_controller+0xfc022f24>
   22f44:	da008d17 	ldw	r8,564(sp)
   22f48:	40004226 	beq	r8,zero,23054 <__kernel_rem_pio2+0xd6c>
   22f4c:	da008f17 	ldw	r8,572(sp)
   22f50:	1009883a 	mov	r4,r2
   22f54:	18a0003c 	xorhi	r2,r3,32768
   22f58:	41000215 	stw	r4,8(r8)
   22f5c:	40800315 	stw	r2,12(r8)
   22f60:	003f0c06 	br	22b94 <__alt_mem_SDRAM_controller+0xfc022b94>
   22f64:	da008f17 	ldw	r8,572(sp)
   22f68:	100d883a 	mov	r6,r2
   22f6c:	180f883a 	mov	r7,r3
   22f70:	40800015 	stw	r2,0(r8)
   22f74:	40c00115 	stw	r3,4(r8)
   22f78:	00269a40 	call	269a4 <__subdf3>
   22f7c:	047fe716 	blt	zero,r17,22f1c <__alt_mem_SDRAM_controller+0xfc022f1c>
   22f80:	da008f17 	ldw	r8,572(sp)
   22f84:	1009883a 	mov	r4,r2
   22f88:	1805883a 	mov	r2,r3
   22f8c:	41000215 	stw	r4,8(r8)
   22f90:	40800315 	stw	r2,12(r8)
   22f94:	003eff06 	br	22b94 <__alt_mem_SDRAM_controller+0xfc022b94>
   22f98:	da008f17 	ldw	r8,572(sp)
   22f9c:	d9802817 	ldw	r6,160(sp)
   22fa0:	d9402a17 	ldw	r5,168(sp)
   22fa4:	d9002b17 	ldw	r4,172(sp)
   22fa8:	41800015 	stw	r6,0(r8)
   22fac:	d9802917 	ldw	r6,164(sp)
   22fb0:	41400215 	stw	r5,8(r8)
   22fb4:	41000315 	stw	r4,12(r8)
   22fb8:	41800115 	stw	r6,4(r8)
   22fbc:	40800415 	stw	r2,16(r8)
   22fc0:	40c00515 	stw	r3,20(r8)
   22fc4:	003ef306 	br	22b94 <__alt_mem_SDRAM_controller+0xfc022b94>
   22fc8:	da00a617 	ldw	r8,664(sp)
   22fcc:	008000c4 	movi	r2,3
   22fd0:	40bef01e 	bne	r8,r2,22b94 <__alt_mem_SDRAM_controller+0xfc022b94>
   22fd4:	0005883a 	mov	r2,zero
   22fd8:	0007883a 	mov	r3,zero
   22fdc:	003fa506 	br	22e74 <__alt_mem_SDRAM_controller+0xfc022e74>
   22fe0:	9485883a 	add	r2,r18,r18
   22fe4:	1085883a 	add	r2,r2,r2
   22fe8:	d8a1883a 	add	r16,sp,r2
   22fec:	880b883a 	mov	r5,r17
   22ff0:	a809883a 	mov	r4,r21
   22ff4:	84007804 	addi	r16,r16,480
   22ff8:	00272a00 	call	272a0 <__fixdfsi>
   22ffc:	80800015 	stw	r2,0(r16)
   23000:	9023883a 	mov	r17,r18
   23004:	003e7e06 	br	22a00 <__alt_mem_SDRAM_controller+0xfc022a00>
   23008:	a80d883a 	mov	r6,r21
   2300c:	400f883a 	mov	r7,r8
   23010:	0009883a 	mov	r4,zero
   23014:	014ffc34 	movhi	r5,16368
   23018:	00269a40 	call	269a4 <__subdf3>
   2301c:	102b883a 	mov	r21,r2
   23020:	1811883a 	mov	r8,r3
   23024:	04c00084 	movi	r19,2
   23028:	003dc006 	br	2272c <__alt_mem_SDRAM_controller+0xfc02272c>
   2302c:	da00a617 	ldw	r8,664(sp)
   23030:	00800084 	movi	r2,2
   23034:	123fe416 	blt	r2,r8,22fc8 <__alt_mem_SDRAM_controller+0xfc022fc8>
   23038:	02000c16 	blt	zero,r8,2306c <__kernel_rem_pio2+0xd84>
   2303c:	403ed51e 	bne	r8,zero,22b94 <__alt_mem_SDRAM_controller+0xfc022b94>
   23040:	0005883a 	mov	r2,zero
   23044:	0007883a 	mov	r3,zero
   23048:	003ecc06 	br	22b7c <__alt_mem_SDRAM_controller+0xfc022b7c>
   2304c:	d8009215 	stw	zero,584(sp)
   23050:	003cc306 	br	22360 <__alt_mem_SDRAM_controller+0xfc022360>
   23054:	da008f17 	ldw	r8,572(sp)
   23058:	1009883a 	mov	r4,r2
   2305c:	1805883a 	mov	r2,r3
   23060:	41000215 	stw	r4,8(r8)
   23064:	40800315 	stw	r2,12(r8)
   23068:	003eca06 	br	22b94 <__alt_mem_SDRAM_controller+0xfc022b94>
   2306c:	0005883a 	mov	r2,zero
   23070:	0007883a 	mov	r3,zero
   23074:	003f9d06 	br	22eec <__alt_mem_SDRAM_controller+0xfc022eec>

00023078 <__kernel_sin>:
   23078:	00a00034 	movhi	r2,32768
   2307c:	defff404 	addi	sp,sp,-48
   23080:	10bfffc4 	addi	r2,r2,-1
   23084:	00cf9034 	movhi	r3,15936
   23088:	ddc00915 	stw	r23,36(sp)
   2308c:	dd800815 	stw	r22,32(sp)
   23090:	dc400315 	stw	r17,12(sp)
   23094:	dc000215 	stw	r16,8(sp)
   23098:	dfc00b15 	stw	ra,44(sp)
   2309c:	df000a15 	stw	fp,40(sp)
   230a0:	dd400715 	stw	r21,28(sp)
   230a4:	dd000615 	stw	r20,24(sp)
   230a8:	dcc00515 	stw	r19,20(sp)
   230ac:	dc800415 	stw	r18,16(sp)
   230b0:	2884703a 	and	r2,r5,r2
   230b4:	18ffffc4 	addi	r3,r3,-1
   230b8:	2821883a 	mov	r16,r5
   230bc:	2023883a 	mov	r17,r4
   230c0:	302f883a 	mov	r23,r6
   230c4:	382d883a 	mov	r22,r7
   230c8:	18800216 	blt	r3,r2,230d4 <__kernel_sin+0x5c>
   230cc:	00272a00 	call	272a0 <__fixdfsi>
   230d0:	10009926 	beq	r2,zero,23338 <__kernel_sin+0x2c0>
   230d4:	880d883a 	mov	r6,r17
   230d8:	800f883a 	mov	r7,r16
   230dc:	8809883a 	mov	r4,r17
   230e0:	800b883a 	mov	r5,r16
   230e4:	002628c0 	call	2628c <__muldf3>
   230e8:	100d883a 	mov	r6,r2
   230ec:	180f883a 	mov	r7,r3
   230f0:	8809883a 	mov	r4,r17
   230f4:	800b883a 	mov	r5,r16
   230f8:	1027883a 	mov	r19,r2
   230fc:	1825883a 	mov	r18,r3
   23100:	002628c0 	call	2628c <__muldf3>
   23104:	0196b434 	movhi	r6,23248
   23108:	01cf79b4 	movhi	r7,15846
   2310c:	31b55f04 	addi	r6,r6,-10884
   23110:	39f64e84 	addi	r7,r7,-9926
   23114:	9809883a 	mov	r4,r19
   23118:	900b883a 	mov	r5,r18
   2311c:	102b883a 	mov	r21,r2
   23120:	1829883a 	mov	r20,r3
   23124:	002628c0 	call	2628c <__muldf3>
   23128:	01a28b34 	movhi	r6,35372
   2312c:	01cf96f4 	movhi	r7,15963
   23130:	31a73ac4 	addi	r6,r6,-25365
   23134:	39f97984 	addi	r7,r7,-6682
   23138:	1009883a 	mov	r4,r2
   2313c:	180b883a 	mov	r5,r3
   23140:	00269a40 	call	269a4 <__subdf3>
   23144:	980d883a 	mov	r6,r19
   23148:	900f883a 	mov	r7,r18
   2314c:	1009883a 	mov	r4,r2
   23150:	180b883a 	mov	r5,r3
   23154:	002628c0 	call	2628c <__muldf3>
   23158:	0195ecb4 	movhi	r6,22450
   2315c:	01cfb1f4 	movhi	r7,16071
   23160:	31bf9f44 	addi	r6,r6,-387
   23164:	39c778c4 	addi	r7,r7,7651
   23168:	1009883a 	mov	r4,r2
   2316c:	180b883a 	mov	r5,r3
   23170:	0024ea00 	call	24ea0 <__adddf3>
   23174:	980d883a 	mov	r6,r19
   23178:	900f883a 	mov	r7,r18
   2317c:	1009883a 	mov	r4,r2
   23180:	180b883a 	mov	r5,r3
   23184:	002628c0 	call	2628c <__muldf3>
   23188:	01867074 	movhi	r6,6593
   2318c:	01cfcab4 	movhi	r7,16170
   23190:	31987544 	addi	r6,r6,25045
   23194:	39c06804 	addi	r7,r7,416
   23198:	1009883a 	mov	r4,r2
   2319c:	180b883a 	mov	r5,r3
   231a0:	00269a40 	call	269a4 <__subdf3>
   231a4:	980d883a 	mov	r6,r19
   231a8:	900f883a 	mov	r7,r18
   231ac:	1009883a 	mov	r4,r2
   231b0:	180b883a 	mov	r5,r3
   231b4:	002628c0 	call	2628c <__muldf3>
   231b8:	01844474 	movhi	r6,4369
   231bc:	01cfe074 	movhi	r7,16257
   231c0:	31be2984 	addi	r6,r6,-1882
   231c4:	39c44444 	addi	r7,r7,4369
   231c8:	1009883a 	mov	r4,r2
   231cc:	180b883a 	mov	r5,r3
   231d0:	0024ea00 	call	24ea0 <__adddf3>
   231d4:	1011883a 	mov	r8,r2
   231d8:	d8800c17 	ldw	r2,48(sp)
   231dc:	1839883a 	mov	fp,r3
   231e0:	10003e26 	beq	r2,zero,232dc <__kernel_sin+0x264>
   231e4:	000d883a 	mov	r6,zero
   231e8:	01cff834 	movhi	r7,16352
   231ec:	b809883a 	mov	r4,r23
   231f0:	b00b883a 	mov	r5,r22
   231f4:	da000015 	stw	r8,0(sp)
   231f8:	002628c0 	call	2628c <__muldf3>
   231fc:	da000017 	ldw	r8,0(sp)
   23200:	e00f883a 	mov	r7,fp
   23204:	a809883a 	mov	r4,r21
   23208:	400d883a 	mov	r6,r8
   2320c:	a00b883a 	mov	r5,r20
   23210:	d8c00115 	stw	r3,4(sp)
   23214:	d8800015 	stw	r2,0(sp)
   23218:	002628c0 	call	2628c <__muldf3>
   2321c:	da800017 	ldw	r10,0(sp)
   23220:	da400117 	ldw	r9,4(sp)
   23224:	100d883a 	mov	r6,r2
   23228:	5009883a 	mov	r4,r10
   2322c:	480b883a 	mov	r5,r9
   23230:	180f883a 	mov	r7,r3
   23234:	00269a40 	call	269a4 <__subdf3>
   23238:	980d883a 	mov	r6,r19
   2323c:	900f883a 	mov	r7,r18
   23240:	1009883a 	mov	r4,r2
   23244:	180b883a 	mov	r5,r3
   23248:	002628c0 	call	2628c <__muldf3>
   2324c:	b80d883a 	mov	r6,r23
   23250:	b00f883a 	mov	r7,r22
   23254:	1009883a 	mov	r4,r2
   23258:	180b883a 	mov	r5,r3
   2325c:	00269a40 	call	269a4 <__subdf3>
   23260:	01955574 	movhi	r6,21845
   23264:	01cff174 	movhi	r7,16325
   23268:	31955244 	addi	r6,r6,21833
   2326c:	39d55544 	addi	r7,r7,21845
   23270:	a809883a 	mov	r4,r21
   23274:	a00b883a 	mov	r5,r20
   23278:	1027883a 	mov	r19,r2
   2327c:	1825883a 	mov	r18,r3
   23280:	002628c0 	call	2628c <__muldf3>
   23284:	100d883a 	mov	r6,r2
   23288:	180f883a 	mov	r7,r3
   2328c:	9809883a 	mov	r4,r19
   23290:	900b883a 	mov	r5,r18
   23294:	0024ea00 	call	24ea0 <__adddf3>
   23298:	100d883a 	mov	r6,r2
   2329c:	180f883a 	mov	r7,r3
   232a0:	8809883a 	mov	r4,r17
   232a4:	800b883a 	mov	r5,r16
   232a8:	00269a40 	call	269a4 <__subdf3>
   232ac:	dfc00b17 	ldw	ra,44(sp)
   232b0:	df000a17 	ldw	fp,40(sp)
   232b4:	ddc00917 	ldw	r23,36(sp)
   232b8:	dd800817 	ldw	r22,32(sp)
   232bc:	dd400717 	ldw	r21,28(sp)
   232c0:	dd000617 	ldw	r20,24(sp)
   232c4:	dcc00517 	ldw	r19,20(sp)
   232c8:	dc800417 	ldw	r18,16(sp)
   232cc:	dc400317 	ldw	r17,12(sp)
   232d0:	dc000217 	ldw	r16,8(sp)
   232d4:	dec00c04 	addi	sp,sp,48
   232d8:	f800283a 	ret
   232dc:	400d883a 	mov	r6,r8
   232e0:	9809883a 	mov	r4,r19
   232e4:	900b883a 	mov	r5,r18
   232e8:	180f883a 	mov	r7,r3
   232ec:	002628c0 	call	2628c <__muldf3>
   232f0:	01955574 	movhi	r6,21845
   232f4:	01cff174 	movhi	r7,16325
   232f8:	31955244 	addi	r6,r6,21833
   232fc:	39d55544 	addi	r7,r7,21845
   23300:	1009883a 	mov	r4,r2
   23304:	180b883a 	mov	r5,r3
   23308:	00269a40 	call	269a4 <__subdf3>
   2330c:	a80d883a 	mov	r6,r21
   23310:	a00f883a 	mov	r7,r20
   23314:	1009883a 	mov	r4,r2
   23318:	180b883a 	mov	r5,r3
   2331c:	002628c0 	call	2628c <__muldf3>
   23320:	880d883a 	mov	r6,r17
   23324:	800f883a 	mov	r7,r16
   23328:	1009883a 	mov	r4,r2
   2332c:	180b883a 	mov	r5,r3
   23330:	0024ea00 	call	24ea0 <__adddf3>
   23334:	003fdd06 	br	232ac <__alt_mem_SDRAM_controller+0xfc0232ac>
   23338:	8805883a 	mov	r2,r17
   2333c:	8007883a 	mov	r3,r16
   23340:	003fda06 	br	232ac <__alt_mem_SDRAM_controller+0xfc0232ac>

00023344 <fabs>:
   23344:	00e00034 	movhi	r3,32768
   23348:	18ffffc4 	addi	r3,r3,-1
   2334c:	2005883a 	mov	r2,r4
   23350:	28c6703a 	and	r3,r5,r3
   23354:	f800283a 	ret

00023358 <floor>:
   23358:	2811d53a 	srai	r8,r5,20
   2335c:	defffa04 	addi	sp,sp,-24
   23360:	dcc00315 	stw	r19,12(sp)
   23364:	4201ffcc 	andi	r8,r8,2047
   23368:	dc800215 	stw	r18,8(sp)
   2336c:	dc400115 	stw	r17,4(sp)
   23370:	dc000015 	stw	r16,0(sp)
   23374:	dfc00515 	stw	ra,20(sp)
   23378:	dd000415 	stw	r20,16(sp)
   2337c:	44bf0044 	addi	r18,r8,-1023
   23380:	018004c4 	movi	r6,19
   23384:	2821883a 	mov	r16,r5
   23388:	2005883a 	mov	r2,r4
   2338c:	280f883a 	mov	r7,r5
   23390:	2827883a 	mov	r19,r5
   23394:	2023883a 	mov	r17,r4
   23398:	34801916 	blt	r6,r18,23400 <floor+0xa8>
   2339c:	90003c16 	blt	r18,zero,23490 <floor+0x138>
   233a0:	05000434 	movhi	r20,16
   233a4:	a53fffc4 	addi	r20,r20,-1
   233a8:	a4a9d83a 	sra	r20,r20,r18
   233ac:	2d0c703a 	and	r6,r5,r20
   233b0:	310cb03a 	or	r6,r6,r4
   233b4:	30001626 	beq	r6,zero,23410 <floor+0xb8>
   233b8:	01a20034 	movhi	r6,34816
   233bc:	01df8e34 	movhi	r7,32312
   233c0:	319d6704 	addi	r6,r6,30108
   233c4:	39f90f04 	addi	r7,r7,-7108
   233c8:	0024ea00 	call	24ea0 <__adddf3>
   233cc:	000d883a 	mov	r6,zero
   233d0:	000f883a 	mov	r7,zero
   233d4:	1009883a 	mov	r4,r2
   233d8:	180b883a 	mov	r5,r3
   233dc:	00260bc0 	call	260bc <__gedf2>
   233e0:	0080040e 	bge	zero,r2,233f4 <floor+0x9c>
   233e4:	80003c16 	blt	r16,zero,234d8 <floor+0x180>
   233e8:	0520303a 	nor	r16,zero,r20
   233ec:	84e0703a 	and	r16,r16,r19
   233f0:	0023883a 	mov	r17,zero
   233f4:	8805883a 	mov	r2,r17
   233f8:	8007883a 	mov	r3,r16
   233fc:	00000506 	br	23414 <floor+0xbc>
   23400:	01800cc4 	movi	r6,51
   23404:	34800b0e 	bge	r6,r18,23434 <floor+0xdc>
   23408:	01810004 	movi	r6,1024
   2340c:	91802f26 	beq	r18,r6,234cc <floor+0x174>
   23410:	3807883a 	mov	r3,r7
   23414:	dfc00517 	ldw	ra,20(sp)
   23418:	dd000417 	ldw	r20,16(sp)
   2341c:	dcc00317 	ldw	r19,12(sp)
   23420:	dc800217 	ldw	r18,8(sp)
   23424:	dc400117 	ldw	r17,4(sp)
   23428:	dc000017 	ldw	r16,0(sp)
   2342c:	dec00604 	addi	sp,sp,24
   23430:	f800283a 	ret
   23434:	423efb44 	addi	r8,r8,-1043
   23438:	053fffc4 	movi	r20,-1
   2343c:	a228d83a 	srl	r20,r20,r8
   23440:	250c703a 	and	r6,r4,r20
   23444:	303ff226 	beq	r6,zero,23410 <__alt_mem_SDRAM_controller+0xfc023410>
   23448:	01a20034 	movhi	r6,34816
   2344c:	01df8e34 	movhi	r7,32312
   23450:	319d6704 	addi	r6,r6,30108
   23454:	39f90f04 	addi	r7,r7,-7108
   23458:	0024ea00 	call	24ea0 <__adddf3>
   2345c:	000d883a 	mov	r6,zero
   23460:	000f883a 	mov	r7,zero
   23464:	1009883a 	mov	r4,r2
   23468:	180b883a 	mov	r5,r3
   2346c:	00260bc0 	call	260bc <__gedf2>
   23470:	00bfe00e 	bge	zero,r2,233f4 <__alt_mem_SDRAM_controller+0xfc0233f4>
   23474:	80001c16 	blt	r16,zero,234e8 <floor+0x190>
   23478:	0510303a 	nor	r8,zero,r20
   2347c:	9821883a 	mov	r16,r19
   23480:	8a22703a 	and	r17,r17,r8
   23484:	8805883a 	mov	r2,r17
   23488:	8007883a 	mov	r3,r16
   2348c:	003fe106 	br	23414 <__alt_mem_SDRAM_controller+0xfc023414>
   23490:	01a20034 	movhi	r6,34816
   23494:	01df8e34 	movhi	r7,32312
   23498:	319d6704 	addi	r6,r6,30108
   2349c:	39f90f04 	addi	r7,r7,-7108
   234a0:	0024ea00 	call	24ea0 <__adddf3>
   234a4:	000d883a 	mov	r6,zero
   234a8:	000f883a 	mov	r7,zero
   234ac:	1009883a 	mov	r4,r2
   234b0:	180b883a 	mov	r5,r3
   234b4:	00260bc0 	call	260bc <__gedf2>
   234b8:	00bfce0e 	bge	zero,r2,233f4 <__alt_mem_SDRAM_controller+0xfc0233f4>
   234bc:	80001516 	blt	r16,zero,23514 <floor+0x1bc>
   234c0:	0023883a 	mov	r17,zero
   234c4:	0021883a 	mov	r16,zero
   234c8:	003fca06 	br	233f4 <__alt_mem_SDRAM_controller+0xfc0233f4>
   234cc:	200d883a 	mov	r6,r4
   234d0:	0024ea00 	call	24ea0 <__adddf3>
   234d4:	003fcf06 	br	23414 <__alt_mem_SDRAM_controller+0xfc023414>
   234d8:	00800434 	movhi	r2,16
   234dc:	14a5d83a 	sra	r18,r2,r18
   234e0:	84a7883a 	add	r19,r16,r18
   234e4:	003fc006 	br	233e8 <__alt_mem_SDRAM_controller+0xfc0233e8>
   234e8:	00800504 	movi	r2,20
   234ec:	90801326 	beq	r18,r2,2353c <floor+0x1e4>
   234f0:	00800d04 	movi	r2,52
   234f4:	14a5c83a 	sub	r18,r2,r18
   234f8:	00800044 	movi	r2,1
   234fc:	1484983a 	sll	r2,r2,r18
   23500:	1445883a 	add	r2,r2,r17
   23504:	14400b2e 	bgeu	r2,r17,23534 <floor+0x1dc>
   23508:	84c00044 	addi	r19,r16,1
   2350c:	1023883a 	mov	r17,r2
   23510:	003fd906 	br	23478 <__alt_mem_SDRAM_controller+0xfc023478>
   23514:	00a00034 	movhi	r2,32768
   23518:	10bfffc4 	addi	r2,r2,-1
   2351c:	8084703a 	and	r2,r16,r2
   23520:	1462b03a 	or	r17,r2,r17
   23524:	883fb326 	beq	r17,zero,233f4 <__alt_mem_SDRAM_controller+0xfc0233f4>
   23528:	0023883a 	mov	r17,zero
   2352c:	042ffc34 	movhi	r16,49136
   23530:	003fb006 	br	233f4 <__alt_mem_SDRAM_controller+0xfc0233f4>
   23534:	1023883a 	mov	r17,r2
   23538:	003fcf06 	br	23478 <__alt_mem_SDRAM_controller+0xfc023478>
   2353c:	84c00044 	addi	r19,r16,1
   23540:	003fcd06 	br	23478 <__alt_mem_SDRAM_controller+0xfc023478>

00023544 <__fpclassifyd>:
   23544:	00a00034 	movhi	r2,32768
   23548:	10bfffc4 	addi	r2,r2,-1
   2354c:	2884703a 	and	r2,r5,r2
   23550:	10000726 	beq	r2,zero,23570 <__fpclassifyd+0x2c>
   23554:	00fffc34 	movhi	r3,65520
   23558:	019ff834 	movhi	r6,32736
   2355c:	28c7883a 	add	r3,r5,r3
   23560:	31bfffc4 	addi	r6,r6,-1
   23564:	30c00536 	bltu	r6,r3,2357c <__fpclassifyd+0x38>
   23568:	00800104 	movi	r2,4
   2356c:	f800283a 	ret
   23570:	2000021e 	bne	r4,zero,2357c <__fpclassifyd+0x38>
   23574:	00800084 	movi	r2,2
   23578:	f800283a 	ret
   2357c:	00dffc34 	movhi	r3,32752
   23580:	019ff834 	movhi	r6,32736
   23584:	28cb883a 	add	r5,r5,r3
   23588:	31bfffc4 	addi	r6,r6,-1
   2358c:	317ff62e 	bgeu	r6,r5,23568 <__alt_mem_SDRAM_controller+0xfc023568>
   23590:	01400434 	movhi	r5,16
   23594:	297fffc4 	addi	r5,r5,-1
   23598:	28800236 	bltu	r5,r2,235a4 <__fpclassifyd+0x60>
   2359c:	008000c4 	movi	r2,3
   235a0:	f800283a 	ret
   235a4:	10c00226 	beq	r2,r3,235b0 <__fpclassifyd+0x6c>
   235a8:	0005883a 	mov	r2,zero
   235ac:	f800283a 	ret
   235b0:	2005003a 	cmpeq	r2,r4,zero
   235b4:	f800283a 	ret

000235b8 <matherr>:
   235b8:	0005883a 	mov	r2,zero
   235bc:	f800283a 	ret

000235c0 <scalbn>:
   235c0:	2a1ffc2c 	andhi	r8,r5,32752
   235c4:	4011d53a 	srai	r8,r8,20
   235c8:	defffe04 	addi	sp,sp,-8
   235cc:	dc000015 	stw	r16,0(sp)
   235d0:	dfc00115 	stw	ra,4(sp)
   235d4:	280f883a 	mov	r7,r5
   235d8:	2015883a 	mov	r10,r4
   235dc:	3021883a 	mov	r16,r6
   235e0:	40001e1e 	bne	r8,zero,2365c <scalbn+0x9c>
   235e4:	00a00034 	movhi	r2,32768
   235e8:	10bfffc4 	addi	r2,r2,-1
   235ec:	2884703a 	and	r2,r5,r2
   235f0:	1104b03a 	or	r2,r2,r4
   235f4:	10002226 	beq	r2,zero,23680 <scalbn+0xc0>
   235f8:	01d0d434 	movhi	r7,17232
   235fc:	000d883a 	mov	r6,zero
   23600:	002628c0 	call	2628c <__muldf3>
   23604:	013ffff4 	movhi	r4,65535
   23608:	210f2c04 	addi	r4,r4,15536
   2360c:	1015883a 	mov	r10,r2
   23610:	180f883a 	mov	r7,r3
   23614:	81002a16 	blt	r16,r4,236c0 <scalbn+0x100>
   23618:	191ffc2c 	andhi	r4,r3,32752
   2361c:	2009d53a 	srai	r4,r4,20
   23620:	223ff284 	addi	r8,r4,-54
   23624:	8211883a 	add	r8,r16,r8
   23628:	0081ff84 	movi	r2,2046
   2362c:	12002f16 	blt	r2,r8,236ec <scalbn+0x12c>
   23630:	0200190e 	bge	zero,r8,23698 <scalbn+0xd8>
   23634:	4010953a 	slli	r8,r8,20
   23638:	01600434 	movhi	r5,32784
   2363c:	297fffc4 	addi	r5,r5,-1
   23640:	194e703a 	and	r7,r3,r5
   23644:	5005883a 	mov	r2,r10
   23648:	3a06b03a 	or	r3,r7,r8
   2364c:	dfc00117 	ldw	ra,4(sp)
   23650:	dc000017 	ldw	r16,0(sp)
   23654:	dec00204 	addi	sp,sp,8
   23658:	f800283a 	ret
   2365c:	0081ffc4 	movi	r2,2047
   23660:	2807883a 	mov	r3,r5
   23664:	40bfef1e 	bne	r8,r2,23624 <__alt_mem_SDRAM_controller+0xfc023624>
   23668:	200d883a 	mov	r6,r4
   2366c:	0024ea00 	call	24ea0 <__adddf3>
   23670:	dfc00117 	ldw	ra,4(sp)
   23674:	dc000017 	ldw	r16,0(sp)
   23678:	dec00204 	addi	sp,sp,8
   2367c:	f800283a 	ret
   23680:	2005883a 	mov	r2,r4
   23684:	2807883a 	mov	r3,r5
   23688:	dfc00117 	ldw	ra,4(sp)
   2368c:	dc000017 	ldw	r16,0(sp)
   23690:	dec00204 	addi	sp,sp,8
   23694:	f800283a 	ret
   23698:	00bff2c4 	movi	r2,-53
   2369c:	4080240e 	bge	r8,r2,23730 <scalbn+0x170>
   236a0:	00b0d414 	movui	r2,50000
   236a4:	14001116 	blt	r2,r16,236ec <scalbn+0x12c>
   236a8:	0130be74 	movhi	r4,49913
   236ac:	01406974 	movhi	r5,421
   236b0:	213cd644 	addi	r4,r4,-3239
   236b4:	295b87c4 	addi	r5,r5,28191
   236b8:	500d883a 	mov	r6,r10
   236bc:	002375c0 	call	2375c <copysign>
   236c0:	01b0be74 	movhi	r6,49913
   236c4:	01c06974 	movhi	r7,421
   236c8:	31bcd644 	addi	r6,r6,-3239
   236cc:	39db87c4 	addi	r7,r7,28191
   236d0:	1009883a 	mov	r4,r2
   236d4:	180b883a 	mov	r5,r3
   236d8:	002628c0 	call	2628c <__muldf3>
   236dc:	dfc00117 	ldw	ra,4(sp)
   236e0:	dc000017 	ldw	r16,0(sp)
   236e4:	dec00204 	addi	sp,sp,8
   236e8:	f800283a 	ret
   236ec:	01220034 	movhi	r4,34816
   236f0:	015f8e34 	movhi	r5,32312
   236f4:	500d883a 	mov	r6,r10
   236f8:	211d6704 	addi	r4,r4,30108
   236fc:	29790f04 	addi	r5,r5,-7108
   23700:	002375c0 	call	2375c <copysign>
   23704:	01a20034 	movhi	r6,34816
   23708:	01df8e34 	movhi	r7,32312
   2370c:	319d6704 	addi	r6,r6,30108
   23710:	39f90f04 	addi	r7,r7,-7108
   23714:	1009883a 	mov	r4,r2
   23718:	180b883a 	mov	r5,r3
   2371c:	002628c0 	call	2628c <__muldf3>
   23720:	dfc00117 	ldw	ra,4(sp)
   23724:	dc000017 	ldw	r16,0(sp)
   23728:	dec00204 	addi	sp,sp,8
   2372c:	f800283a 	ret
   23730:	42000d84 	addi	r8,r8,54
   23734:	4012953a 	slli	r9,r8,20
   23738:	01e00434 	movhi	r7,32784
   2373c:	39ffffc4 	addi	r7,r7,-1
   23740:	19ca703a 	and	r5,r3,r7
   23744:	000d883a 	mov	r6,zero
   23748:	01cf2434 	movhi	r7,15504
   2374c:	5009883a 	mov	r4,r10
   23750:	494ab03a 	or	r5,r9,r5
   23754:	002628c0 	call	2628c <__muldf3>
   23758:	003fbc06 	br	2364c <__alt_mem_SDRAM_controller+0xfc02364c>

0002375c <copysign>:
   2375c:	2005883a 	mov	r2,r4
   23760:	01200034 	movhi	r4,32768
   23764:	213fffc4 	addi	r4,r4,-1
   23768:	38e0002c 	andhi	r3,r7,32768
   2376c:	290a703a 	and	r5,r5,r4
   23770:	28c6b03a 	or	r3,r5,r3
   23774:	f800283a 	ret

00023778 <__fixunsdfsi>:
   23778:	defffd04 	addi	sp,sp,-12
   2377c:	000d883a 	mov	r6,zero
   23780:	01d07834 	movhi	r7,16864
   23784:	dc400115 	stw	r17,4(sp)
   23788:	dc000015 	stw	r16,0(sp)
   2378c:	dfc00215 	stw	ra,8(sp)
   23790:	2023883a 	mov	r17,r4
   23794:	2821883a 	mov	r16,r5
   23798:	00260bc0 	call	260bc <__gedf2>
   2379c:	1000080e 	bge	r2,zero,237c0 <__fixunsdfsi+0x48>
   237a0:	8809883a 	mov	r4,r17
   237a4:	800b883a 	mov	r5,r16
   237a8:	00272a00 	call	272a0 <__fixdfsi>
   237ac:	dfc00217 	ldw	ra,8(sp)
   237b0:	dc400117 	ldw	r17,4(sp)
   237b4:	dc000017 	ldw	r16,0(sp)
   237b8:	dec00304 	addi	sp,sp,12
   237bc:	f800283a 	ret
   237c0:	000d883a 	mov	r6,zero
   237c4:	01d07834 	movhi	r7,16864
   237c8:	8809883a 	mov	r4,r17
   237cc:	800b883a 	mov	r5,r16
   237d0:	00269a40 	call	269a4 <__subdf3>
   237d4:	180b883a 	mov	r5,r3
   237d8:	1009883a 	mov	r4,r2
   237dc:	00272a00 	call	272a0 <__fixdfsi>
   237e0:	00e00034 	movhi	r3,32768
   237e4:	10c5883a 	add	r2,r2,r3
   237e8:	003ff006 	br	237ac <__alt_mem_SDRAM_controller+0xfc0237ac>

000237ec <__divsi3>:
   237ec:	20001b16 	blt	r4,zero,2385c <__divsi3+0x70>
   237f0:	000f883a 	mov	r7,zero
   237f4:	28001616 	blt	r5,zero,23850 <__divsi3+0x64>
   237f8:	200d883a 	mov	r6,r4
   237fc:	29001a2e 	bgeu	r5,r4,23868 <__divsi3+0x7c>
   23800:	00800804 	movi	r2,32
   23804:	00c00044 	movi	r3,1
   23808:	00000106 	br	23810 <__divsi3+0x24>
   2380c:	10000d26 	beq	r2,zero,23844 <__divsi3+0x58>
   23810:	294b883a 	add	r5,r5,r5
   23814:	10bfffc4 	addi	r2,r2,-1
   23818:	18c7883a 	add	r3,r3,r3
   2381c:	293ffb36 	bltu	r5,r4,2380c <__alt_mem_SDRAM_controller+0xfc02380c>
   23820:	0005883a 	mov	r2,zero
   23824:	18000726 	beq	r3,zero,23844 <__divsi3+0x58>
   23828:	0005883a 	mov	r2,zero
   2382c:	31400236 	bltu	r6,r5,23838 <__divsi3+0x4c>
   23830:	314dc83a 	sub	r6,r6,r5
   23834:	10c4b03a 	or	r2,r2,r3
   23838:	1806d07a 	srli	r3,r3,1
   2383c:	280ad07a 	srli	r5,r5,1
   23840:	183ffa1e 	bne	r3,zero,2382c <__alt_mem_SDRAM_controller+0xfc02382c>
   23844:	38000126 	beq	r7,zero,2384c <__divsi3+0x60>
   23848:	0085c83a 	sub	r2,zero,r2
   2384c:	f800283a 	ret
   23850:	014bc83a 	sub	r5,zero,r5
   23854:	39c0005c 	xori	r7,r7,1
   23858:	003fe706 	br	237f8 <__alt_mem_SDRAM_controller+0xfc0237f8>
   2385c:	0109c83a 	sub	r4,zero,r4
   23860:	01c00044 	movi	r7,1
   23864:	003fe306 	br	237f4 <__alt_mem_SDRAM_controller+0xfc0237f4>
   23868:	00c00044 	movi	r3,1
   2386c:	003fee06 	br	23828 <__alt_mem_SDRAM_controller+0xfc023828>

00023870 <__modsi3>:
   23870:	20001716 	blt	r4,zero,238d0 <__modsi3+0x60>
   23874:	000f883a 	mov	r7,zero
   23878:	2005883a 	mov	r2,r4
   2387c:	28001216 	blt	r5,zero,238c8 <__modsi3+0x58>
   23880:	2900162e 	bgeu	r5,r4,238dc <__modsi3+0x6c>
   23884:	01800804 	movi	r6,32
   23888:	00c00044 	movi	r3,1
   2388c:	00000106 	br	23894 <__modsi3+0x24>
   23890:	30000a26 	beq	r6,zero,238bc <__modsi3+0x4c>
   23894:	294b883a 	add	r5,r5,r5
   23898:	31bfffc4 	addi	r6,r6,-1
   2389c:	18c7883a 	add	r3,r3,r3
   238a0:	293ffb36 	bltu	r5,r4,23890 <__alt_mem_SDRAM_controller+0xfc023890>
   238a4:	18000526 	beq	r3,zero,238bc <__modsi3+0x4c>
   238a8:	1806d07a 	srli	r3,r3,1
   238ac:	11400136 	bltu	r2,r5,238b4 <__modsi3+0x44>
   238b0:	1145c83a 	sub	r2,r2,r5
   238b4:	280ad07a 	srli	r5,r5,1
   238b8:	183ffb1e 	bne	r3,zero,238a8 <__alt_mem_SDRAM_controller+0xfc0238a8>
   238bc:	38000126 	beq	r7,zero,238c4 <__modsi3+0x54>
   238c0:	0085c83a 	sub	r2,zero,r2
   238c4:	f800283a 	ret
   238c8:	014bc83a 	sub	r5,zero,r5
   238cc:	003fec06 	br	23880 <__alt_mem_SDRAM_controller+0xfc023880>
   238d0:	0109c83a 	sub	r4,zero,r4
   238d4:	01c00044 	movi	r7,1
   238d8:	003fe706 	br	23878 <__alt_mem_SDRAM_controller+0xfc023878>
   238dc:	00c00044 	movi	r3,1
   238e0:	003ff106 	br	238a8 <__alt_mem_SDRAM_controller+0xfc0238a8>

000238e4 <__udivsi3>:
   238e4:	200d883a 	mov	r6,r4
   238e8:	2900152e 	bgeu	r5,r4,23940 <__udivsi3+0x5c>
   238ec:	28001416 	blt	r5,zero,23940 <__udivsi3+0x5c>
   238f0:	00800804 	movi	r2,32
   238f4:	00c00044 	movi	r3,1
   238f8:	00000206 	br	23904 <__udivsi3+0x20>
   238fc:	10000e26 	beq	r2,zero,23938 <__udivsi3+0x54>
   23900:	28000516 	blt	r5,zero,23918 <__udivsi3+0x34>
   23904:	294b883a 	add	r5,r5,r5
   23908:	10bfffc4 	addi	r2,r2,-1
   2390c:	18c7883a 	add	r3,r3,r3
   23910:	293ffa36 	bltu	r5,r4,238fc <__alt_mem_SDRAM_controller+0xfc0238fc>
   23914:	18000826 	beq	r3,zero,23938 <__udivsi3+0x54>
   23918:	0005883a 	mov	r2,zero
   2391c:	31400236 	bltu	r6,r5,23928 <__udivsi3+0x44>
   23920:	314dc83a 	sub	r6,r6,r5
   23924:	10c4b03a 	or	r2,r2,r3
   23928:	1806d07a 	srli	r3,r3,1
   2392c:	280ad07a 	srli	r5,r5,1
   23930:	183ffa1e 	bne	r3,zero,2391c <__alt_mem_SDRAM_controller+0xfc02391c>
   23934:	f800283a 	ret
   23938:	0005883a 	mov	r2,zero
   2393c:	f800283a 	ret
   23940:	00c00044 	movi	r3,1
   23944:	003ff406 	br	23918 <__alt_mem_SDRAM_controller+0xfc023918>

00023948 <__umodsi3>:
   23948:	2005883a 	mov	r2,r4
   2394c:	2900122e 	bgeu	r5,r4,23998 <__umodsi3+0x50>
   23950:	28001116 	blt	r5,zero,23998 <__umodsi3+0x50>
   23954:	01800804 	movi	r6,32
   23958:	00c00044 	movi	r3,1
   2395c:	00000206 	br	23968 <__umodsi3+0x20>
   23960:	30000c26 	beq	r6,zero,23994 <__umodsi3+0x4c>
   23964:	28000516 	blt	r5,zero,2397c <__umodsi3+0x34>
   23968:	294b883a 	add	r5,r5,r5
   2396c:	31bfffc4 	addi	r6,r6,-1
   23970:	18c7883a 	add	r3,r3,r3
   23974:	293ffa36 	bltu	r5,r4,23960 <__alt_mem_SDRAM_controller+0xfc023960>
   23978:	18000626 	beq	r3,zero,23994 <__umodsi3+0x4c>
   2397c:	1806d07a 	srli	r3,r3,1
   23980:	11400136 	bltu	r2,r5,23988 <__umodsi3+0x40>
   23984:	1145c83a 	sub	r2,r2,r5
   23988:	280ad07a 	srli	r5,r5,1
   2398c:	183ffb1e 	bne	r3,zero,2397c <__alt_mem_SDRAM_controller+0xfc02397c>
   23990:	f800283a 	ret
   23994:	f800283a 	ret
   23998:	00c00044 	movi	r3,1
   2399c:	003ff706 	br	2397c <__alt_mem_SDRAM_controller+0xfc02397c>

000239a0 <__addsf3>:
   239a0:	defffc04 	addi	sp,sp,-16
   239a4:	2004d7fa 	srli	r2,r4,31
   239a8:	280cd5fa 	srli	r6,r5,23
   239ac:	dc000015 	stw	r16,0(sp)
   239b0:	00c02034 	movhi	r3,128
   239b4:	2020d5fa 	srli	r16,r4,23
   239b8:	280ed7fa 	srli	r7,r5,31
   239bc:	18ffffc4 	addi	r3,r3,-1
   239c0:	dc400115 	stw	r17,4(sp)
   239c4:	1908703a 	and	r4,r3,r4
   239c8:	194a703a 	and	r5,r3,r5
   239cc:	dfc00315 	stw	ra,12(sp)
   239d0:	dc800215 	stw	r18,8(sp)
   239d4:	14403fcc 	andi	r17,r2,255
   239d8:	84003fcc 	andi	r16,r16,255
   239dc:	200890fa 	slli	r4,r4,3
   239e0:	31803fcc 	andi	r6,r6,255
   239e4:	280a90fa 	slli	r5,r5,3
   239e8:	89c05026 	beq	r17,r7,23b2c <__addsf3+0x18c>
   239ec:	8185c83a 	sub	r2,r16,r6
   239f0:	00807a0e 	bge	zero,r2,23bdc <__addsf3+0x23c>
   239f4:	30001e1e 	bne	r6,zero,23a70 <__addsf3+0xd0>
   239f8:	28006d1e 	bne	r5,zero,23bb0 <__addsf3+0x210>
   239fc:	208001cc 	andi	r2,r4,7
   23a00:	10000426 	beq	r2,zero,23a14 <__addsf3+0x74>
   23a04:	208003cc 	andi	r2,r4,15
   23a08:	00c00104 	movi	r3,4
   23a0c:	10c00126 	beq	r2,r3,23a14 <__addsf3+0x74>
   23a10:	20c9883a 	add	r4,r4,r3
   23a14:	2081002c 	andhi	r2,r4,1024
   23a18:	10003926 	beq	r2,zero,23b00 <__addsf3+0x160>
   23a1c:	84000044 	addi	r16,r16,1
   23a20:	00803fc4 	movi	r2,255
   23a24:	80807826 	beq	r16,r2,23c08 <__addsf3+0x268>
   23a28:	200891ba 	slli	r4,r4,6
   23a2c:	8805883a 	mov	r2,r17
   23a30:	2008d27a 	srli	r4,r4,9
   23a34:	84003fcc 	andi	r16,r16,255
   23a38:	800695fa 	slli	r3,r16,23
   23a3c:	10803fcc 	andi	r2,r2,255
   23a40:	04002034 	movhi	r16,128
   23a44:	843fffc4 	addi	r16,r16,-1
   23a48:	100497fa 	slli	r2,r2,31
   23a4c:	2408703a 	and	r4,r4,r16
   23a50:	20e0b03a 	or	r16,r4,r3
   23a54:	8084b03a 	or	r2,r16,r2
   23a58:	dfc00317 	ldw	ra,12(sp)
   23a5c:	dc800217 	ldw	r18,8(sp)
   23a60:	dc400117 	ldw	r17,4(sp)
   23a64:	dc000017 	ldw	r16,0(sp)
   23a68:	dec00404 	addi	sp,sp,16
   23a6c:	f800283a 	ret
   23a70:	00c03fc4 	movi	r3,255
   23a74:	80ffe126 	beq	r16,r3,239fc <__alt_mem_SDRAM_controller+0xfc0239fc>
   23a78:	29410034 	orhi	r5,r5,1024
   23a7c:	00c006c4 	movi	r3,27
   23a80:	18807516 	blt	r3,r2,23c58 <__addsf3+0x2b8>
   23a84:	00c00804 	movi	r3,32
   23a88:	1887c83a 	sub	r3,r3,r2
   23a8c:	28c6983a 	sll	r3,r5,r3
   23a90:	288ad83a 	srl	r5,r5,r2
   23a94:	1804c03a 	cmpne	r2,r3,zero
   23a98:	288ab03a 	or	r5,r5,r2
   23a9c:	2149c83a 	sub	r4,r4,r5
   23aa0:	2081002c 	andhi	r2,r4,1024
   23aa4:	10001426 	beq	r2,zero,23af8 <__addsf3+0x158>
   23aa8:	04810034 	movhi	r18,1024
   23aac:	94bfffc4 	addi	r18,r18,-1
   23ab0:	24a4703a 	and	r18,r4,r18
   23ab4:	9009883a 	mov	r4,r18
   23ab8:	00276b40 	call	276b4 <__clzsi2>
   23abc:	10bffec4 	addi	r2,r2,-5
   23ac0:	90a4983a 	sll	r18,r18,r2
   23ac4:	14005416 	blt	r2,r16,23c18 <__addsf3+0x278>
   23ac8:	1405c83a 	sub	r2,r2,r16
   23acc:	11000044 	addi	r4,r2,1
   23ad0:	00800804 	movi	r2,32
   23ad4:	1105c83a 	sub	r2,r2,r4
   23ad8:	9084983a 	sll	r2,r18,r2
   23adc:	9124d83a 	srl	r18,r18,r4
   23ae0:	0021883a 	mov	r16,zero
   23ae4:	1008c03a 	cmpne	r4,r2,zero
   23ae8:	9108b03a 	or	r4,r18,r4
   23aec:	003fc306 	br	239fc <__alt_mem_SDRAM_controller+0xfc0239fc>
   23af0:	1000db26 	beq	r2,zero,23e60 <__addsf3+0x4c0>
   23af4:	1009883a 	mov	r4,r2
   23af8:	208001cc 	andi	r2,r4,7
   23afc:	103fc11e 	bne	r2,zero,23a04 <__alt_mem_SDRAM_controller+0xfc023a04>
   23b00:	2006d0fa 	srli	r3,r4,3
   23b04:	01003fc4 	movi	r4,255
   23b08:	8805883a 	mov	r2,r17
   23b0c:	8100241e 	bne	r16,r4,23ba0 <__addsf3+0x200>
   23b10:	18006e26 	beq	r3,zero,23ccc <__addsf3+0x32c>
   23b14:	19001034 	orhi	r4,r3,64
   23b18:	00c02034 	movhi	r3,128
   23b1c:	18ffffc4 	addi	r3,r3,-1
   23b20:	043fffc4 	movi	r16,-1
   23b24:	20c8703a 	and	r4,r4,r3
   23b28:	003fc206 	br	23a34 <__alt_mem_SDRAM_controller+0xfc023a34>
   23b2c:	8187c83a 	sub	r3,r16,r6
   23b30:	00c03e0e 	bge	zero,r3,23c2c <__addsf3+0x28c>
   23b34:	30002326 	beq	r6,zero,23bc4 <__addsf3+0x224>
   23b38:	01803fc4 	movi	r6,255
   23b3c:	81bfaf26 	beq	r16,r6,239fc <__alt_mem_SDRAM_controller+0xfc0239fc>
   23b40:	29410034 	orhi	r5,r5,1024
   23b44:	018006c4 	movi	r6,27
   23b48:	30c07416 	blt	r6,r3,23d1c <__addsf3+0x37c>
   23b4c:	01800804 	movi	r6,32
   23b50:	30cdc83a 	sub	r6,r6,r3
   23b54:	298c983a 	sll	r6,r5,r6
   23b58:	28cad83a 	srl	r5,r5,r3
   23b5c:	3006c03a 	cmpne	r3,r6,zero
   23b60:	28cab03a 	or	r5,r5,r3
   23b64:	2149883a 	add	r4,r4,r5
   23b68:	20c1002c 	andhi	r3,r4,1024
   23b6c:	183fe226 	beq	r3,zero,23af8 <__alt_mem_SDRAM_controller+0xfc023af8>
   23b70:	84000044 	addi	r16,r16,1
   23b74:	00c03fc4 	movi	r3,255
   23b78:	80c05426 	beq	r16,r3,23ccc <__addsf3+0x32c>
   23b7c:	00bf0034 	movhi	r2,64512
   23b80:	10bfffc4 	addi	r2,r2,-1
   23b84:	20c0004c 	andi	r3,r4,1
   23b88:	2088703a 	and	r4,r4,r2
   23b8c:	2008d07a 	srli	r4,r4,1
   23b90:	20c8b03a 	or	r4,r4,r3
   23b94:	003f9906 	br	239fc <__alt_mem_SDRAM_controller+0xfc0239fc>
   23b98:	0007883a 	mov	r3,zero
   23b9c:	0005883a 	mov	r2,zero
   23ba0:	01002034 	movhi	r4,128
   23ba4:	213fffc4 	addi	r4,r4,-1
   23ba8:	1908703a 	and	r4,r3,r4
   23bac:	003fa106 	br	23a34 <__alt_mem_SDRAM_controller+0xfc023a34>
   23bb0:	10bfffc4 	addi	r2,r2,-1
   23bb4:	103fb926 	beq	r2,zero,23a9c <__alt_mem_SDRAM_controller+0xfc023a9c>
   23bb8:	00c03fc4 	movi	r3,255
   23bbc:	80ffaf1e 	bne	r16,r3,23a7c <__alt_mem_SDRAM_controller+0xfc023a7c>
   23bc0:	003f8e06 	br	239fc <__alt_mem_SDRAM_controller+0xfc0239fc>
   23bc4:	283f8d26 	beq	r5,zero,239fc <__alt_mem_SDRAM_controller+0xfc0239fc>
   23bc8:	18ffffc4 	addi	r3,r3,-1
   23bcc:	183fe526 	beq	r3,zero,23b64 <__alt_mem_SDRAM_controller+0xfc023b64>
   23bd0:	01803fc4 	movi	r6,255
   23bd4:	81bfdb1e 	bne	r16,r6,23b44 <__alt_mem_SDRAM_controller+0xfc023b44>
   23bd8:	003f8806 	br	239fc <__alt_mem_SDRAM_controller+0xfc0239fc>
   23bdc:	1000201e 	bne	r2,zero,23c60 <__addsf3+0x2c0>
   23be0:	80800044 	addi	r2,r16,1
   23be4:	10803fcc 	andi	r2,r2,255
   23be8:	01800044 	movi	r6,1
   23bec:	3080450e 	bge	r6,r2,23d04 <__addsf3+0x364>
   23bf0:	2165c83a 	sub	r18,r4,r5
   23bf4:	90c1002c 	andhi	r3,r18,1024
   23bf8:	18002b26 	beq	r3,zero,23ca8 <__addsf3+0x308>
   23bfc:	2925c83a 	sub	r18,r5,r4
   23c00:	3823883a 	mov	r17,r7
   23c04:	003fab06 	br	23ab4 <__alt_mem_SDRAM_controller+0xfc023ab4>
   23c08:	8805883a 	mov	r2,r17
   23c0c:	043fffc4 	movi	r16,-1
   23c10:	0009883a 	mov	r4,zero
   23c14:	003f8706 	br	23a34 <__alt_mem_SDRAM_controller+0xfc023a34>
   23c18:	013f0034 	movhi	r4,64512
   23c1c:	213fffc4 	addi	r4,r4,-1
   23c20:	80a1c83a 	sub	r16,r16,r2
   23c24:	9108703a 	and	r4,r18,r4
   23c28:	003f7406 	br	239fc <__alt_mem_SDRAM_controller+0xfc0239fc>
   23c2c:	1800411e 	bne	r3,zero,23d34 <__addsf3+0x394>
   23c30:	80c00044 	addi	r3,r16,1
   23c34:	19c03fcc 	andi	r7,r3,255
   23c38:	01800044 	movi	r6,1
   23c3c:	31c0260e 	bge	r6,r7,23cd8 <__addsf3+0x338>
   23c40:	01803fc4 	movi	r6,255
   23c44:	19802126 	beq	r3,r6,23ccc <__addsf3+0x32c>
   23c48:	2149883a 	add	r4,r4,r5
   23c4c:	2008d07a 	srli	r4,r4,1
   23c50:	1821883a 	mov	r16,r3
   23c54:	003f6906 	br	239fc <__alt_mem_SDRAM_controller+0xfc0239fc>
   23c58:	01400044 	movi	r5,1
   23c5c:	003f8f06 	br	23a9c <__alt_mem_SDRAM_controller+0xfc023a9c>
   23c60:	8000151e 	bne	r16,zero,23cb8 <__addsf3+0x318>
   23c64:	20002f26 	beq	r4,zero,23d24 <__addsf3+0x384>
   23c68:	0084303a 	nor	r2,zero,r2
   23c6c:	10000a26 	beq	r2,zero,23c98 <__addsf3+0x2f8>
   23c70:	00c03fc4 	movi	r3,255
   23c74:	30c02b26 	beq	r6,r3,23d24 <__addsf3+0x384>
   23c78:	00c006c4 	movi	r3,27
   23c7c:	18806d16 	blt	r3,r2,23e34 <__addsf3+0x494>
   23c80:	00c00804 	movi	r3,32
   23c84:	1887c83a 	sub	r3,r3,r2
   23c88:	20c6983a 	sll	r3,r4,r3
   23c8c:	2084d83a 	srl	r2,r4,r2
   23c90:	1808c03a 	cmpne	r4,r3,zero
   23c94:	1108b03a 	or	r4,r2,r4
   23c98:	2909c83a 	sub	r4,r5,r4
   23c9c:	3021883a 	mov	r16,r6
   23ca0:	3823883a 	mov	r17,r7
   23ca4:	003f7e06 	br	23aa0 <__alt_mem_SDRAM_controller+0xfc023aa0>
   23ca8:	903f821e 	bne	r18,zero,23ab4 <__alt_mem_SDRAM_controller+0xfc023ab4>
   23cac:	0005883a 	mov	r2,zero
   23cb0:	0021883a 	mov	r16,zero
   23cb4:	003fba06 	br	23ba0 <__alt_mem_SDRAM_controller+0xfc023ba0>
   23cb8:	00c03fc4 	movi	r3,255
   23cbc:	30c01926 	beq	r6,r3,23d24 <__addsf3+0x384>
   23cc0:	0085c83a 	sub	r2,zero,r2
   23cc4:	21010034 	orhi	r4,r4,1024
   23cc8:	003feb06 	br	23c78 <__alt_mem_SDRAM_controller+0xfc023c78>
   23ccc:	043fffc4 	movi	r16,-1
   23cd0:	0009883a 	mov	r4,zero
   23cd4:	003f5706 	br	23a34 <__alt_mem_SDRAM_controller+0xfc023a34>
   23cd8:	80004a1e 	bne	r16,zero,23e04 <__addsf3+0x464>
   23cdc:	20005926 	beq	r4,zero,23e44 <__addsf3+0x4a4>
   23ce0:	283f4626 	beq	r5,zero,239fc <__alt_mem_SDRAM_controller+0xfc0239fc>
   23ce4:	2149883a 	add	r4,r4,r5
   23ce8:	2081002c 	andhi	r2,r4,1024
   23cec:	103f8226 	beq	r2,zero,23af8 <__alt_mem_SDRAM_controller+0xfc023af8>
   23cf0:	00bf0034 	movhi	r2,64512
   23cf4:	10bfffc4 	addi	r2,r2,-1
   23cf8:	3021883a 	mov	r16,r6
   23cfc:	2088703a 	and	r4,r4,r2
   23d00:	003f3e06 	br	239fc <__alt_mem_SDRAM_controller+0xfc0239fc>
   23d04:	8000121e 	bne	r16,zero,23d50 <__addsf3+0x3b0>
   23d08:	2000261e 	bne	r4,zero,23da4 <__addsf3+0x404>
   23d0c:	283fa226 	beq	r5,zero,23b98 <__alt_mem_SDRAM_controller+0xfc023b98>
   23d10:	2809883a 	mov	r4,r5
   23d14:	3823883a 	mov	r17,r7
   23d18:	003f3806 	br	239fc <__alt_mem_SDRAM_controller+0xfc0239fc>
   23d1c:	01400044 	movi	r5,1
   23d20:	003f9006 	br	23b64 <__alt_mem_SDRAM_controller+0xfc023b64>
   23d24:	2809883a 	mov	r4,r5
   23d28:	3021883a 	mov	r16,r6
   23d2c:	3823883a 	mov	r17,r7
   23d30:	003f3206 	br	239fc <__alt_mem_SDRAM_controller+0xfc0239fc>
   23d34:	80000c1e 	bne	r16,zero,23d68 <__addsf3+0x3c8>
   23d38:	20002f26 	beq	r4,zero,23df8 <__addsf3+0x458>
   23d3c:	00c6303a 	nor	r3,zero,r3
   23d40:	18002b1e 	bne	r3,zero,23df0 <__addsf3+0x450>
   23d44:	2149883a 	add	r4,r4,r5
   23d48:	3021883a 	mov	r16,r6
   23d4c:	003f8606 	br	23b68 <__alt_mem_SDRAM_controller+0xfc023b68>
   23d50:	20001b1e 	bne	r4,zero,23dc0 <__addsf3+0x420>
   23d54:	28003926 	beq	r5,zero,23e3c <__addsf3+0x49c>
   23d58:	2809883a 	mov	r4,r5
   23d5c:	3823883a 	mov	r17,r7
   23d60:	04003fc4 	movi	r16,255
   23d64:	003f2506 	br	239fc <__alt_mem_SDRAM_controller+0xfc0239fc>
   23d68:	01c03fc4 	movi	r7,255
   23d6c:	31c02226 	beq	r6,r7,23df8 <__addsf3+0x458>
   23d70:	00c7c83a 	sub	r3,zero,r3
   23d74:	21010034 	orhi	r4,r4,1024
   23d78:	01c006c4 	movi	r7,27
   23d7c:	38c03616 	blt	r7,r3,23e58 <__addsf3+0x4b8>
   23d80:	01c00804 	movi	r7,32
   23d84:	38cfc83a 	sub	r7,r7,r3
   23d88:	21ce983a 	sll	r7,r4,r7
   23d8c:	20c6d83a 	srl	r3,r4,r3
   23d90:	3808c03a 	cmpne	r4,r7,zero
   23d94:	1906b03a 	or	r3,r3,r4
   23d98:	1949883a 	add	r4,r3,r5
   23d9c:	3021883a 	mov	r16,r6
   23da0:	003f7106 	br	23b68 <__alt_mem_SDRAM_controller+0xfc023b68>
   23da4:	283f1526 	beq	r5,zero,239fc <__alt_mem_SDRAM_controller+0xfc0239fc>
   23da8:	2145c83a 	sub	r2,r4,r5
   23dac:	10c1002c 	andhi	r3,r2,1024
   23db0:	183f4f26 	beq	r3,zero,23af0 <__alt_mem_SDRAM_controller+0xfc023af0>
   23db4:	2909c83a 	sub	r4,r5,r4
   23db8:	3823883a 	mov	r17,r7
   23dbc:	003f0f06 	br	239fc <__alt_mem_SDRAM_controller+0xfc0239fc>
   23dc0:	28001a26 	beq	r5,zero,23e2c <__addsf3+0x48c>
   23dc4:	2008d0fa 	srli	r4,r4,3
   23dc8:	2080102c 	andhi	r2,r4,64
   23dcc:	10000526 	beq	r2,zero,23de4 <__addsf3+0x444>
   23dd0:	280ad0fa 	srli	r5,r5,3
   23dd4:	2880102c 	andhi	r2,r5,64
   23dd8:	1000021e 	bne	r2,zero,23de4 <__addsf3+0x444>
   23ddc:	2809883a 	mov	r4,r5
   23de0:	3823883a 	mov	r17,r7
   23de4:	200890fa 	slli	r4,r4,3
   23de8:	04003fc4 	movi	r16,255
   23dec:	003f0306 	br	239fc <__alt_mem_SDRAM_controller+0xfc0239fc>
   23df0:	01c03fc4 	movi	r7,255
   23df4:	31ffe01e 	bne	r6,r7,23d78 <__alt_mem_SDRAM_controller+0xfc023d78>
   23df8:	2809883a 	mov	r4,r5
   23dfc:	3021883a 	mov	r16,r6
   23e00:	003efe06 	br	239fc <__alt_mem_SDRAM_controller+0xfc0239fc>
   23e04:	20001126 	beq	r4,zero,23e4c <__addsf3+0x4ac>
   23e08:	28000826 	beq	r5,zero,23e2c <__addsf3+0x48c>
   23e0c:	2008d0fa 	srli	r4,r4,3
   23e10:	2080102c 	andhi	r2,r4,64
   23e14:	103ff326 	beq	r2,zero,23de4 <__alt_mem_SDRAM_controller+0xfc023de4>
   23e18:	280ad0fa 	srli	r5,r5,3
   23e1c:	2880102c 	andhi	r2,r5,64
   23e20:	103ff01e 	bne	r2,zero,23de4 <__alt_mem_SDRAM_controller+0xfc023de4>
   23e24:	2809883a 	mov	r4,r5
   23e28:	003fee06 	br	23de4 <__alt_mem_SDRAM_controller+0xfc023de4>
   23e2c:	04003fc4 	movi	r16,255
   23e30:	003ef206 	br	239fc <__alt_mem_SDRAM_controller+0xfc0239fc>
   23e34:	01000044 	movi	r4,1
   23e38:	003f9706 	br	23c98 <__alt_mem_SDRAM_controller+0xfc023c98>
   23e3c:	0005883a 	mov	r2,zero
   23e40:	003f3406 	br	23b14 <__alt_mem_SDRAM_controller+0xfc023b14>
   23e44:	2809883a 	mov	r4,r5
   23e48:	003eec06 	br	239fc <__alt_mem_SDRAM_controller+0xfc0239fc>
   23e4c:	2809883a 	mov	r4,r5
   23e50:	04003fc4 	movi	r16,255
   23e54:	003ee906 	br	239fc <__alt_mem_SDRAM_controller+0xfc0239fc>
   23e58:	00c00044 	movi	r3,1
   23e5c:	003fce06 	br	23d98 <__alt_mem_SDRAM_controller+0xfc023d98>
   23e60:	0005883a 	mov	r2,zero
   23e64:	003f4e06 	br	23ba0 <__alt_mem_SDRAM_controller+0xfc023ba0>

00023e68 <__divsf3>:
   23e68:	defff504 	addi	sp,sp,-44
   23e6c:	200cd5fa 	srli	r6,r4,23
   23e70:	dcc00415 	stw	r19,16(sp)
   23e74:	2026d7fa 	srli	r19,r4,31
   23e78:	00c02034 	movhi	r3,128
   23e7c:	dd800715 	stw	r22,28(sp)
   23e80:	dd000515 	stw	r20,20(sp)
   23e84:	dc800315 	stw	r18,12(sp)
   23e88:	18ffffc4 	addi	r3,r3,-1
   23e8c:	dfc00a15 	stw	ra,40(sp)
   23e90:	df000915 	stw	fp,36(sp)
   23e94:	ddc00815 	stw	r23,32(sp)
   23e98:	dd400615 	stw	r21,24(sp)
   23e9c:	dc400215 	stw	r17,8(sp)
   23ea0:	dc000115 	stw	r16,4(sp)
   23ea4:	35003fcc 	andi	r20,r6,255
   23ea8:	1924703a 	and	r18,r3,r4
   23eac:	9d803fcc 	andi	r22,r19,255
   23eb0:	a0005226 	beq	r20,zero,23ffc <__divsf3+0x194>
   23eb4:	00803fc4 	movi	r2,255
   23eb8:	a0802e26 	beq	r20,r2,23f74 <__divsf3+0x10c>
   23ebc:	91002034 	orhi	r4,r18,128
   23ec0:	202490fa 	slli	r18,r4,3
   23ec4:	a53fe044 	addi	r20,r20,-127
   23ec8:	0021883a 	mov	r16,zero
   23ecc:	002f883a 	mov	r23,zero
   23ed0:	280cd5fa 	srli	r6,r5,23
   23ed4:	282ad7fa 	srli	r21,r5,31
   23ed8:	00c02034 	movhi	r3,128
   23edc:	18ffffc4 	addi	r3,r3,-1
   23ee0:	31803fcc 	andi	r6,r6,255
   23ee4:	1962703a 	and	r17,r3,r5
   23ee8:	af003fcc 	andi	fp,r21,255
   23eec:	30004a26 	beq	r6,zero,24018 <__divsf3+0x1b0>
   23ef0:	00803fc4 	movi	r2,255
   23ef4:	30804526 	beq	r6,r2,2400c <__divsf3+0x1a4>
   23ef8:	89402034 	orhi	r5,r17,128
   23efc:	282290fa 	slli	r17,r5,3
   23f00:	31bfe044 	addi	r6,r6,-127
   23f04:	000b883a 	mov	r5,zero
   23f08:	2c20b03a 	or	r16,r5,r16
   23f0c:	802090ba 	slli	r16,r16,2
   23f10:	008000b4 	movhi	r2,2
   23f14:	108fcd04 	addi	r2,r2,16180
   23f18:	80a1883a 	add	r16,r16,r2
   23f1c:	81000017 	ldw	r4,0(r16)
   23f20:	9d46f03a 	xor	r3,r19,r21
   23f24:	180f883a 	mov	r7,r3
   23f28:	18803fcc 	andi	r2,r3,255
   23f2c:	a18dc83a 	sub	r6,r20,r6
   23f30:	2000683a 	jmp	r4
   23f34:	00024118 	cmpnei	zero,zero,2308
   23f38:	00023f9c 	xori	zero,zero,2302
   23f3c:	0002410c 	andi	zero,zero,2308
   23f40:	00023f88 	cmpgei	zero,zero,2302
   23f44:	0002410c 	andi	zero,zero,2308
   23f48:	000240e4 	muli	zero,zero,2307
   23f4c:	0002410c 	andi	zero,zero,2308
   23f50:	00023f88 	cmpgei	zero,zero,2302
   23f54:	00023f9c 	xori	zero,zero,2302
   23f58:	00023f9c 	xori	zero,zero,2302
   23f5c:	000240e4 	muli	zero,zero,2307
   23f60:	00023f88 	cmpgei	zero,zero,2302
   23f64:	000241f8 	rdprs	zero,zero,2311
   23f68:	000241f8 	rdprs	zero,zero,2311
   23f6c:	000241f8 	rdprs	zero,zero,2311
   23f70:	000241ac 	andhi	zero,zero,2310
   23f74:	9000581e 	bne	r18,zero,240d8 <__divsf3+0x270>
   23f78:	04000204 	movi	r16,8
   23f7c:	05c00084 	movi	r23,2
   23f80:	003fd306 	br	23ed0 <__alt_mem_SDRAM_controller+0xfc023ed0>
   23f84:	0023883a 	mov	r17,zero
   23f88:	e02d883a 	mov	r22,fp
   23f8c:	282f883a 	mov	r23,r5
   23f90:	00800084 	movi	r2,2
   23f94:	b8808f1e 	bne	r23,r2,241d4 <__divsf3+0x36c>
   23f98:	b005883a 	mov	r2,r22
   23f9c:	11c0004c 	andi	r7,r2,1
   23fa0:	013fffc4 	movi	r4,-1
   23fa4:	000d883a 	mov	r6,zero
   23fa8:	21003fcc 	andi	r4,r4,255
   23fac:	200895fa 	slli	r4,r4,23
   23fb0:	38803fcc 	andi	r2,r7,255
   23fb4:	00c02034 	movhi	r3,128
   23fb8:	100497fa 	slli	r2,r2,31
   23fbc:	18ffffc4 	addi	r3,r3,-1
   23fc0:	30c6703a 	and	r3,r6,r3
   23fc4:	1906b03a 	or	r3,r3,r4
   23fc8:	1884b03a 	or	r2,r3,r2
   23fcc:	dfc00a17 	ldw	ra,40(sp)
   23fd0:	df000917 	ldw	fp,36(sp)
   23fd4:	ddc00817 	ldw	r23,32(sp)
   23fd8:	dd800717 	ldw	r22,28(sp)
   23fdc:	dd400617 	ldw	r21,24(sp)
   23fe0:	dd000517 	ldw	r20,20(sp)
   23fe4:	dcc00417 	ldw	r19,16(sp)
   23fe8:	dc800317 	ldw	r18,12(sp)
   23fec:	dc400217 	ldw	r17,8(sp)
   23ff0:	dc000117 	ldw	r16,4(sp)
   23ff4:	dec00b04 	addi	sp,sp,44
   23ff8:	f800283a 	ret
   23ffc:	90002b1e 	bne	r18,zero,240ac <__divsf3+0x244>
   24000:	04000104 	movi	r16,4
   24004:	05c00044 	movi	r23,1
   24008:	003fb106 	br	23ed0 <__alt_mem_SDRAM_controller+0xfc023ed0>
   2400c:	8800251e 	bne	r17,zero,240a4 <__divsf3+0x23c>
   24010:	01400084 	movi	r5,2
   24014:	00000206 	br	24020 <__divsf3+0x1b8>
   24018:	88001a1e 	bne	r17,zero,24084 <__divsf3+0x21c>
   2401c:	01400044 	movi	r5,1
   24020:	8160b03a 	or	r16,r16,r5
   24024:	802090ba 	slli	r16,r16,2
   24028:	00c000b4 	movhi	r3,2
   2402c:	18d01104 	addi	r3,r3,16452
   24030:	80e1883a 	add	r16,r16,r3
   24034:	80c00017 	ldw	r3,0(r16)
   24038:	9d44f03a 	xor	r2,r19,r21
   2403c:	a18dc83a 	sub	r6,r20,r6
   24040:	1800683a 	jmp	r3
   24044:	00023f9c 	xori	zero,zero,2302
   24048:	00023f9c 	xori	zero,zero,2302
   2404c:	000241e8 	cmpgeui	zero,zero,2311
   24050:	00023f84 	movi	zero,2302
   24054:	000241e8 	cmpgeui	zero,zero,2311
   24058:	000240e4 	muli	zero,zero,2307
   2405c:	000241e8 	cmpgeui	zero,zero,2311
   24060:	00023f84 	movi	zero,2302
   24064:	00023f9c 	xori	zero,zero,2302
   24068:	00023f9c 	xori	zero,zero,2302
   2406c:	000240e4 	muli	zero,zero,2307
   24070:	00023f84 	movi	zero,2302
   24074:	000241f8 	rdprs	zero,zero,2311
   24078:	000241f8 	rdprs	zero,zero,2311
   2407c:	000241f8 	rdprs	zero,zero,2311
   24080:	00024210 	cmplti	zero,zero,2312
   24084:	8809883a 	mov	r4,r17
   24088:	00276b40 	call	276b4 <__clzsi2>
   2408c:	10fffec4 	addi	r3,r2,-5
   24090:	10801d84 	addi	r2,r2,118
   24094:	88e2983a 	sll	r17,r17,r3
   24098:	008dc83a 	sub	r6,zero,r2
   2409c:	000b883a 	mov	r5,zero
   240a0:	003f9906 	br	23f08 <__alt_mem_SDRAM_controller+0xfc023f08>
   240a4:	014000c4 	movi	r5,3
   240a8:	003f9706 	br	23f08 <__alt_mem_SDRAM_controller+0xfc023f08>
   240ac:	9009883a 	mov	r4,r18
   240b0:	d9400015 	stw	r5,0(sp)
   240b4:	00276b40 	call	276b4 <__clzsi2>
   240b8:	10fffec4 	addi	r3,r2,-5
   240bc:	11801d84 	addi	r6,r2,118
   240c0:	90e4983a 	sll	r18,r18,r3
   240c4:	01a9c83a 	sub	r20,zero,r6
   240c8:	0021883a 	mov	r16,zero
   240cc:	002f883a 	mov	r23,zero
   240d0:	d9400017 	ldw	r5,0(sp)
   240d4:	003f7e06 	br	23ed0 <__alt_mem_SDRAM_controller+0xfc023ed0>
   240d8:	04000304 	movi	r16,12
   240dc:	05c000c4 	movi	r23,3
   240e0:	003f7b06 	br	23ed0 <__alt_mem_SDRAM_controller+0xfc023ed0>
   240e4:	01802034 	movhi	r6,128
   240e8:	000f883a 	mov	r7,zero
   240ec:	31bfffc4 	addi	r6,r6,-1
   240f0:	013fffc4 	movi	r4,-1
   240f4:	003fac06 	br	23fa8 <__alt_mem_SDRAM_controller+0xfc023fa8>
   240f8:	01400044 	movi	r5,1
   240fc:	2909c83a 	sub	r4,r5,r4
   24100:	00c006c4 	movi	r3,27
   24104:	19004b0e 	bge	r3,r4,24234 <__divsf3+0x3cc>
   24108:	114e703a 	and	r7,r2,r5
   2410c:	0009883a 	mov	r4,zero
   24110:	000d883a 	mov	r6,zero
   24114:	003fa406 	br	23fa8 <__alt_mem_SDRAM_controller+0xfc023fa8>
   24118:	9006917a 	slli	r3,r18,5
   2411c:	8822917a 	slli	r17,r17,5
   24120:	1c40372e 	bgeu	r3,r17,24200 <__divsf3+0x398>
   24124:	31bfffc4 	addi	r6,r6,-1
   24128:	010006c4 	movi	r4,27
   2412c:	000b883a 	mov	r5,zero
   24130:	180f883a 	mov	r7,r3
   24134:	294b883a 	add	r5,r5,r5
   24138:	18c7883a 	add	r3,r3,r3
   2413c:	38000116 	blt	r7,zero,24144 <__divsf3+0x2dc>
   24140:	1c400236 	bltu	r3,r17,2414c <__divsf3+0x2e4>
   24144:	1c47c83a 	sub	r3,r3,r17
   24148:	29400054 	ori	r5,r5,1
   2414c:	213fffc4 	addi	r4,r4,-1
   24150:	203ff71e 	bne	r4,zero,24130 <__alt_mem_SDRAM_controller+0xfc024130>
   24154:	1806c03a 	cmpne	r3,r3,zero
   24158:	1962b03a 	or	r17,r3,r5
   2415c:	31001fc4 	addi	r4,r6,127
   24160:	013fe50e 	bge	zero,r4,240f8 <__alt_mem_SDRAM_controller+0xfc0240f8>
   24164:	88c001cc 	andi	r3,r17,7
   24168:	18000426 	beq	r3,zero,2417c <__divsf3+0x314>
   2416c:	88c003cc 	andi	r3,r17,15
   24170:	01400104 	movi	r5,4
   24174:	19400126 	beq	r3,r5,2417c <__divsf3+0x314>
   24178:	8963883a 	add	r17,r17,r5
   2417c:	88c2002c 	andhi	r3,r17,2048
   24180:	18000426 	beq	r3,zero,24194 <__divsf3+0x32c>
   24184:	00fe0034 	movhi	r3,63488
   24188:	18ffffc4 	addi	r3,r3,-1
   2418c:	31002004 	addi	r4,r6,128
   24190:	88e2703a 	and	r17,r17,r3
   24194:	00c03f84 	movi	r3,254
   24198:	193f8016 	blt	r3,r4,23f9c <__alt_mem_SDRAM_controller+0xfc023f9c>
   2419c:	880c91ba 	slli	r6,r17,6
   241a0:	11c0004c 	andi	r7,r2,1
   241a4:	300cd27a 	srli	r6,r6,9
   241a8:	003f7f06 	br	23fa8 <__alt_mem_SDRAM_controller+0xfc023fa8>
   241ac:	9080102c 	andhi	r2,r18,64
   241b0:	10000226 	beq	r2,zero,241bc <__divsf3+0x354>
   241b4:	8880102c 	andhi	r2,r17,64
   241b8:	10001826 	beq	r2,zero,2421c <__divsf3+0x3b4>
   241bc:	00802034 	movhi	r2,128
   241c0:	91801034 	orhi	r6,r18,64
   241c4:	10bfffc4 	addi	r2,r2,-1
   241c8:	980f883a 	mov	r7,r19
   241cc:	308c703a 	and	r6,r6,r2
   241d0:	003fc706 	br	240f0 <__alt_mem_SDRAM_controller+0xfc0240f0>
   241d4:	008000c4 	movi	r2,3
   241d8:	b8802d26 	beq	r23,r2,24290 <__divsf3+0x428>
   241dc:	00c00044 	movi	r3,1
   241e0:	b005883a 	mov	r2,r22
   241e4:	b8ffdd1e 	bne	r23,r3,2415c <__alt_mem_SDRAM_controller+0xfc02415c>
   241e8:	11c0004c 	andi	r7,r2,1
   241ec:	0009883a 	mov	r4,zero
   241f0:	000d883a 	mov	r6,zero
   241f4:	003f6c06 	br	23fa8 <__alt_mem_SDRAM_controller+0xfc023fa8>
   241f8:	9023883a 	mov	r17,r18
   241fc:	003f6406 	br	23f90 <__alt_mem_SDRAM_controller+0xfc023f90>
   24200:	1c47c83a 	sub	r3,r3,r17
   24204:	01000684 	movi	r4,26
   24208:	01400044 	movi	r5,1
   2420c:	003fc806 	br	24130 <__alt_mem_SDRAM_controller+0xfc024130>
   24210:	9080102c 	andhi	r2,r18,64
   24214:	103fe926 	beq	r2,zero,241bc <__alt_mem_SDRAM_controller+0xfc0241bc>
   24218:	0023883a 	mov	r17,zero
   2421c:	00802034 	movhi	r2,128
   24220:	89801034 	orhi	r6,r17,64
   24224:	10bfffc4 	addi	r2,r2,-1
   24228:	a80f883a 	mov	r7,r21
   2422c:	308c703a 	and	r6,r6,r2
   24230:	003faf06 	br	240f0 <__alt_mem_SDRAM_controller+0xfc0240f0>
   24234:	01c00804 	movi	r7,32
   24238:	390fc83a 	sub	r7,r7,r4
   2423c:	89ce983a 	sll	r7,r17,r7
   24240:	890ad83a 	srl	r5,r17,r4
   24244:	380ec03a 	cmpne	r7,r7,zero
   24248:	29cab03a 	or	r5,r5,r7
   2424c:	28c001cc 	andi	r3,r5,7
   24250:	18000426 	beq	r3,zero,24264 <__divsf3+0x3fc>
   24254:	28c003cc 	andi	r3,r5,15
   24258:	01000104 	movi	r4,4
   2425c:	19000126 	beq	r3,r4,24264 <__divsf3+0x3fc>
   24260:	290b883a 	add	r5,r5,r4
   24264:	28c1002c 	andhi	r3,r5,1024
   24268:	18000426 	beq	r3,zero,2427c <__divsf3+0x414>
   2426c:	11c0004c 	andi	r7,r2,1
   24270:	01000044 	movi	r4,1
   24274:	000d883a 	mov	r6,zero
   24278:	003f4b06 	br	23fa8 <__alt_mem_SDRAM_controller+0xfc023fa8>
   2427c:	280a91ba 	slli	r5,r5,6
   24280:	11c0004c 	andi	r7,r2,1
   24284:	0009883a 	mov	r4,zero
   24288:	280cd27a 	srli	r6,r5,9
   2428c:	003f4606 	br	23fa8 <__alt_mem_SDRAM_controller+0xfc023fa8>
   24290:	00802034 	movhi	r2,128
   24294:	89801034 	orhi	r6,r17,64
   24298:	10bfffc4 	addi	r2,r2,-1
   2429c:	b00f883a 	mov	r7,r22
   242a0:	308c703a 	and	r6,r6,r2
   242a4:	003f9206 	br	240f0 <__alt_mem_SDRAM_controller+0xfc0240f0>

000242a8 <__gesf2>:
   242a8:	2004d5fa 	srli	r2,r4,23
   242ac:	2806d5fa 	srli	r3,r5,23
   242b0:	01802034 	movhi	r6,128
   242b4:	31bfffc4 	addi	r6,r6,-1
   242b8:	10803fcc 	andi	r2,r2,255
   242bc:	01c03fc4 	movi	r7,255
   242c0:	3110703a 	and	r8,r6,r4
   242c4:	18c03fcc 	andi	r3,r3,255
   242c8:	314c703a 	and	r6,r6,r5
   242cc:	2008d7fa 	srli	r4,r4,31
   242d0:	280ad7fa 	srli	r5,r5,31
   242d4:	11c01926 	beq	r2,r7,2433c <__gesf2+0x94>
   242d8:	01c03fc4 	movi	r7,255
   242dc:	19c00f26 	beq	r3,r7,2431c <__gesf2+0x74>
   242e0:	1000061e 	bne	r2,zero,242fc <__gesf2+0x54>
   242e4:	400f003a 	cmpeq	r7,r8,zero
   242e8:	1800071e 	bne	r3,zero,24308 <__gesf2+0x60>
   242ec:	3000061e 	bne	r6,zero,24308 <__gesf2+0x60>
   242f0:	0005883a 	mov	r2,zero
   242f4:	40000e1e 	bne	r8,zero,24330 <__gesf2+0x88>
   242f8:	f800283a 	ret
   242fc:	18000a1e 	bne	r3,zero,24328 <__gesf2+0x80>
   24300:	30000b26 	beq	r6,zero,24330 <__gesf2+0x88>
   24304:	000f883a 	mov	r7,zero
   24308:	29403fcc 	andi	r5,r5,255
   2430c:	38000726 	beq	r7,zero,2432c <__gesf2+0x84>
   24310:	28000826 	beq	r5,zero,24334 <__gesf2+0x8c>
   24314:	00800044 	movi	r2,1
   24318:	f800283a 	ret
   2431c:	303ff026 	beq	r6,zero,242e0 <__alt_mem_SDRAM_controller+0xfc0242e0>
   24320:	00bfff84 	movi	r2,-2
   24324:	f800283a 	ret
   24328:	29403fcc 	andi	r5,r5,255
   2432c:	21400526 	beq	r4,r5,24344 <__gesf2+0x9c>
   24330:	203ff826 	beq	r4,zero,24314 <__alt_mem_SDRAM_controller+0xfc024314>
   24334:	00bfffc4 	movi	r2,-1
   24338:	f800283a 	ret
   2433c:	403fe626 	beq	r8,zero,242d8 <__alt_mem_SDRAM_controller+0xfc0242d8>
   24340:	003ff706 	br	24320 <__alt_mem_SDRAM_controller+0xfc024320>
   24344:	18bffa16 	blt	r3,r2,24330 <__alt_mem_SDRAM_controller+0xfc024330>
   24348:	10c00216 	blt	r2,r3,24354 <__gesf2+0xac>
   2434c:	323ff836 	bltu	r6,r8,24330 <__alt_mem_SDRAM_controller+0xfc024330>
   24350:	4180022e 	bgeu	r8,r6,2435c <__gesf2+0xb4>
   24354:	203fef1e 	bne	r4,zero,24314 <__alt_mem_SDRAM_controller+0xfc024314>
   24358:	003ff606 	br	24334 <__alt_mem_SDRAM_controller+0xfc024334>
   2435c:	0005883a 	mov	r2,zero
   24360:	f800283a 	ret

00024364 <__lesf2>:
   24364:	2004d5fa 	srli	r2,r4,23
   24368:	280cd5fa 	srli	r6,r5,23
   2436c:	00c02034 	movhi	r3,128
   24370:	18ffffc4 	addi	r3,r3,-1
   24374:	10803fcc 	andi	r2,r2,255
   24378:	01c03fc4 	movi	r7,255
   2437c:	1910703a 	and	r8,r3,r4
   24380:	31803fcc 	andi	r6,r6,255
   24384:	1946703a 	and	r3,r3,r5
   24388:	2008d7fa 	srli	r4,r4,31
   2438c:	280ad7fa 	srli	r5,r5,31
   24390:	11c01b26 	beq	r2,r7,24400 <__lesf2+0x9c>
   24394:	01c03fc4 	movi	r7,255
   24398:	31c01126 	beq	r6,r7,243e0 <__lesf2+0x7c>
   2439c:	1000071e 	bne	r2,zero,243bc <__lesf2+0x58>
   243a0:	400f003a 	cmpeq	r7,r8,zero
   243a4:	21003fcc 	andi	r4,r4,255
   243a8:	3000081e 	bne	r6,zero,243cc <__lesf2+0x68>
   243ac:	1800071e 	bne	r3,zero,243cc <__lesf2+0x68>
   243b0:	0005883a 	mov	r2,zero
   243b4:	40000f1e 	bne	r8,zero,243f4 <__lesf2+0x90>
   243b8:	f800283a 	ret
   243bc:	21003fcc 	andi	r4,r4,255
   243c0:	30000a1e 	bne	r6,zero,243ec <__lesf2+0x88>
   243c4:	18000b26 	beq	r3,zero,243f4 <__lesf2+0x90>
   243c8:	000f883a 	mov	r7,zero
   243cc:	29403fcc 	andi	r5,r5,255
   243d0:	38000726 	beq	r7,zero,243f0 <__lesf2+0x8c>
   243d4:	28000826 	beq	r5,zero,243f8 <__lesf2+0x94>
   243d8:	00800044 	movi	r2,1
   243dc:	f800283a 	ret
   243e0:	183fee26 	beq	r3,zero,2439c <__alt_mem_SDRAM_controller+0xfc02439c>
   243e4:	00800084 	movi	r2,2
   243e8:	f800283a 	ret
   243ec:	29403fcc 	andi	r5,r5,255
   243f0:	21400626 	beq	r4,r5,2440c <__lesf2+0xa8>
   243f4:	203ff826 	beq	r4,zero,243d8 <__alt_mem_SDRAM_controller+0xfc0243d8>
   243f8:	00bfffc4 	movi	r2,-1
   243fc:	f800283a 	ret
   24400:	403fe426 	beq	r8,zero,24394 <__alt_mem_SDRAM_controller+0xfc024394>
   24404:	00800084 	movi	r2,2
   24408:	f800283a 	ret
   2440c:	30bff916 	blt	r6,r2,243f4 <__alt_mem_SDRAM_controller+0xfc0243f4>
   24410:	11800216 	blt	r2,r6,2441c <__lesf2+0xb8>
   24414:	1a3ff736 	bltu	r3,r8,243f4 <__alt_mem_SDRAM_controller+0xfc0243f4>
   24418:	40c0022e 	bgeu	r8,r3,24424 <__lesf2+0xc0>
   2441c:	203fee1e 	bne	r4,zero,243d8 <__alt_mem_SDRAM_controller+0xfc0243d8>
   24420:	003ff506 	br	243f8 <__alt_mem_SDRAM_controller+0xfc0243f8>
   24424:	0005883a 	mov	r2,zero
   24428:	f800283a 	ret

0002442c <__mulsf3>:
   2442c:	defff504 	addi	sp,sp,-44
   24430:	dc000115 	stw	r16,4(sp)
   24434:	2020d5fa 	srli	r16,r4,23
   24438:	dd400615 	stw	r21,24(sp)
   2443c:	202ad7fa 	srli	r21,r4,31
   24440:	dc800315 	stw	r18,12(sp)
   24444:	04802034 	movhi	r18,128
   24448:	df000915 	stw	fp,36(sp)
   2444c:	dd000515 	stw	r20,20(sp)
   24450:	94bfffc4 	addi	r18,r18,-1
   24454:	dfc00a15 	stw	ra,40(sp)
   24458:	ddc00815 	stw	r23,32(sp)
   2445c:	dd800715 	stw	r22,28(sp)
   24460:	dcc00415 	stw	r19,16(sp)
   24464:	dc400215 	stw	r17,8(sp)
   24468:	84003fcc 	andi	r16,r16,255
   2446c:	9124703a 	and	r18,r18,r4
   24470:	a829883a 	mov	r20,r21
   24474:	af003fcc 	andi	fp,r21,255
   24478:	80005426 	beq	r16,zero,245cc <__mulsf3+0x1a0>
   2447c:	00803fc4 	movi	r2,255
   24480:	80802f26 	beq	r16,r2,24540 <__mulsf3+0x114>
   24484:	91002034 	orhi	r4,r18,128
   24488:	202490fa 	slli	r18,r4,3
   2448c:	843fe044 	addi	r16,r16,-127
   24490:	0023883a 	mov	r17,zero
   24494:	002f883a 	mov	r23,zero
   24498:	2804d5fa 	srli	r2,r5,23
   2449c:	282cd7fa 	srli	r22,r5,31
   244a0:	01002034 	movhi	r4,128
   244a4:	213fffc4 	addi	r4,r4,-1
   244a8:	10803fcc 	andi	r2,r2,255
   244ac:	2166703a 	and	r19,r4,r5
   244b0:	b1803fcc 	andi	r6,r22,255
   244b4:	10004c26 	beq	r2,zero,245e8 <__mulsf3+0x1bc>
   244b8:	00c03fc4 	movi	r3,255
   244bc:	10c04726 	beq	r2,r3,245dc <__mulsf3+0x1b0>
   244c0:	99002034 	orhi	r4,r19,128
   244c4:	202690fa 	slli	r19,r4,3
   244c8:	10bfe044 	addi	r2,r2,-127
   244cc:	0007883a 	mov	r3,zero
   244d0:	80a1883a 	add	r16,r16,r2
   244d4:	010003c4 	movi	r4,15
   244d8:	1c44b03a 	or	r2,r3,r17
   244dc:	b56af03a 	xor	r21,r22,r21
   244e0:	81c00044 	addi	r7,r16,1
   244e4:	20806b36 	bltu	r4,r2,24694 <__mulsf3+0x268>
   244e8:	100490ba 	slli	r2,r2,2
   244ec:	010000b4 	movhi	r4,2
   244f0:	21114004 	addi	r4,r4,17664
   244f4:	1105883a 	add	r2,r2,r4
   244f8:	10800017 	ldw	r2,0(r2)
   244fc:	1000683a 	jmp	r2
   24500:	00024694 	movui	zero,2330
   24504:	00024554 	movui	zero,2325
   24508:	00024554 	movui	zero,2325
   2450c:	00024550 	cmplti	zero,zero,2325
   24510:	00024678 	rdprs	zero,zero,2329
   24514:	00024678 	rdprs	zero,zero,2329
   24518:	00024664 	muli	zero,zero,2329
   2451c:	00024550 	cmplti	zero,zero,2325
   24520:	00024678 	rdprs	zero,zero,2329
   24524:	00024664 	muli	zero,zero,2329
   24528:	00024678 	rdprs	zero,zero,2329
   2452c:	00024550 	cmplti	zero,zero,2325
   24530:	00024684 	movi	zero,2330
   24534:	00024684 	movi	zero,2330
   24538:	00024684 	movi	zero,2330
   2453c:	00024760 	cmpeqi	zero,zero,2333
   24540:	90003b1e 	bne	r18,zero,24630 <__mulsf3+0x204>
   24544:	04400204 	movi	r17,8
   24548:	05c00084 	movi	r23,2
   2454c:	003fd206 	br	24498 <__alt_mem_SDRAM_controller+0xfc024498>
   24550:	302b883a 	mov	r21,r6
   24554:	00800084 	movi	r2,2
   24558:	18802626 	beq	r3,r2,245f4 <__mulsf3+0x1c8>
   2455c:	008000c4 	movi	r2,3
   24560:	1880ab26 	beq	r3,r2,24810 <__mulsf3+0x3e4>
   24564:	00800044 	movi	r2,1
   24568:	1880a21e 	bne	r3,r2,247f4 <__mulsf3+0x3c8>
   2456c:	a829883a 	mov	r20,r21
   24570:	0007883a 	mov	r3,zero
   24574:	0009883a 	mov	r4,zero
   24578:	18803fcc 	andi	r2,r3,255
   2457c:	100695fa 	slli	r3,r2,23
   24580:	a0803fcc 	andi	r2,r20,255
   24584:	100a97fa 	slli	r5,r2,31
   24588:	00802034 	movhi	r2,128
   2458c:	10bfffc4 	addi	r2,r2,-1
   24590:	2084703a 	and	r2,r4,r2
   24594:	10c4b03a 	or	r2,r2,r3
   24598:	1144b03a 	or	r2,r2,r5
   2459c:	dfc00a17 	ldw	ra,40(sp)
   245a0:	df000917 	ldw	fp,36(sp)
   245a4:	ddc00817 	ldw	r23,32(sp)
   245a8:	dd800717 	ldw	r22,28(sp)
   245ac:	dd400617 	ldw	r21,24(sp)
   245b0:	dd000517 	ldw	r20,20(sp)
   245b4:	dcc00417 	ldw	r19,16(sp)
   245b8:	dc800317 	ldw	r18,12(sp)
   245bc:	dc400217 	ldw	r17,8(sp)
   245c0:	dc000117 	ldw	r16,4(sp)
   245c4:	dec00b04 	addi	sp,sp,44
   245c8:	f800283a 	ret
   245cc:	90000d1e 	bne	r18,zero,24604 <__mulsf3+0x1d8>
   245d0:	04400104 	movi	r17,4
   245d4:	05c00044 	movi	r23,1
   245d8:	003faf06 	br	24498 <__alt_mem_SDRAM_controller+0xfc024498>
   245dc:	9806c03a 	cmpne	r3,r19,zero
   245e0:	18c00084 	addi	r3,r3,2
   245e4:	003fba06 	br	244d0 <__alt_mem_SDRAM_controller+0xfc0244d0>
   245e8:	9800141e 	bne	r19,zero,2463c <__mulsf3+0x210>
   245ec:	00c00044 	movi	r3,1
   245f0:	003fb706 	br	244d0 <__alt_mem_SDRAM_controller+0xfc0244d0>
   245f4:	a829883a 	mov	r20,r21
   245f8:	00ffffc4 	movi	r3,-1
   245fc:	0009883a 	mov	r4,zero
   24600:	003fdd06 	br	24578 <__alt_mem_SDRAM_controller+0xfc024578>
   24604:	9009883a 	mov	r4,r18
   24608:	d9400015 	stw	r5,0(sp)
   2460c:	00276b40 	call	276b4 <__clzsi2>
   24610:	10fffec4 	addi	r3,r2,-5
   24614:	10801d84 	addi	r2,r2,118
   24618:	90e4983a 	sll	r18,r18,r3
   2461c:	00a1c83a 	sub	r16,zero,r2
   24620:	0023883a 	mov	r17,zero
   24624:	002f883a 	mov	r23,zero
   24628:	d9400017 	ldw	r5,0(sp)
   2462c:	003f9a06 	br	24498 <__alt_mem_SDRAM_controller+0xfc024498>
   24630:	04400304 	movi	r17,12
   24634:	05c000c4 	movi	r23,3
   24638:	003f9706 	br	24498 <__alt_mem_SDRAM_controller+0xfc024498>
   2463c:	9809883a 	mov	r4,r19
   24640:	d9800015 	stw	r6,0(sp)
   24644:	00276b40 	call	276b4 <__clzsi2>
   24648:	10fffec4 	addi	r3,r2,-5
   2464c:	10801d84 	addi	r2,r2,118
   24650:	98e6983a 	sll	r19,r19,r3
   24654:	0085c83a 	sub	r2,zero,r2
   24658:	0007883a 	mov	r3,zero
   2465c:	d9800017 	ldw	r6,0(sp)
   24660:	003f9b06 	br	244d0 <__alt_mem_SDRAM_controller+0xfc0244d0>
   24664:	01002034 	movhi	r4,128
   24668:	0029883a 	mov	r20,zero
   2466c:	213fffc4 	addi	r4,r4,-1
   24670:	00ffffc4 	movi	r3,-1
   24674:	003fc006 	br	24578 <__alt_mem_SDRAM_controller+0xfc024578>
   24678:	9027883a 	mov	r19,r18
   2467c:	b807883a 	mov	r3,r23
   24680:	003fb406 	br	24554 <__alt_mem_SDRAM_controller+0xfc024554>
   24684:	9027883a 	mov	r19,r18
   24688:	e02b883a 	mov	r21,fp
   2468c:	b807883a 	mov	r3,r23
   24690:	003fb006 	br	24554 <__alt_mem_SDRAM_controller+0xfc024554>
   24694:	9004d43a 	srli	r2,r18,16
   24698:	9810d43a 	srli	r8,r19,16
   2469c:	94bfffcc 	andi	r18,r18,65535
   246a0:	993fffcc 	andi	r4,r19,65535
   246a4:	910d383a 	mul	r6,r18,r4
   246a8:	20a7383a 	mul	r19,r4,r2
   246ac:	9225383a 	mul	r18,r18,r8
   246b0:	3006d43a 	srli	r3,r6,16
   246b4:	1211383a 	mul	r8,r2,r8
   246b8:	94e5883a 	add	r18,r18,r19
   246bc:	1c87883a 	add	r3,r3,r18
   246c0:	1cc0022e 	bgeu	r3,r19,246cc <__mulsf3+0x2a0>
   246c4:	00800074 	movhi	r2,1
   246c8:	4091883a 	add	r8,r8,r2
   246cc:	1804943a 	slli	r2,r3,16
   246d0:	31bfffcc 	andi	r6,r6,65535
   246d4:	1806d43a 	srli	r3,r3,16
   246d8:	1185883a 	add	r2,r2,r6
   246dc:	102691ba 	slli	r19,r2,6
   246e0:	1a07883a 	add	r3,r3,r8
   246e4:	1004d6ba 	srli	r2,r2,26
   246e8:	180891ba 	slli	r4,r3,6
   246ec:	9826c03a 	cmpne	r19,r19,zero
   246f0:	9884b03a 	or	r2,r19,r2
   246f4:	1126b03a 	or	r19,r2,r4
   246f8:	9882002c 	andhi	r2,r19,2048
   246fc:	10000426 	beq	r2,zero,24710 <__mulsf3+0x2e4>
   24700:	9804d07a 	srli	r2,r19,1
   24704:	9900004c 	andi	r4,r19,1
   24708:	3821883a 	mov	r16,r7
   2470c:	1126b03a 	or	r19,r2,r4
   24710:	80c01fc4 	addi	r3,r16,127
   24714:	00c0210e 	bge	zero,r3,2479c <__mulsf3+0x370>
   24718:	988001cc 	andi	r2,r19,7
   2471c:	10000426 	beq	r2,zero,24730 <__mulsf3+0x304>
   24720:	988003cc 	andi	r2,r19,15
   24724:	01000104 	movi	r4,4
   24728:	11000126 	beq	r2,r4,24730 <__mulsf3+0x304>
   2472c:	9927883a 	add	r19,r19,r4
   24730:	9882002c 	andhi	r2,r19,2048
   24734:	10000426 	beq	r2,zero,24748 <__mulsf3+0x31c>
   24738:	00be0034 	movhi	r2,63488
   2473c:	10bfffc4 	addi	r2,r2,-1
   24740:	80c02004 	addi	r3,r16,128
   24744:	98a6703a 	and	r19,r19,r2
   24748:	00803f84 	movi	r2,254
   2474c:	10ffa916 	blt	r2,r3,245f4 <__alt_mem_SDRAM_controller+0xfc0245f4>
   24750:	980891ba 	slli	r4,r19,6
   24754:	a829883a 	mov	r20,r21
   24758:	2008d27a 	srli	r4,r4,9
   2475c:	003f8606 	br	24578 <__alt_mem_SDRAM_controller+0xfc024578>
   24760:	9080102c 	andhi	r2,r18,64
   24764:	10000826 	beq	r2,zero,24788 <__mulsf3+0x35c>
   24768:	9880102c 	andhi	r2,r19,64
   2476c:	1000061e 	bne	r2,zero,24788 <__mulsf3+0x35c>
   24770:	00802034 	movhi	r2,128
   24774:	99001034 	orhi	r4,r19,64
   24778:	10bfffc4 	addi	r2,r2,-1
   2477c:	b029883a 	mov	r20,r22
   24780:	2088703a 	and	r4,r4,r2
   24784:	003fba06 	br	24670 <__alt_mem_SDRAM_controller+0xfc024670>
   24788:	00802034 	movhi	r2,128
   2478c:	91001034 	orhi	r4,r18,64
   24790:	10bfffc4 	addi	r2,r2,-1
   24794:	2088703a 	and	r4,r4,r2
   24798:	003fb506 	br	24670 <__alt_mem_SDRAM_controller+0xfc024670>
   2479c:	00800044 	movi	r2,1
   247a0:	10c7c83a 	sub	r3,r2,r3
   247a4:	008006c4 	movi	r2,27
   247a8:	10ff7016 	blt	r2,r3,2456c <__alt_mem_SDRAM_controller+0xfc02456c>
   247ac:	00800804 	movi	r2,32
   247b0:	10c5c83a 	sub	r2,r2,r3
   247b4:	9884983a 	sll	r2,r19,r2
   247b8:	98c6d83a 	srl	r3,r19,r3
   247bc:	1004c03a 	cmpne	r2,r2,zero
   247c0:	1884b03a 	or	r2,r3,r2
   247c4:	10c001cc 	andi	r3,r2,7
   247c8:	18000426 	beq	r3,zero,247dc <__mulsf3+0x3b0>
   247cc:	10c003cc 	andi	r3,r2,15
   247d0:	01000104 	movi	r4,4
   247d4:	19000126 	beq	r3,r4,247dc <__mulsf3+0x3b0>
   247d8:	1105883a 	add	r2,r2,r4
   247dc:	10c1002c 	andhi	r3,r2,1024
   247e0:	18000626 	beq	r3,zero,247fc <__mulsf3+0x3d0>
   247e4:	a829883a 	mov	r20,r21
   247e8:	00c00044 	movi	r3,1
   247ec:	0009883a 	mov	r4,zero
   247f0:	003f6106 	br	24578 <__alt_mem_SDRAM_controller+0xfc024578>
   247f4:	3821883a 	mov	r16,r7
   247f8:	003fc506 	br	24710 <__alt_mem_SDRAM_controller+0xfc024710>
   247fc:	100491ba 	slli	r2,r2,6
   24800:	a829883a 	mov	r20,r21
   24804:	0007883a 	mov	r3,zero
   24808:	1008d27a 	srli	r4,r2,9
   2480c:	003f5a06 	br	24578 <__alt_mem_SDRAM_controller+0xfc024578>
   24810:	00802034 	movhi	r2,128
   24814:	99001034 	orhi	r4,r19,64
   24818:	10bfffc4 	addi	r2,r2,-1
   2481c:	a829883a 	mov	r20,r21
   24820:	2088703a 	and	r4,r4,r2
   24824:	003f9206 	br	24670 <__alt_mem_SDRAM_controller+0xfc024670>

00024828 <__subsf3>:
   24828:	defffc04 	addi	sp,sp,-16
   2482c:	280cd5fa 	srli	r6,r5,23
   24830:	dc000015 	stw	r16,0(sp)
   24834:	01c02034 	movhi	r7,128
   24838:	2020d5fa 	srli	r16,r4,23
   2483c:	39ffffc4 	addi	r7,r7,-1
   24840:	3906703a 	and	r3,r7,r4
   24844:	dc400115 	stw	r17,4(sp)
   24848:	394e703a 	and	r7,r7,r5
   2484c:	2022d7fa 	srli	r17,r4,31
   24850:	dfc00315 	stw	ra,12(sp)
   24854:	dc800215 	stw	r18,8(sp)
   24858:	31803fcc 	andi	r6,r6,255
   2485c:	01003fc4 	movi	r4,255
   24860:	84003fcc 	andi	r16,r16,255
   24864:	180690fa 	slli	r3,r3,3
   24868:	2804d7fa 	srli	r2,r5,31
   2486c:	380e90fa 	slli	r7,r7,3
   24870:	31006d26 	beq	r6,r4,24a28 <__subsf3+0x200>
   24874:	1080005c 	xori	r2,r2,1
   24878:	8189c83a 	sub	r4,r16,r6
   2487c:	14404f26 	beq	r2,r17,249bc <__subsf3+0x194>
   24880:	0100770e 	bge	zero,r4,24a60 <__subsf3+0x238>
   24884:	30001e1e 	bne	r6,zero,24900 <__subsf3+0xd8>
   24888:	38006a1e 	bne	r7,zero,24a34 <__subsf3+0x20c>
   2488c:	188001cc 	andi	r2,r3,7
   24890:	10000426 	beq	r2,zero,248a4 <__subsf3+0x7c>
   24894:	188003cc 	andi	r2,r3,15
   24898:	01000104 	movi	r4,4
   2489c:	11000126 	beq	r2,r4,248a4 <__subsf3+0x7c>
   248a0:	1907883a 	add	r3,r3,r4
   248a4:	1881002c 	andhi	r2,r3,1024
   248a8:	10003926 	beq	r2,zero,24990 <__subsf3+0x168>
   248ac:	84000044 	addi	r16,r16,1
   248b0:	00803fc4 	movi	r2,255
   248b4:	80807526 	beq	r16,r2,24a8c <__subsf3+0x264>
   248b8:	180691ba 	slli	r3,r3,6
   248bc:	8880004c 	andi	r2,r17,1
   248c0:	180ad27a 	srli	r5,r3,9
   248c4:	84003fcc 	andi	r16,r16,255
   248c8:	800695fa 	slli	r3,r16,23
   248cc:	10803fcc 	andi	r2,r2,255
   248d0:	01002034 	movhi	r4,128
   248d4:	213fffc4 	addi	r4,r4,-1
   248d8:	100497fa 	slli	r2,r2,31
   248dc:	2920703a 	and	r16,r5,r4
   248e0:	80e0b03a 	or	r16,r16,r3
   248e4:	8084b03a 	or	r2,r16,r2
   248e8:	dfc00317 	ldw	ra,12(sp)
   248ec:	dc800217 	ldw	r18,8(sp)
   248f0:	dc400117 	ldw	r17,4(sp)
   248f4:	dc000017 	ldw	r16,0(sp)
   248f8:	dec00404 	addi	sp,sp,16
   248fc:	f800283a 	ret
   24900:	00803fc4 	movi	r2,255
   24904:	80bfe126 	beq	r16,r2,2488c <__alt_mem_SDRAM_controller+0xfc02488c>
   24908:	39c10034 	orhi	r7,r7,1024
   2490c:	008006c4 	movi	r2,27
   24910:	11007416 	blt	r2,r4,24ae4 <__subsf3+0x2bc>
   24914:	00800804 	movi	r2,32
   24918:	1105c83a 	sub	r2,r2,r4
   2491c:	3884983a 	sll	r2,r7,r2
   24920:	390ed83a 	srl	r7,r7,r4
   24924:	1008c03a 	cmpne	r4,r2,zero
   24928:	390eb03a 	or	r7,r7,r4
   2492c:	19c7c83a 	sub	r3,r3,r7
   24930:	1881002c 	andhi	r2,r3,1024
   24934:	10001426 	beq	r2,zero,24988 <__subsf3+0x160>
   24938:	04810034 	movhi	r18,1024
   2493c:	94bfffc4 	addi	r18,r18,-1
   24940:	1ca4703a 	and	r18,r3,r18
   24944:	9009883a 	mov	r4,r18
   24948:	00276b40 	call	276b4 <__clzsi2>
   2494c:	10bffec4 	addi	r2,r2,-5
   24950:	90a4983a 	sll	r18,r18,r2
   24954:	14005116 	blt	r2,r16,24a9c <__subsf3+0x274>
   24958:	1405c83a 	sub	r2,r2,r16
   2495c:	10c00044 	addi	r3,r2,1
   24960:	00800804 	movi	r2,32
   24964:	10c5c83a 	sub	r2,r2,r3
   24968:	9084983a 	sll	r2,r18,r2
   2496c:	90e4d83a 	srl	r18,r18,r3
   24970:	0021883a 	mov	r16,zero
   24974:	1006c03a 	cmpne	r3,r2,zero
   24978:	90c6b03a 	or	r3,r18,r3
   2497c:	003fc306 	br	2488c <__alt_mem_SDRAM_controller+0xfc02488c>
   24980:	2000e026 	beq	r4,zero,24d04 <__subsf3+0x4dc>
   24984:	2007883a 	mov	r3,r4
   24988:	188001cc 	andi	r2,r3,7
   2498c:	103fc11e 	bne	r2,zero,24894 <__alt_mem_SDRAM_controller+0xfc024894>
   24990:	180ad0fa 	srli	r5,r3,3
   24994:	00c03fc4 	movi	r3,255
   24998:	8880004c 	andi	r2,r17,1
   2499c:	80c0031e 	bne	r16,r3,249ac <__subsf3+0x184>
   249a0:	28006d26 	beq	r5,zero,24b58 <__subsf3+0x330>
   249a4:	29401034 	orhi	r5,r5,64
   249a8:	043fffc4 	movi	r16,-1
   249ac:	00c02034 	movhi	r3,128
   249b0:	18ffffc4 	addi	r3,r3,-1
   249b4:	28ca703a 	and	r5,r5,r3
   249b8:	003fc206 	br	248c4 <__alt_mem_SDRAM_controller+0xfc0248c4>
   249bc:	01003c0e 	bge	zero,r4,24ab0 <__subsf3+0x288>
   249c0:	30002126 	beq	r6,zero,24a48 <__subsf3+0x220>
   249c4:	01403fc4 	movi	r5,255
   249c8:	817fb026 	beq	r16,r5,2488c <__alt_mem_SDRAM_controller+0xfc02488c>
   249cc:	39c10034 	orhi	r7,r7,1024
   249d0:	014006c4 	movi	r5,27
   249d4:	29007416 	blt	r5,r4,24ba8 <__subsf3+0x380>
   249d8:	01400804 	movi	r5,32
   249dc:	290bc83a 	sub	r5,r5,r4
   249e0:	394a983a 	sll	r5,r7,r5
   249e4:	390ed83a 	srl	r7,r7,r4
   249e8:	2808c03a 	cmpne	r4,r5,zero
   249ec:	390eb03a 	or	r7,r7,r4
   249f0:	19c7883a 	add	r3,r3,r7
   249f4:	1901002c 	andhi	r4,r3,1024
   249f8:	20003826 	beq	r4,zero,24adc <__subsf3+0x2b4>
   249fc:	84000044 	addi	r16,r16,1
   24a00:	01003fc4 	movi	r4,255
   24a04:	81005426 	beq	r16,r4,24b58 <__subsf3+0x330>
   24a08:	1023883a 	mov	r17,r2
   24a0c:	00bf0034 	movhi	r2,64512
   24a10:	10bfffc4 	addi	r2,r2,-1
   24a14:	1900004c 	andi	r4,r3,1
   24a18:	1886703a 	and	r3,r3,r2
   24a1c:	1806d07a 	srli	r3,r3,1
   24a20:	1906b03a 	or	r3,r3,r4
   24a24:	003f9906 	br	2488c <__alt_mem_SDRAM_controller+0xfc02488c>
   24a28:	383f9226 	beq	r7,zero,24874 <__alt_mem_SDRAM_controller+0xfc024874>
   24a2c:	10803fcc 	andi	r2,r2,255
   24a30:	003f9106 	br	24878 <__alt_mem_SDRAM_controller+0xfc024878>
   24a34:	213fffc4 	addi	r4,r4,-1
   24a38:	203fbc26 	beq	r4,zero,2492c <__alt_mem_SDRAM_controller+0xfc02492c>
   24a3c:	00803fc4 	movi	r2,255
   24a40:	80bfb21e 	bne	r16,r2,2490c <__alt_mem_SDRAM_controller+0xfc02490c>
   24a44:	003f9106 	br	2488c <__alt_mem_SDRAM_controller+0xfc02488c>
   24a48:	383f9026 	beq	r7,zero,2488c <__alt_mem_SDRAM_controller+0xfc02488c>
   24a4c:	213fffc4 	addi	r4,r4,-1
   24a50:	203fe726 	beq	r4,zero,249f0 <__alt_mem_SDRAM_controller+0xfc0249f0>
   24a54:	01403fc4 	movi	r5,255
   24a58:	817fdd1e 	bne	r16,r5,249d0 <__alt_mem_SDRAM_controller+0xfc0249d0>
   24a5c:	003f8b06 	br	2488c <__alt_mem_SDRAM_controller+0xfc02488c>
   24a60:	2000221e 	bne	r4,zero,24aec <__subsf3+0x2c4>
   24a64:	81000044 	addi	r4,r16,1
   24a68:	21003fcc 	andi	r4,r4,255
   24a6c:	01400044 	movi	r5,1
   24a70:	2900470e 	bge	r5,r4,24b90 <__subsf3+0x368>
   24a74:	19e5c83a 	sub	r18,r3,r7
   24a78:	9141002c 	andhi	r5,r18,1024
   24a7c:	28002d26 	beq	r5,zero,24b34 <__subsf3+0x30c>
   24a80:	38e5c83a 	sub	r18,r7,r3
   24a84:	1023883a 	mov	r17,r2
   24a88:	003fae06 	br	24944 <__alt_mem_SDRAM_controller+0xfc024944>
   24a8c:	8880004c 	andi	r2,r17,1
   24a90:	043fffc4 	movi	r16,-1
   24a94:	000b883a 	mov	r5,zero
   24a98:	003f8a06 	br	248c4 <__alt_mem_SDRAM_controller+0xfc0248c4>
   24a9c:	00ff0034 	movhi	r3,64512
   24aa0:	18ffffc4 	addi	r3,r3,-1
   24aa4:	80a1c83a 	sub	r16,r16,r2
   24aa8:	90c6703a 	and	r3,r18,r3
   24aac:	003f7706 	br	2488c <__alt_mem_SDRAM_controller+0xfc02488c>
   24ab0:	2000431e 	bne	r4,zero,24bc0 <__subsf3+0x398>
   24ab4:	81000044 	addi	r4,r16,1
   24ab8:	21803fcc 	andi	r6,r4,255
   24abc:	01400044 	movi	r5,1
   24ac0:	2980280e 	bge	r5,r6,24b64 <__subsf3+0x33c>
   24ac4:	01403fc4 	movi	r5,255
   24ac8:	21402326 	beq	r4,r5,24b58 <__subsf3+0x330>
   24acc:	19c7883a 	add	r3,r3,r7
   24ad0:	1806d07a 	srli	r3,r3,1
   24ad4:	2021883a 	mov	r16,r4
   24ad8:	003f6c06 	br	2488c <__alt_mem_SDRAM_controller+0xfc02488c>
   24adc:	1023883a 	mov	r17,r2
   24ae0:	003fa906 	br	24988 <__alt_mem_SDRAM_controller+0xfc024988>
   24ae4:	01c00044 	movi	r7,1
   24ae8:	003f9006 	br	2492c <__alt_mem_SDRAM_controller+0xfc02492c>
   24aec:	8000151e 	bne	r16,zero,24b44 <__subsf3+0x31c>
   24af0:	18002f26 	beq	r3,zero,24bb0 <__subsf3+0x388>
   24af4:	0108303a 	nor	r4,zero,r4
   24af8:	20000a26 	beq	r4,zero,24b24 <__subsf3+0x2fc>
   24afc:	01403fc4 	movi	r5,255
   24b00:	31402b26 	beq	r6,r5,24bb0 <__subsf3+0x388>
   24b04:	014006c4 	movi	r5,27
   24b08:	29006e16 	blt	r5,r4,24cc4 <__subsf3+0x49c>
   24b0c:	01400804 	movi	r5,32
   24b10:	290bc83a 	sub	r5,r5,r4
   24b14:	194a983a 	sll	r5,r3,r5
   24b18:	1908d83a 	srl	r4,r3,r4
   24b1c:	2806c03a 	cmpne	r3,r5,zero
   24b20:	20c6b03a 	or	r3,r4,r3
   24b24:	38c7c83a 	sub	r3,r7,r3
   24b28:	3021883a 	mov	r16,r6
   24b2c:	1023883a 	mov	r17,r2
   24b30:	003f7f06 	br	24930 <__alt_mem_SDRAM_controller+0xfc024930>
   24b34:	903f831e 	bne	r18,zero,24944 <__alt_mem_SDRAM_controller+0xfc024944>
   24b38:	0005883a 	mov	r2,zero
   24b3c:	0021883a 	mov	r16,zero
   24b40:	003f9a06 	br	249ac <__alt_mem_SDRAM_controller+0xfc0249ac>
   24b44:	01403fc4 	movi	r5,255
   24b48:	31401926 	beq	r6,r5,24bb0 <__subsf3+0x388>
   24b4c:	0109c83a 	sub	r4,zero,r4
   24b50:	18c10034 	orhi	r3,r3,1024
   24b54:	003feb06 	br	24b04 <__alt_mem_SDRAM_controller+0xfc024b04>
   24b58:	043fffc4 	movi	r16,-1
   24b5c:	000b883a 	mov	r5,zero
   24b60:	003f5806 	br	248c4 <__alt_mem_SDRAM_controller+0xfc0248c4>
   24b64:	8000481e 	bne	r16,zero,24c88 <__subsf3+0x460>
   24b68:	18006226 	beq	r3,zero,24cf4 <__subsf3+0x4cc>
   24b6c:	383f4726 	beq	r7,zero,2488c <__alt_mem_SDRAM_controller+0xfc02488c>
   24b70:	19c7883a 	add	r3,r3,r7
   24b74:	1881002c 	andhi	r2,r3,1024
   24b78:	103f8326 	beq	r2,zero,24988 <__alt_mem_SDRAM_controller+0xfc024988>
   24b7c:	00bf0034 	movhi	r2,64512
   24b80:	10bfffc4 	addi	r2,r2,-1
   24b84:	2821883a 	mov	r16,r5
   24b88:	1886703a 	and	r3,r3,r2
   24b8c:	003f3f06 	br	2488c <__alt_mem_SDRAM_controller+0xfc02488c>
   24b90:	80001c1e 	bne	r16,zero,24c04 <__subsf3+0x3dc>
   24b94:	1800261e 	bne	r3,zero,24c30 <__subsf3+0x408>
   24b98:	38004c26 	beq	r7,zero,24ccc <__subsf3+0x4a4>
   24b9c:	3807883a 	mov	r3,r7
   24ba0:	1023883a 	mov	r17,r2
   24ba4:	003f3906 	br	2488c <__alt_mem_SDRAM_controller+0xfc02488c>
   24ba8:	01c00044 	movi	r7,1
   24bac:	003f9006 	br	249f0 <__alt_mem_SDRAM_controller+0xfc0249f0>
   24bb0:	3807883a 	mov	r3,r7
   24bb4:	3021883a 	mov	r16,r6
   24bb8:	1023883a 	mov	r17,r2
   24bbc:	003f3306 	br	2488c <__alt_mem_SDRAM_controller+0xfc02488c>
   24bc0:	8000161e 	bne	r16,zero,24c1c <__subsf3+0x3f4>
   24bc4:	18002d26 	beq	r3,zero,24c7c <__subsf3+0x454>
   24bc8:	0108303a 	nor	r4,zero,r4
   24bcc:	20000a26 	beq	r4,zero,24bf8 <__subsf3+0x3d0>
   24bd0:	01403fc4 	movi	r5,255
   24bd4:	31402926 	beq	r6,r5,24c7c <__subsf3+0x454>
   24bd8:	014006c4 	movi	r5,27
   24bdc:	29004716 	blt	r5,r4,24cfc <__subsf3+0x4d4>
   24be0:	01400804 	movi	r5,32
   24be4:	290bc83a 	sub	r5,r5,r4
   24be8:	194a983a 	sll	r5,r3,r5
   24bec:	1908d83a 	srl	r4,r3,r4
   24bf0:	2806c03a 	cmpne	r3,r5,zero
   24bf4:	20c6b03a 	or	r3,r4,r3
   24bf8:	19c7883a 	add	r3,r3,r7
   24bfc:	3021883a 	mov	r16,r6
   24c00:	003f7c06 	br	249f4 <__alt_mem_SDRAM_controller+0xfc0249f4>
   24c04:	1800111e 	bne	r3,zero,24c4c <__subsf3+0x424>
   24c08:	38003326 	beq	r7,zero,24cd8 <__subsf3+0x4b0>
   24c0c:	3807883a 	mov	r3,r7
   24c10:	1023883a 	mov	r17,r2
   24c14:	04003fc4 	movi	r16,255
   24c18:	003f1c06 	br	2488c <__alt_mem_SDRAM_controller+0xfc02488c>
   24c1c:	01403fc4 	movi	r5,255
   24c20:	31401626 	beq	r6,r5,24c7c <__subsf3+0x454>
   24c24:	0109c83a 	sub	r4,zero,r4
   24c28:	18c10034 	orhi	r3,r3,1024
   24c2c:	003fea06 	br	24bd8 <__alt_mem_SDRAM_controller+0xfc024bd8>
   24c30:	383f1626 	beq	r7,zero,2488c <__alt_mem_SDRAM_controller+0xfc02488c>
   24c34:	19c9c83a 	sub	r4,r3,r7
   24c38:	2141002c 	andhi	r5,r4,1024
   24c3c:	283f5026 	beq	r5,zero,24980 <__alt_mem_SDRAM_controller+0xfc024980>
   24c40:	38c7c83a 	sub	r3,r7,r3
   24c44:	1023883a 	mov	r17,r2
   24c48:	003f1006 	br	2488c <__alt_mem_SDRAM_controller+0xfc02488c>
   24c4c:	38001b26 	beq	r7,zero,24cbc <__subsf3+0x494>
   24c50:	1806d0fa 	srli	r3,r3,3
   24c54:	1900102c 	andhi	r4,r3,64
   24c58:	20000526 	beq	r4,zero,24c70 <__subsf3+0x448>
   24c5c:	380ed0fa 	srli	r7,r7,3
   24c60:	3900102c 	andhi	r4,r7,64
   24c64:	2000021e 	bne	r4,zero,24c70 <__subsf3+0x448>
   24c68:	3807883a 	mov	r3,r7
   24c6c:	1023883a 	mov	r17,r2
   24c70:	180690fa 	slli	r3,r3,3
   24c74:	04003fc4 	movi	r16,255
   24c78:	003f0406 	br	2488c <__alt_mem_SDRAM_controller+0xfc02488c>
   24c7c:	3807883a 	mov	r3,r7
   24c80:	3021883a 	mov	r16,r6
   24c84:	003f0106 	br	2488c <__alt_mem_SDRAM_controller+0xfc02488c>
   24c88:	18001726 	beq	r3,zero,24ce8 <__subsf3+0x4c0>
   24c8c:	38000b26 	beq	r7,zero,24cbc <__subsf3+0x494>
   24c90:	1806d0fa 	srli	r3,r3,3
   24c94:	1900102c 	andhi	r4,r3,64
   24c98:	20000426 	beq	r4,zero,24cac <__subsf3+0x484>
   24c9c:	380ed0fa 	srli	r7,r7,3
   24ca0:	3900102c 	andhi	r4,r7,64
   24ca4:	2000011e 	bne	r4,zero,24cac <__subsf3+0x484>
   24ca8:	3807883a 	mov	r3,r7
   24cac:	180690fa 	slli	r3,r3,3
   24cb0:	1023883a 	mov	r17,r2
   24cb4:	04003fc4 	movi	r16,255
   24cb8:	003ef406 	br	2488c <__alt_mem_SDRAM_controller+0xfc02488c>
   24cbc:	04003fc4 	movi	r16,255
   24cc0:	003ef206 	br	2488c <__alt_mem_SDRAM_controller+0xfc02488c>
   24cc4:	00c00044 	movi	r3,1
   24cc8:	003f9606 	br	24b24 <__alt_mem_SDRAM_controller+0xfc024b24>
   24ccc:	000b883a 	mov	r5,zero
   24cd0:	0005883a 	mov	r2,zero
   24cd4:	003f3506 	br	249ac <__alt_mem_SDRAM_controller+0xfc0249ac>
   24cd8:	01402034 	movhi	r5,128
   24cdc:	297fffc4 	addi	r5,r5,-1
   24ce0:	0005883a 	mov	r2,zero
   24ce4:	003f2f06 	br	249a4 <__alt_mem_SDRAM_controller+0xfc0249a4>
   24ce8:	3807883a 	mov	r3,r7
   24cec:	04003fc4 	movi	r16,255
   24cf0:	003ee606 	br	2488c <__alt_mem_SDRAM_controller+0xfc02488c>
   24cf4:	3807883a 	mov	r3,r7
   24cf8:	003ee406 	br	2488c <__alt_mem_SDRAM_controller+0xfc02488c>
   24cfc:	00c00044 	movi	r3,1
   24d00:	003fbd06 	br	24bf8 <__alt_mem_SDRAM_controller+0xfc024bf8>
   24d04:	0005883a 	mov	r2,zero
   24d08:	003f2806 	br	249ac <__alt_mem_SDRAM_controller+0xfc0249ac>

00024d0c <__fixsfsi>:
   24d0c:	200ad5fa 	srli	r5,r4,23
   24d10:	00c02034 	movhi	r3,128
   24d14:	18ffffc4 	addi	r3,r3,-1
   24d18:	29403fcc 	andi	r5,r5,255
   24d1c:	00801f84 	movi	r2,126
   24d20:	1906703a 	and	r3,r3,r4
   24d24:	2008d7fa 	srli	r4,r4,31
   24d28:	11400e0e 	bge	r2,r5,24d64 <__fixsfsi+0x58>
   24d2c:	00802744 	movi	r2,157
   24d30:	11400816 	blt	r2,r5,24d54 <__fixsfsi+0x48>
   24d34:	00802544 	movi	r2,149
   24d38:	18c02034 	orhi	r3,r3,128
   24d3c:	11400b0e 	bge	r2,r5,24d6c <__fixsfsi+0x60>
   24d40:	28bfda84 	addi	r2,r5,-150
   24d44:	1884983a 	sll	r2,r3,r2
   24d48:	20000726 	beq	r4,zero,24d68 <__fixsfsi+0x5c>
   24d4c:	0085c83a 	sub	r2,zero,r2
   24d50:	f800283a 	ret
   24d54:	00a00034 	movhi	r2,32768
   24d58:	10bfffc4 	addi	r2,r2,-1
   24d5c:	2085883a 	add	r2,r4,r2
   24d60:	f800283a 	ret
   24d64:	0005883a 	mov	r2,zero
   24d68:	f800283a 	ret
   24d6c:	00802584 	movi	r2,150
   24d70:	1145c83a 	sub	r2,r2,r5
   24d74:	1884d83a 	srl	r2,r3,r2
   24d78:	003ff306 	br	24d48 <__alt_mem_SDRAM_controller+0xfc024d48>

00024d7c <__floatsisf>:
   24d7c:	defffd04 	addi	sp,sp,-12
   24d80:	dfc00215 	stw	ra,8(sp)
   24d84:	dc400115 	stw	r17,4(sp)
   24d88:	dc000015 	stw	r16,0(sp)
   24d8c:	20003526 	beq	r4,zero,24e64 <__floatsisf+0xe8>
   24d90:	2021883a 	mov	r16,r4
   24d94:	2022d7fa 	srli	r17,r4,31
   24d98:	20003616 	blt	r4,zero,24e74 <__floatsisf+0xf8>
   24d9c:	8009883a 	mov	r4,r16
   24da0:	00276b40 	call	276b4 <__clzsi2>
   24da4:	00c02784 	movi	r3,158
   24da8:	1887c83a 	sub	r3,r3,r2
   24dac:	01002584 	movi	r4,150
   24db0:	20c01416 	blt	r4,r3,24e04 <__floatsisf+0x88>
   24db4:	20c9c83a 	sub	r4,r4,r3
   24db8:	8120983a 	sll	r16,r16,r4
   24dbc:	00802034 	movhi	r2,128
   24dc0:	10bfffc4 	addi	r2,r2,-1
   24dc4:	8809883a 	mov	r4,r17
   24dc8:	80a0703a 	and	r16,r16,r2
   24dcc:	18803fcc 	andi	r2,r3,255
   24dd0:	100695fa 	slli	r3,r2,23
   24dd4:	20803fcc 	andi	r2,r4,255
   24dd8:	100897fa 	slli	r4,r2,31
   24ddc:	00802034 	movhi	r2,128
   24de0:	10bfffc4 	addi	r2,r2,-1
   24de4:	8084703a 	and	r2,r16,r2
   24de8:	10c4b03a 	or	r2,r2,r3
   24dec:	1104b03a 	or	r2,r2,r4
   24df0:	dfc00217 	ldw	ra,8(sp)
   24df4:	dc400117 	ldw	r17,4(sp)
   24df8:	dc000017 	ldw	r16,0(sp)
   24dfc:	dec00304 	addi	sp,sp,12
   24e00:	f800283a 	ret
   24e04:	01002644 	movi	r4,153
   24e08:	20c01c16 	blt	r4,r3,24e7c <__floatsisf+0x100>
   24e0c:	20c9c83a 	sub	r4,r4,r3
   24e10:	8120983a 	sll	r16,r16,r4
   24e14:	013f0034 	movhi	r4,64512
   24e18:	213fffc4 	addi	r4,r4,-1
   24e1c:	814001cc 	andi	r5,r16,7
   24e20:	8108703a 	and	r4,r16,r4
   24e24:	28000426 	beq	r5,zero,24e38 <__floatsisf+0xbc>
   24e28:	840003cc 	andi	r16,r16,15
   24e2c:	01400104 	movi	r5,4
   24e30:	81400126 	beq	r16,r5,24e38 <__floatsisf+0xbc>
   24e34:	2149883a 	add	r4,r4,r5
   24e38:	2141002c 	andhi	r5,r4,1024
   24e3c:	28000526 	beq	r5,zero,24e54 <__floatsisf+0xd8>
   24e40:	00c027c4 	movi	r3,159
   24e44:	1887c83a 	sub	r3,r3,r2
   24e48:	00bf0034 	movhi	r2,64512
   24e4c:	10bfffc4 	addi	r2,r2,-1
   24e50:	2088703a 	and	r4,r4,r2
   24e54:	202091ba 	slli	r16,r4,6
   24e58:	8809883a 	mov	r4,r17
   24e5c:	8020d27a 	srli	r16,r16,9
   24e60:	003fda06 	br	24dcc <__alt_mem_SDRAM_controller+0xfc024dcc>
   24e64:	0009883a 	mov	r4,zero
   24e68:	0007883a 	mov	r3,zero
   24e6c:	0021883a 	mov	r16,zero
   24e70:	003fd606 	br	24dcc <__alt_mem_SDRAM_controller+0xfc024dcc>
   24e74:	0121c83a 	sub	r16,zero,r4
   24e78:	003fc806 	br	24d9c <__alt_mem_SDRAM_controller+0xfc024d9c>
   24e7c:	01002e44 	movi	r4,185
   24e80:	20c9c83a 	sub	r4,r4,r3
   24e84:	01400144 	movi	r5,5
   24e88:	8108983a 	sll	r4,r16,r4
   24e8c:	288bc83a 	sub	r5,r5,r2
   24e90:	8160d83a 	srl	r16,r16,r5
   24e94:	2008c03a 	cmpne	r4,r4,zero
   24e98:	8120b03a 	or	r16,r16,r4
   24e9c:	003fdd06 	br	24e14 <__alt_mem_SDRAM_controller+0xfc024e14>

00024ea0 <__adddf3>:
   24ea0:	02c00434 	movhi	r11,16
   24ea4:	5affffc4 	addi	r11,r11,-1
   24ea8:	2806d7fa 	srli	r3,r5,31
   24eac:	2ad4703a 	and	r10,r5,r11
   24eb0:	3ad2703a 	and	r9,r7,r11
   24eb4:	3804d53a 	srli	r2,r7,20
   24eb8:	3018d77a 	srli	r12,r6,29
   24ebc:	280ad53a 	srli	r5,r5,20
   24ec0:	501490fa 	slli	r10,r10,3
   24ec4:	2010d77a 	srli	r8,r4,29
   24ec8:	481290fa 	slli	r9,r9,3
   24ecc:	380ed7fa 	srli	r7,r7,31
   24ed0:	defffb04 	addi	sp,sp,-20
   24ed4:	dc800215 	stw	r18,8(sp)
   24ed8:	dc400115 	stw	r17,4(sp)
   24edc:	dc000015 	stw	r16,0(sp)
   24ee0:	dfc00415 	stw	ra,16(sp)
   24ee4:	dcc00315 	stw	r19,12(sp)
   24ee8:	1c803fcc 	andi	r18,r3,255
   24eec:	2c01ffcc 	andi	r16,r5,2047
   24ef0:	5210b03a 	or	r8,r10,r8
   24ef4:	202290fa 	slli	r17,r4,3
   24ef8:	1081ffcc 	andi	r2,r2,2047
   24efc:	4b12b03a 	or	r9,r9,r12
   24f00:	300c90fa 	slli	r6,r6,3
   24f04:	91c07526 	beq	r18,r7,250dc <__adddf3+0x23c>
   24f08:	8087c83a 	sub	r3,r16,r2
   24f0c:	00c0ab0e 	bge	zero,r3,251bc <__adddf3+0x31c>
   24f10:	10002a1e 	bne	r2,zero,24fbc <__adddf3+0x11c>
   24f14:	4984b03a 	or	r2,r9,r6
   24f18:	1000961e 	bne	r2,zero,25174 <__adddf3+0x2d4>
   24f1c:	888001cc 	andi	r2,r17,7
   24f20:	10000726 	beq	r2,zero,24f40 <__adddf3+0xa0>
   24f24:	888003cc 	andi	r2,r17,15
   24f28:	00c00104 	movi	r3,4
   24f2c:	10c00426 	beq	r2,r3,24f40 <__adddf3+0xa0>
   24f30:	88c7883a 	add	r3,r17,r3
   24f34:	1c63803a 	cmpltu	r17,r3,r17
   24f38:	4451883a 	add	r8,r8,r17
   24f3c:	1823883a 	mov	r17,r3
   24f40:	4080202c 	andhi	r2,r8,128
   24f44:	10005926 	beq	r2,zero,250ac <__adddf3+0x20c>
   24f48:	84000044 	addi	r16,r16,1
   24f4c:	0081ffc4 	movi	r2,2047
   24f50:	8080ba26 	beq	r16,r2,2523c <__adddf3+0x39c>
   24f54:	00bfe034 	movhi	r2,65408
   24f58:	10bfffc4 	addi	r2,r2,-1
   24f5c:	4090703a 	and	r8,r8,r2
   24f60:	4004977a 	slli	r2,r8,29
   24f64:	4010927a 	slli	r8,r8,9
   24f68:	8822d0fa 	srli	r17,r17,3
   24f6c:	8401ffcc 	andi	r16,r16,2047
   24f70:	4010d33a 	srli	r8,r8,12
   24f74:	9007883a 	mov	r3,r18
   24f78:	1444b03a 	or	r2,r2,r17
   24f7c:	8401ffcc 	andi	r16,r16,2047
   24f80:	8020953a 	slli	r16,r16,20
   24f84:	18c03fcc 	andi	r3,r3,255
   24f88:	01000434 	movhi	r4,16
   24f8c:	213fffc4 	addi	r4,r4,-1
   24f90:	180697fa 	slli	r3,r3,31
   24f94:	4110703a 	and	r8,r8,r4
   24f98:	4410b03a 	or	r8,r8,r16
   24f9c:	40c6b03a 	or	r3,r8,r3
   24fa0:	dfc00417 	ldw	ra,16(sp)
   24fa4:	dcc00317 	ldw	r19,12(sp)
   24fa8:	dc800217 	ldw	r18,8(sp)
   24fac:	dc400117 	ldw	r17,4(sp)
   24fb0:	dc000017 	ldw	r16,0(sp)
   24fb4:	dec00504 	addi	sp,sp,20
   24fb8:	f800283a 	ret
   24fbc:	0081ffc4 	movi	r2,2047
   24fc0:	80bfd626 	beq	r16,r2,24f1c <__alt_mem_SDRAM_controller+0xfc024f1c>
   24fc4:	4a402034 	orhi	r9,r9,128
   24fc8:	00800e04 	movi	r2,56
   24fcc:	10c09f16 	blt	r2,r3,2524c <__adddf3+0x3ac>
   24fd0:	008007c4 	movi	r2,31
   24fd4:	10c0c216 	blt	r2,r3,252e0 <__adddf3+0x440>
   24fd8:	00800804 	movi	r2,32
   24fdc:	10c5c83a 	sub	r2,r2,r3
   24fe0:	488a983a 	sll	r5,r9,r2
   24fe4:	30c8d83a 	srl	r4,r6,r3
   24fe8:	3084983a 	sll	r2,r6,r2
   24fec:	48c6d83a 	srl	r3,r9,r3
   24ff0:	290cb03a 	or	r6,r5,r4
   24ff4:	1004c03a 	cmpne	r2,r2,zero
   24ff8:	308cb03a 	or	r6,r6,r2
   24ffc:	898dc83a 	sub	r6,r17,r6
   25000:	89a3803a 	cmpltu	r17,r17,r6
   25004:	40d1c83a 	sub	r8,r8,r3
   25008:	4451c83a 	sub	r8,r8,r17
   2500c:	3023883a 	mov	r17,r6
   25010:	4080202c 	andhi	r2,r8,128
   25014:	10002326 	beq	r2,zero,250a4 <__adddf3+0x204>
   25018:	04c02034 	movhi	r19,128
   2501c:	9cffffc4 	addi	r19,r19,-1
   25020:	44e6703a 	and	r19,r8,r19
   25024:	98007626 	beq	r19,zero,25200 <__adddf3+0x360>
   25028:	9809883a 	mov	r4,r19
   2502c:	00276b40 	call	276b4 <__clzsi2>
   25030:	10fffe04 	addi	r3,r2,-8
   25034:	010007c4 	movi	r4,31
   25038:	20c07716 	blt	r4,r3,25218 <__adddf3+0x378>
   2503c:	00800804 	movi	r2,32
   25040:	10c5c83a 	sub	r2,r2,r3
   25044:	8884d83a 	srl	r2,r17,r2
   25048:	98d0983a 	sll	r8,r19,r3
   2504c:	88e2983a 	sll	r17,r17,r3
   25050:	1204b03a 	or	r2,r2,r8
   25054:	1c007416 	blt	r3,r16,25228 <__adddf3+0x388>
   25058:	1c21c83a 	sub	r16,r3,r16
   2505c:	82000044 	addi	r8,r16,1
   25060:	00c007c4 	movi	r3,31
   25064:	1a009116 	blt	r3,r8,252ac <__adddf3+0x40c>
   25068:	00c00804 	movi	r3,32
   2506c:	1a07c83a 	sub	r3,r3,r8
   25070:	8a08d83a 	srl	r4,r17,r8
   25074:	88e2983a 	sll	r17,r17,r3
   25078:	10c6983a 	sll	r3,r2,r3
   2507c:	1210d83a 	srl	r8,r2,r8
   25080:	8804c03a 	cmpne	r2,r17,zero
   25084:	1906b03a 	or	r3,r3,r4
   25088:	18a2b03a 	or	r17,r3,r2
   2508c:	0021883a 	mov	r16,zero
   25090:	003fa206 	br	24f1c <__alt_mem_SDRAM_controller+0xfc024f1c>
   25094:	1890b03a 	or	r8,r3,r2
   25098:	40017d26 	beq	r8,zero,25690 <__adddf3+0x7f0>
   2509c:	1011883a 	mov	r8,r2
   250a0:	1823883a 	mov	r17,r3
   250a4:	888001cc 	andi	r2,r17,7
   250a8:	103f9e1e 	bne	r2,zero,24f24 <__alt_mem_SDRAM_controller+0xfc024f24>
   250ac:	4004977a 	slli	r2,r8,29
   250b0:	8822d0fa 	srli	r17,r17,3
   250b4:	4010d0fa 	srli	r8,r8,3
   250b8:	9007883a 	mov	r3,r18
   250bc:	1444b03a 	or	r2,r2,r17
   250c0:	0101ffc4 	movi	r4,2047
   250c4:	81002426 	beq	r16,r4,25158 <__adddf3+0x2b8>
   250c8:	8120703a 	and	r16,r16,r4
   250cc:	01000434 	movhi	r4,16
   250d0:	213fffc4 	addi	r4,r4,-1
